SF:/Users/jkh/Code/ai/cogni/cogni-client/src/builder.rs
FN:88,_RNvMNtCs7KwJKxSQlzX_12cogni_client7builderNtB2_14RequestBuilder10max_tokens
FN:118,_RNvMNtCs7KwJKxSQlzX_12cogni_client7builderNtB2_14RequestBuilder10parameters
FN:82,_RNvMNtCs7KwJKxSQlzX_12cogni_client7builderNtB2_14RequestBuilder11temperature
FN:64,_RNvMNtCs7KwJKxSQlzX_12cogni_client7builderNtB2_14RequestBuilder12with_message
FN:136,_RNvMNtCs7KwJKxSQlzX_12cogni_client7builderNtB2_14RequestBuilder15response_format
FN:106,_RNvMNtCs7KwJKxSQlzX_12cogni_client7builderNtB2_14RequestBuilder16presence_penalty
FN:100,_RNvMNtCs7KwJKxSQlzX_12cogni_client7builderNtB2_14RequestBuilder17frequency_penalty
FN:34,_RNvMNtCs7KwJKxSQlzX_12cogni_client7builderNtB2_14RequestBuilder3new
FN:161,_RNvMNtCs7KwJKxSQlzX_12cogni_client7builderNtB2_14RequestBuilder5build
FN:94,_RNvMNtCs7KwJKxSQlzX_12cogni_client7builderNtB2_14RequestBuilder5top_p
FN:151,_RNvMNtCs7KwJKxSQlzX_12cogni_client7builderNtB2_14RequestBuilder9json_mode
FN:176,_RNvMNtCs7KwJKxSQlzX_12cogni_client7builderNtB2_14RequestBuilder9try_build
FN:44,_RINvMNtCshZjyUOIHxJx_12cogni_client7builderNtB3_14RequestBuilder4userReEB5_
FN:76,_RINvMNtCshZjyUOIHxJx_12cogni_client7builderNtB3_14RequestBuilder5modelNtNtNtCsagf8dG4onv5_10cogni_core5types7request5ModelEB5_
FN:76,_RINvMNtCshZjyUOIHxJx_12cogni_client7builderNtB3_14RequestBuilder5modelReEB5_
FN:39,_RINvMNtCshZjyUOIHxJx_12cogni_client7builderNtB3_14RequestBuilder6systemReEB5_
FN:54,_RINvMNtCshZjyUOIHxJx_12cogni_client7builderNtB3_14RequestBuilder7messageNtNtCse1nGBsou5OW_5alloc6string6StringEB5_
FN:142,_RINvMNtCshZjyUOIHxJx_12cogni_client7builderNtB3_14RequestBuilder22with_structured_outputpEB5_
FN:112,_RINvMNtCshZjyUOIHxJx_12cogni_client7builderNtB3_14RequestBuilder4stoppEB5_
FN:124,_RINvMNtCshZjyUOIHxJx_12cogni_client7builderNtB3_14RequestBuilder4toolpEB5_
FN:130,_RINvMNtCshZjyUOIHxJx_12cogni_client7builderNtB3_14RequestBuilder5toolspEB5_
FN:70,_RINvMNtCshZjyUOIHxJx_12cogni_client7builderNtB3_14RequestBuilder8messagespEB5_
FN:49,_RINvMNtCshZjyUOIHxJx_12cogni_client7builderNtB3_14RequestBuilder9assistantpEB5_
FN:64,_RNvMNtCshZjyUOIHxJx_12cogni_client7builderNtB2_14RequestBuilder12with_message
FN:136,_RNvMNtCshZjyUOIHxJx_12cogni_client7builderNtB2_14RequestBuilder15response_format
FN:106,_RNvMNtCshZjyUOIHxJx_12cogni_client7builderNtB2_14RequestBuilder16presence_penalty
FN:100,_RNvMNtCshZjyUOIHxJx_12cogni_client7builderNtB2_14RequestBuilder17frequency_penalty
FN:151,_RNvMNtCshZjyUOIHxJx_12cogni_client7builderNtB2_14RequestBuilder9json_mode
FN:203,_RNvNtNtCshZjyUOIHxJx_12cogni_client7builder5testss_18test_builder_basic
FN:229,_RNvNtNtCshZjyUOIHxJx_12cogni_client7builder5testss_23test_builder_with_model
FN:242,_RNvNtNtCshZjyUOIHxJx_12cogni_client7builder5testss_26test_try_build_no_messages
FN:215,_RNvNtNtCshZjyUOIHxJx_12cogni_client7builder5testss_28test_builder_with_parameters
FN:237,_RNvNtNtCshZjyUOIHxJx_12cogni_client7builder5testss_31test_builder_no_messages_panics
FN:88,_RNvMNtCshZjyUOIHxJx_12cogni_client7builderNtB2_14RequestBuilder10max_tokens
FN:118,_RNvMNtCshZjyUOIHxJx_12cogni_client7builderNtB2_14RequestBuilder10parameters
FN:82,_RNvMNtCshZjyUOIHxJx_12cogni_client7builderNtB2_14RequestBuilder11temperature
FN:34,_RNvMNtCshZjyUOIHxJx_12cogni_client7builderNtB2_14RequestBuilder3new
FN:161,_RNvMNtCshZjyUOIHxJx_12cogni_client7builderNtB2_14RequestBuilder5build
FN:94,_RNvMNtCshZjyUOIHxJx_12cogni_client7builderNtB2_14RequestBuilder5top_p
FN:176,_RNvMNtCshZjyUOIHxJx_12cogni_client7builderNtB2_14RequestBuilder9try_build
FN:142,_RINvMNtCs7KwJKxSQlzX_12cogni_client7builderNtB3_14RequestBuilder22with_structured_outputNtCsQadenfUz7B_22structured_output_test13TestStructureEB1q_
FN:44,_RINvMNtCs7KwJKxSQlzX_12cogni_client7builderNtB3_14RequestBuilder4userReECsQadenfUz7B_22structured_output_test
FN:76,_RINvMNtCs7KwJKxSQlzX_12cogni_client7builderNtB3_14RequestBuilder5modelNtNtNtCsagf8dG4onv5_10cogni_core5types7request5ModelECsQadenfUz7B_22structured_output_test
FN:76,_RINvMNtCs7KwJKxSQlzX_12cogni_client7builderNtB3_14RequestBuilder5modelReECsQadenfUz7B_22structured_output_test
FN:39,_RINvMNtCs7KwJKxSQlzX_12cogni_client7builderNtB3_14RequestBuilder6systemReECsQadenfUz7B_22structured_output_test
FN:54,_RINvMNtCs7KwJKxSQlzX_12cogni_client7builderNtB3_14RequestBuilder7messageNtNtCse1nGBsou5OW_5alloc6string6StringECsQadenfUz7B_22structured_output_test
FNDA:0,_RNvMNtCs7KwJKxSQlzX_12cogni_client7builderNtB2_14RequestBuilder10max_tokens
FNDA:2,_RNvMNtCs7KwJKxSQlzX_12cogni_client7builderNtB2_14RequestBuilder10parameters
FNDA:0,_RNvMNtCs7KwJKxSQlzX_12cogni_client7builderNtB2_14RequestBuilder11temperature
FNDA:0,_RNvMNtCs7KwJKxSQlzX_12cogni_client7builderNtB2_14RequestBuilder12with_message
FNDA:2,_RNvMNtCs7KwJKxSQlzX_12cogni_client7builderNtB2_14RequestBuilder15response_format
FNDA:0,_RNvMNtCs7KwJKxSQlzX_12cogni_client7builderNtB2_14RequestBuilder16presence_penalty
FNDA:0,_RNvMNtCs7KwJKxSQlzX_12cogni_client7builderNtB2_14RequestBuilder17frequency_penalty
FNDA:4,_RNvMNtCs7KwJKxSQlzX_12cogni_client7builderNtB2_14RequestBuilder3new
FNDA:4,_RNvMNtCs7KwJKxSQlzX_12cogni_client7builderNtB2_14RequestBuilder5build
FNDA:0,_RNvMNtCs7KwJKxSQlzX_12cogni_client7builderNtB2_14RequestBuilder5top_p
FNDA:1,_RNvMNtCs7KwJKxSQlzX_12cogni_client7builderNtB2_14RequestBuilder9json_mode
FNDA:0,_RNvMNtCs7KwJKxSQlzX_12cogni_client7builderNtB2_14RequestBuilder9try_build
FNDA:4,_RINvMNtCshZjyUOIHxJx_12cogni_client7builderNtB3_14RequestBuilder4userReEB5_
FNDA:1,_RINvMNtCshZjyUOIHxJx_12cogni_client7builderNtB3_14RequestBuilder5modelNtNtNtCsagf8dG4onv5_10cogni_core5types7request5ModelEB5_
FNDA:1,_RINvMNtCshZjyUOIHxJx_12cogni_client7builderNtB3_14RequestBuilder5modelReEB5_
FNDA:2,_RINvMNtCshZjyUOIHxJx_12cogni_client7builderNtB3_14RequestBuilder6systemReEB5_
FNDA:6,_RINvMNtCshZjyUOIHxJx_12cogni_client7builderNtB3_14RequestBuilder7messageNtNtCse1nGBsou5OW_5alloc6string6StringEB5_
FNDA:0,_RINvMNtCshZjyUOIHxJx_12cogni_client7builderNtB3_14RequestBuilder22with_structured_outputpEB5_
FNDA:0,_RINvMNtCshZjyUOIHxJx_12cogni_client7builderNtB3_14RequestBuilder4stoppEB5_
FNDA:0,_RINvMNtCshZjyUOIHxJx_12cogni_client7builderNtB3_14RequestBuilder4toolpEB5_
FNDA:0,_RINvMNtCshZjyUOIHxJx_12cogni_client7builderNtB3_14RequestBuilder5toolspEB5_
FNDA:0,_RINvMNtCshZjyUOIHxJx_12cogni_client7builderNtB3_14RequestBuilder8messagespEB5_
FNDA:0,_RINvMNtCshZjyUOIHxJx_12cogni_client7builderNtB3_14RequestBuilder9assistantpEB5_
FNDA:0,_RNvMNtCshZjyUOIHxJx_12cogni_client7builderNtB2_14RequestBuilder12with_message
FNDA:0,_RNvMNtCshZjyUOIHxJx_12cogni_client7builderNtB2_14RequestBuilder15response_format
FNDA:0,_RNvMNtCshZjyUOIHxJx_12cogni_client7builderNtB2_14RequestBuilder16presence_penalty
FNDA:0,_RNvMNtCshZjyUOIHxJx_12cogni_client7builderNtB2_14RequestBuilder17frequency_penalty
FNDA:0,_RNvMNtCshZjyUOIHxJx_12cogni_client7builderNtB2_14RequestBuilder9json_mode
FNDA:1,_RNvNtNtCshZjyUOIHxJx_12cogni_client7builder5testss_18test_builder_basic
FNDA:1,_RNvNtNtCshZjyUOIHxJx_12cogni_client7builder5testss_23test_builder_with_model
FNDA:1,_RNvNtNtCshZjyUOIHxJx_12cogni_client7builder5testss_26test_try_build_no_messages
FNDA:1,_RNvNtNtCshZjyUOIHxJx_12cogni_client7builder5testss_28test_builder_with_parameters
FNDA:1,_RNvNtNtCshZjyUOIHxJx_12cogni_client7builder5testss_31test_builder_no_messages_panics
FNDA:1,_RNvMNtCshZjyUOIHxJx_12cogni_client7builderNtB2_14RequestBuilder10max_tokens
FNDA:1,_RNvMNtCshZjyUOIHxJx_12cogni_client7builderNtB2_14RequestBuilder10parameters
FNDA:2,_RNvMNtCshZjyUOIHxJx_12cogni_client7builderNtB2_14RequestBuilder11temperature
FNDA:6,_RNvMNtCshZjyUOIHxJx_12cogni_client7builderNtB2_14RequestBuilder3new
FNDA:5,_RNvMNtCshZjyUOIHxJx_12cogni_client7builderNtB2_14RequestBuilder5build
FNDA:1,_RNvMNtCshZjyUOIHxJx_12cogni_client7builderNtB2_14RequestBuilder5top_p
FNDA:1,_RNvMNtCshZjyUOIHxJx_12cogni_client7builderNtB2_14RequestBuilder9try_build
FNDA:1,_RINvMNtCs7KwJKxSQlzX_12cogni_client7builderNtB3_14RequestBuilder22with_structured_outputNtCsQadenfUz7B_22structured_output_test13TestStructureEB1q_
FNDA:4,_RINvMNtCs7KwJKxSQlzX_12cogni_client7builderNtB3_14RequestBuilder4userReECsQadenfUz7B_22structured_output_test
FNDA:2,_RINvMNtCs7KwJKxSQlzX_12cogni_client7builderNtB3_14RequestBuilder5modelNtNtNtCsagf8dG4onv5_10cogni_core5types7request5ModelECsQadenfUz7B_22structured_output_test
FNDA:2,_RINvMNtCs7KwJKxSQlzX_12cogni_client7builderNtB3_14RequestBuilder5modelReECsQadenfUz7B_22structured_output_test
FNDA:2,_RINvMNtCs7KwJKxSQlzX_12cogni_client7builderNtB3_14RequestBuilder6systemReECsQadenfUz7B_22structured_output_test
FNDA:6,_RINvMNtCs7KwJKxSQlzX_12cogni_client7builderNtB3_14RequestBuilder7messageNtNtCse1nGBsou5OW_5alloc6string6StringECsQadenfUz7B_22structured_output_test
FNF:27
FNH:19
DA:34,10
DA:35,10
DA:36,10
DA:39,4
DA:40,4
DA:41,4
DA:44,8
DA:45,8
DA:46,8
DA:49,0
DA:50,0
DA:51,0
DA:54,12
DA:55,12
DA:56,12
DA:57,12
DA:58,12
DA:59,12
DA:60,12
DA:61,12
DA:64,0
DA:65,0
DA:66,0
DA:67,0
DA:70,0
DA:71,0
DA:72,0
DA:73,0
DA:76,6
DA:77,6
DA:78,6
DA:79,6
DA:82,2
DA:83,2
DA:84,2
DA:85,2
DA:88,1
DA:89,1
DA:90,1
DA:91,1
DA:94,1
DA:95,1
DA:96,1
DA:97,1
DA:100,0
DA:101,0
DA:102,0
DA:103,0
DA:106,0
DA:107,0
DA:108,0
DA:109,0
DA:112,0
DA:113,0
DA:114,0
DA:115,0
DA:118,3
DA:119,3
DA:120,3
DA:121,3
DA:124,0
DA:125,0
DA:126,0
DA:127,0
DA:130,0
DA:131,0
DA:132,0
DA:133,0
DA:136,2
DA:137,2
DA:138,2
DA:139,2
DA:142,1
DA:143,1
DA:144,1
DA:145,1
DA:146,1
DA:147,1
DA:148,1
DA:151,1
DA:152,1
DA:153,1
DA:154,1
DA:161,9
DA:162,9
DA:163,1
DA:164,8
DA:165,8
DA:166,8
DA:167,8
DA:168,8
DA:169,8
DA:170,8
DA:171,8
DA:172,8
DA:173,8
DA:176,1
DA:177,1
DA:178,1
DA:179,0
DA:180,0
DA:181,0
DA:182,0
DA:183,0
DA:184,0
DA:185,0
DA:186,0
DA:187,0
DA:188,1
DA:203,1
DA:204,1
DA:205,1
DA:206,1
DA:207,1
DA:208,1
DA:209,1
DA:210,1
DA:211,1
DA:212,1
DA:215,1
DA:216,1
DA:217,1
DA:218,1
DA:219,1
DA:220,1
DA:221,1
DA:222,1
DA:223,1
DA:224,1
DA:225,1
DA:226,1
DA:229,1
DA:230,1
DA:231,1
DA:232,1
DA:233,1
DA:237,1
DA:238,1
DA:239,1
DA:242,1
DA:243,1
DA:244,1
DA:245,1
BRF:0
BRH:0
LF:143
LH:103
end_of_record
SF:/Users/jkh/Code/ai/cogni/cogni-client/src/client.rs
FN:92,_RNvMNtCs7KwJKxSQlzX_12cogni_client6clientINtB2_6ClientNtCsgyDhXtLpw1x_21agentic_features_test12MockProviderE10with_stateBS_
FN:51,_RNvMNtCs7KwJKxSQlzX_12cogni_client6clientINtB2_6ClientNtCsgyDhXtLpw1x_21agentic_features_test12MockProviderE3newBS_
FN:92,_RNvMNtCs7KwJKxSQlzX_12cogni_client6clientINtB2_6ClientNtNtNtCs1EirRVmYTZ6_15cogni_providers6openai8provider6OpenAIE10with_stateCsgyDhXtLpw1x_21agentic_features_test
FN:51,_RNvMNtCs7KwJKxSQlzX_12cogni_client6clientINtB2_6ClientNtNtNtCs1EirRVmYTZ6_15cogni_providers6openai8provider6OpenAIE3newCsgyDhXtLpw1x_21agentic_features_test
FN:60,_RINvMNtCshZjyUOIHxJx_12cogni_client6clientINtB3_6ClientpE10with_modelpEB5_
FN:213,_RINvMNtCshZjyUOIHxJx_12cogni_client6clientINtB3_6ClientpE15chat_structuredppEB5_
FN:357,_RINvMs3_NtCshZjyUOIHxJx_12cogni_client6clientINtB6_23ConnectedRequestBuilderpE22with_structured_outputpEB8_
FN:345,_RINvMs3_NtCshZjyUOIHxJx_12cogni_client6clientINtB6_23ConnectedRequestBuilderpE4toolpEB8_
FN:315,_RINvMs3_NtCshZjyUOIHxJx_12cogni_client6clientINtB6_23ConnectedRequestBuilderpE5modelpEB8_
FN:309,_RINvMs3_NtCshZjyUOIHxJx_12cogni_client6clientINtB6_23ConnectedRequestBuilderpE7messagepEB8_
FN:339,_RINvMs3_NtCshZjyUOIHxJx_12cogni_client6clientINtB6_23ConnectedRequestBuilderpE8messagespEB8_
FN:303,_RINvMs3_NtCshZjyUOIHxJx_12cogni_client6clientINtB6_23ConnectedRequestBuilderpE9assistantpEB8_
FN:217,_RNCINvMNtCshZjyUOIHxJx_12cogni_client6clientINtB5_6ClientpE15chat_structuredppE0B7_
FN:239,_RNCNvMNtCshZjyUOIHxJx_12cogni_client6clientINtB4_6ClientpE14execute_stream0B6_
FN:415,_RNCNvMs3_NtCshZjyUOIHxJx_12cogni_client6clientINtB7_23ConnectedRequestBuilderpE6stream0B9_
FN:92,_RNvMNtCshZjyUOIHxJx_12cogni_client6clientINtB2_6ClientpE10with_stateB4_
FN:239,_RNvMNtCshZjyUOIHxJx_12cogni_client6clientINtB2_6ClientpE14execute_streamB4_
FN:66,_RNvMNtCshZjyUOIHxJx_12cogni_client6clientINtB2_6ClientpE15with_parametersB4_
FN:229,_RNvMNtCshZjyUOIHxJx_12cogni_client6clientINtB2_6ClientpE8providerB4_
FN:327,_RNvMs3_NtCshZjyUOIHxJx_12cogni_client6clientINtB5_23ConnectedRequestBuilderpE10max_tokensB7_
FN:333,_RNvMs3_NtCshZjyUOIHxJx_12cogni_client6clientINtB5_23ConnectedRequestBuilderpE10parametersB7_
FN:351,_RNvMs3_NtCshZjyUOIHxJx_12cogni_client6clientINtB5_23ConnectedRequestBuilderpE15response_formatB7_
FN:392,_RNvMs3_NtCshZjyUOIHxJx_12cogni_client6clientINtB5_23ConnectedRequestBuilderpE20with_context_managerB7_
FN:398,_RNvMs3_NtCshZjyUOIHxJx_12cogni_client6clientINtB5_23ConnectedRequestBuilderpE5buildB7_
FN:415,_RNvMs3_NtCshZjyUOIHxJx_12cogni_client6clientINtB5_23ConnectedRequestBuilderpE6streamB7_
FN:363,_RNvMs3_NtCshZjyUOIHxJx_12cogni_client6clientINtB5_23ConnectedRequestBuilderpE9json_modeB7_
FN:264,_RNvXs1_NtCshZjyUOIHxJx_12cogni_client6clientNtB5_12MessageInputINtNtCsfvfooZQ3Axs_4core7convert4FromINtNtCse1nGBsou5OW_5alloc3vec3VecNtNtNtCsagf8dG4onv5_10cogni_core5types7message7MessageEE4from
FN:463,_RNCNvNtNtCshZjyUOIHxJx_12cogni_client6client5testss_16test_simple_chat0B7_
FN:470,_RNCNvNtNtCshZjyUOIHxJx_12cogni_client6client5testss_19test_streaming_chat0B7_
FN:483,_RNCNvNtNtCshZjyUOIHxJx_12cogni_client6client5testss_20test_request_builder0B7_
FN:448,_RNCNvXNtNtCshZjyUOIHxJx_12cogni_client6client5testsNtB4_12MockProviderNtNtCsagf8dG4onv5_10cogni_core8provider8Provider6stream0B8_
FN:440,_RNCNvXNtNtCshZjyUOIHxJx_12cogni_client6client5testsNtB4_12MockProviderNtNtCsagf8dG4onv5_10cogni_core8provider8Provider7request0B8_
FN:270,_RNvMs2_NtCshZjyUOIHxJx_12cogni_client6clientNtB5_12MessageInput13into_messages
FN:258,_RNvXs0_NtCshZjyUOIHxJx_12cogni_client6clientNtB5_12MessageInputINtNtCsfvfooZQ3Axs_4core7convert4FromNtNtCse1nGBsou5OW_5alloc6string6StringE4from
FN:252,_RNvXs_NtCshZjyUOIHxJx_12cogni_client6clientNtB4_12MessageInputINtNtCsfvfooZQ3Axs_4core7convert4FromReE4from
FN:463,_RNvNtNtCshZjyUOIHxJx_12cogni_client6client5testss_16test_simple_chat
FN:470,_RNvNtNtCshZjyUOIHxJx_12cogni_client6client5testss_19test_streaming_chat
FN:483,_RNvNtNtCshZjyUOIHxJx_12cogni_client6client5testss_20test_request_builder
FN:459,_RNvXNtNtCshZjyUOIHxJx_12cogni_client6client5testsNtB2_12MockProviderNtNtCsagf8dG4onv5_10cogni_core8provider8Provider6stream
FN:446,_RNvXNtNtCshZjyUOIHxJx_12cogni_client6client5testsNtB2_12MockProviderNtNtCsagf8dG4onv5_10cogni_core8provider8Provider7request
FN:115,_RINvMNtCshZjyUOIHxJx_12cogni_client6clientINtB3_6ClientNtNtB3_5tests12MockProviderE11stream_chatReEB5_
FN:99,_RINvMNtCshZjyUOIHxJx_12cogni_client6clientINtB3_6ClientNtNtB3_5tests12MockProviderE4chatReEB5_
FN:99,_RINvMNtCshZjyUOIHxJx_12cogni_client6clientINtB3_6ClientNtNtNtB5_8parallel5tests12MockProviderE4chatNtNtCse1nGBsou5OW_5alloc6string6StringEB5_
FN:297,_RINvMs3_NtCshZjyUOIHxJx_12cogni_client6clientINtB6_23ConnectedRequestBuilderNtNtB6_5tests12MockProviderE4userReEB8_
FN:291,_RINvMs3_NtCshZjyUOIHxJx_12cogni_client6clientINtB6_23ConnectedRequestBuilderNtNtB6_5tests12MockProviderE6systemReEB8_
FN:121,_RNCINvMNtCshZjyUOIHxJx_12cogni_client6clientINtB5_6ClientNtNtB5_5tests12MockProviderE11stream_chatReE0B7_
FN:99,_RNCINvMNtCshZjyUOIHxJx_12cogni_client6clientINtB5_6ClientNtNtB5_5tests12MockProviderE4chatReE0B7_
FN:99,_RNCINvMNtCshZjyUOIHxJx_12cogni_client6clientINtB5_6ClientNtNtNtB7_8parallel5tests12MockProviderE4chatNtNtCse1nGBsou5OW_5alloc6string6StringE0B7_
FN:137,_RNCNCINvMNtCshZjyUOIHxJx_12cogni_client6clientINtB7_6ClientNtNtB7_5tests12MockProviderE11stream_chatReE00B9_
FN:131,_RNCNCNCINvMNtCshZjyUOIHxJx_12cogni_client6clientINtB9_6ClientNtNtB9_5tests12MockProviderE11stream_chatReE000Bb_
FN:234,_RNCNvMNtCshZjyUOIHxJx_12cogni_client6clientINtB4_6ClientNtNtB4_5tests12MockProviderE7execute0B6_
FN:403,_RNCNvMs3_NtCshZjyUOIHxJx_12cogni_client6clientINtB7_23ConnectedRequestBuilderNtNtB7_5tests12MockProviderE4send0B9_
FN:51,_RNvMNtCshZjyUOIHxJx_12cogni_client6clientINtB2_6ClientNtNtB2_5tests12MockProviderE3newB4_
FN:234,_RNvMNtCshZjyUOIHxJx_12cogni_client6clientINtB2_6ClientNtNtB2_5tests12MockProviderE7executeB4_
FN:162,_RNvMNtCshZjyUOIHxJx_12cogni_client6clientINtB2_6ClientNtNtB2_5tests12MockProviderE7requestB4_
FN:51,_RNvMNtCshZjyUOIHxJx_12cogni_client6clientINtB2_6ClientNtNtNtB4_8parallel5tests12MockProviderE3newB4_
FN:51,_RNvMNtCshZjyUOIHxJx_12cogni_client6clientINtB2_6ClientNtNtNtB4_8stateful5tests12MockProviderE3newB4_
FN:321,_RNvMs3_NtCshZjyUOIHxJx_12cogni_client6clientINtB5_23ConnectedRequestBuilderNtNtB5_5tests12MockProviderE11temperatureB7_
FN:403,_RNvMs3_NtCshZjyUOIHxJx_12cogni_client6clientINtB5_23ConnectedRequestBuilderNtNtB5_5tests12MockProviderE4sendB7_
FN:357,_RINvMs3_NtCs7KwJKxSQlzX_12cogni_client6clientINtB6_23ConnectedRequestBuilderNtNtNtCs1EirRVmYTZ6_15cogni_providers6openai8provider6OpenAIE22with_structured_outputNtCsQadenfUz7B_22structured_output_test13TestStructureEB2B_
FN:297,_RINvMs3_NtCs7KwJKxSQlzX_12cogni_client6clientINtB6_23ConnectedRequestBuilderNtNtNtCs1EirRVmYTZ6_15cogni_providers6openai8provider6OpenAIE4userReECsQadenfUz7B_22structured_output_test
FN:315,_RINvMs3_NtCs7KwJKxSQlzX_12cogni_client6clientINtB6_23ConnectedRequestBuilderNtNtNtCs1EirRVmYTZ6_15cogni_providers6openai8provider6OpenAIE5modelReECsQadenfUz7B_22structured_output_test
FN:291,_RINvMs3_NtCs7KwJKxSQlzX_12cogni_client6clientINtB6_23ConnectedRequestBuilderNtNtNtCs1EirRVmYTZ6_15cogni_providers6openai8provider6OpenAIE6systemReECsQadenfUz7B_22structured_output_test
FN:234,_RNCNvMNtCs7KwJKxSQlzX_12cogni_client6clientINtB4_6ClientNtNtNtCs1EirRVmYTZ6_15cogni_providers6openai8provider6OpenAIE7execute0CsQadenfUz7B_22structured_output_test
FN:403,_RNCNvMs3_NtCs7KwJKxSQlzX_12cogni_client6clientINtB7_23ConnectedRequestBuilderNtNtNtCs1EirRVmYTZ6_15cogni_providers6openai8provider6OpenAIE4send0CsQadenfUz7B_22structured_output_test
FN:51,_RNvMNtCs7KwJKxSQlzX_12cogni_client6clientINtB2_6ClientNtNtNtCs1EirRVmYTZ6_15cogni_providers6openai8provider6OpenAIE3newCsQadenfUz7B_22structured_output_test
FN:234,_RNvMNtCs7KwJKxSQlzX_12cogni_client6clientINtB2_6ClientNtNtNtCs1EirRVmYTZ6_15cogni_providers6openai8provider6OpenAIE7executeCsQadenfUz7B_22structured_output_test
FN:162,_RNvMNtCs7KwJKxSQlzX_12cogni_client6clientINtB2_6ClientNtNtNtCs1EirRVmYTZ6_15cogni_providers6openai8provider6OpenAIE7requestCsQadenfUz7B_22structured_output_test
FN:403,_RNvMs3_NtCs7KwJKxSQlzX_12cogni_client6clientINtB5_23ConnectedRequestBuilderNtNtNtCs1EirRVmYTZ6_15cogni_providers6openai8provider6OpenAIE4sendCsQadenfUz7B_22structured_output_test
FN:363,_RNvMs3_NtCs7KwJKxSQlzX_12cogni_client6clientINtB5_23ConnectedRequestBuilderNtNtNtCs1EirRVmYTZ6_15cogni_providers6openai8provider6OpenAIE9json_modeCsQadenfUz7B_22structured_output_test
FNDA:7,_RNvMNtCs7KwJKxSQlzX_12cogni_client6clientINtB2_6ClientNtCsgyDhXtLpw1x_21agentic_features_test12MockProviderE10with_stateBS_
FNDA:7,_RNvMNtCs7KwJKxSQlzX_12cogni_client6clientINtB2_6ClientNtCsgyDhXtLpw1x_21agentic_features_test12MockProviderE3newBS_
FNDA:1,_RNvMNtCs7KwJKxSQlzX_12cogni_client6clientINtB2_6ClientNtNtNtCs1EirRVmYTZ6_15cogni_providers6openai8provider6OpenAIE10with_stateCsgyDhXtLpw1x_21agentic_features_test
FNDA:1,_RNvMNtCs7KwJKxSQlzX_12cogni_client6clientINtB2_6ClientNtNtNtCs1EirRVmYTZ6_15cogni_providers6openai8provider6OpenAIE3newCsgyDhXtLpw1x_21agentic_features_test
FNDA:0,_RINvMNtCshZjyUOIHxJx_12cogni_client6clientINtB3_6ClientpE10with_modelpEB5_
FNDA:0,_RINvMNtCshZjyUOIHxJx_12cogni_client6clientINtB3_6ClientpE15chat_structuredppEB5_
FNDA:0,_RINvMs3_NtCshZjyUOIHxJx_12cogni_client6clientINtB6_23ConnectedRequestBuilderpE22with_structured_outputpEB8_
FNDA:0,_RINvMs3_NtCshZjyUOIHxJx_12cogni_client6clientINtB6_23ConnectedRequestBuilderpE4toolpEB8_
FNDA:0,_RINvMs3_NtCshZjyUOIHxJx_12cogni_client6clientINtB6_23ConnectedRequestBuilderpE5modelpEB8_
FNDA:0,_RINvMs3_NtCshZjyUOIHxJx_12cogni_client6clientINtB6_23ConnectedRequestBuilderpE7messagepEB8_
FNDA:0,_RINvMs3_NtCshZjyUOIHxJx_12cogni_client6clientINtB6_23ConnectedRequestBuilderpE8messagespEB8_
FNDA:0,_RINvMs3_NtCshZjyUOIHxJx_12cogni_client6clientINtB6_23ConnectedRequestBuilderpE9assistantpEB8_
FNDA:0,_RNCINvMNtCshZjyUOIHxJx_12cogni_client6clientINtB5_6ClientpE15chat_structuredppE0B7_
FNDA:0,_RNCNvMNtCshZjyUOIHxJx_12cogni_client6clientINtB4_6ClientpE14execute_stream0B6_
FNDA:0,_RNCNvMs3_NtCshZjyUOIHxJx_12cogni_client6clientINtB7_23ConnectedRequestBuilderpE6stream0B9_
FNDA:0,_RNvMNtCshZjyUOIHxJx_12cogni_client6clientINtB2_6ClientpE10with_stateB4_
FNDA:0,_RNvMNtCshZjyUOIHxJx_12cogni_client6clientINtB2_6ClientpE14execute_streamB4_
FNDA:0,_RNvMNtCshZjyUOIHxJx_12cogni_client6clientINtB2_6ClientpE15with_parametersB4_
FNDA:0,_RNvMNtCshZjyUOIHxJx_12cogni_client6clientINtB2_6ClientpE8providerB4_
FNDA:0,_RNvMs3_NtCshZjyUOIHxJx_12cogni_client6clientINtB5_23ConnectedRequestBuilderpE10max_tokensB7_
FNDA:0,_RNvMs3_NtCshZjyUOIHxJx_12cogni_client6clientINtB5_23ConnectedRequestBuilderpE10parametersB7_
FNDA:0,_RNvMs3_NtCshZjyUOIHxJx_12cogni_client6clientINtB5_23ConnectedRequestBuilderpE15response_formatB7_
FNDA:0,_RNvMs3_NtCshZjyUOIHxJx_12cogni_client6clientINtB5_23ConnectedRequestBuilderpE20with_context_managerB7_
FNDA:0,_RNvMs3_NtCshZjyUOIHxJx_12cogni_client6clientINtB5_23ConnectedRequestBuilderpE5buildB7_
FNDA:0,_RNvMs3_NtCshZjyUOIHxJx_12cogni_client6clientINtB5_23ConnectedRequestBuilderpE6streamB7_
FNDA:0,_RNvMs3_NtCshZjyUOIHxJx_12cogni_client6clientINtB5_23ConnectedRequestBuilderpE9json_modeB7_
FNDA:0,_RNvXs1_NtCshZjyUOIHxJx_12cogni_client6clientNtB5_12MessageInputINtNtCsfvfooZQ3Axs_4core7convert4FromINtNtCse1nGBsou5OW_5alloc3vec3VecNtNtNtCsagf8dG4onv5_10cogni_core5types7message7MessageEE4from
FNDA:1,_RNCNvNtNtCshZjyUOIHxJx_12cogni_client6client5testss_16test_simple_chat0B7_
FNDA:1,_RNCNvNtNtCshZjyUOIHxJx_12cogni_client6client5testss_19test_streaming_chat0B7_
FNDA:1,_RNCNvNtNtCshZjyUOIHxJx_12cogni_client6client5testss_20test_request_builder0B7_
FNDA:1,_RNCNvXNtNtCshZjyUOIHxJx_12cogni_client6client5testsNtB4_12MockProviderNtNtCsagf8dG4onv5_10cogni_core8provider8Provider6stream0B8_
FNDA:2,_RNCNvXNtNtCshZjyUOIHxJx_12cogni_client6client5testsNtB4_12MockProviderNtNtCsagf8dG4onv5_10cogni_core8provider8Provider7request0B8_
FNDA:4,_RNvMs2_NtCshZjyUOIHxJx_12cogni_client6clientNtB5_12MessageInput13into_messages
FNDA:2,_RNvXs0_NtCshZjyUOIHxJx_12cogni_client6clientNtB5_12MessageInputINtNtCsfvfooZQ3Axs_4core7convert4FromNtNtCse1nGBsou5OW_5alloc6string6StringE4from
FNDA:2,_RNvXs_NtCshZjyUOIHxJx_12cogni_client6clientNtB4_12MessageInputINtNtCsfvfooZQ3Axs_4core7convert4FromReE4from
FNDA:1,_RNvNtNtCshZjyUOIHxJx_12cogni_client6client5testss_16test_simple_chat
FNDA:1,_RNvNtNtCshZjyUOIHxJx_12cogni_client6client5testss_19test_streaming_chat
FNDA:1,_RNvNtNtCshZjyUOIHxJx_12cogni_client6client5testss_20test_request_builder
FNDA:1,_RNvXNtNtCshZjyUOIHxJx_12cogni_client6client5testsNtB2_12MockProviderNtNtCsagf8dG4onv5_10cogni_core8provider8Provider6stream
FNDA:2,_RNvXNtNtCshZjyUOIHxJx_12cogni_client6client5testsNtB2_12MockProviderNtNtCsagf8dG4onv5_10cogni_core8provider8Provider7request
FNDA:1,_RINvMNtCshZjyUOIHxJx_12cogni_client6clientINtB3_6ClientNtNtB3_5tests12MockProviderE11stream_chatReEB5_
FNDA:1,_RINvMNtCshZjyUOIHxJx_12cogni_client6clientINtB3_6ClientNtNtB3_5tests12MockProviderE4chatReEB5_
FNDA:2,_RINvMNtCshZjyUOIHxJx_12cogni_client6clientINtB3_6ClientNtNtNtB5_8parallel5tests12MockProviderE4chatNtNtCse1nGBsou5OW_5alloc6string6StringEB5_
FNDA:1,_RINvMs3_NtCshZjyUOIHxJx_12cogni_client6clientINtB6_23ConnectedRequestBuilderNtNtB6_5tests12MockProviderE4userReEB8_
FNDA:1,_RINvMs3_NtCshZjyUOIHxJx_12cogni_client6clientINtB6_23ConnectedRequestBuilderNtNtB6_5tests12MockProviderE6systemReEB8_
FNDA:1,_RNCINvMNtCshZjyUOIHxJx_12cogni_client6clientINtB5_6ClientNtNtB5_5tests12MockProviderE11stream_chatReE0B7_
FNDA:1,_RNCINvMNtCshZjyUOIHxJx_12cogni_client6clientINtB5_6ClientNtNtB5_5tests12MockProviderE4chatReE0B7_
FNDA:2,_RNCINvMNtCshZjyUOIHxJx_12cogni_client6clientINtB5_6ClientNtNtNtB7_8parallel5tests12MockProviderE4chatNtNtCse1nGBsou5OW_5alloc6string6StringE0B7_
FNDA:3,_RNCNCINvMNtCshZjyUOIHxJx_12cogni_client6clientINtB7_6ClientNtNtB7_5tests12MockProviderE11stream_chatReE00B9_
FNDA:3,_RNCNCNCINvMNtCshZjyUOIHxJx_12cogni_client6clientINtB9_6ClientNtNtB9_5tests12MockProviderE11stream_chatReE000Bb_
FNDA:1,_RNCNvMNtCshZjyUOIHxJx_12cogni_client6clientINtB4_6ClientNtNtB4_5tests12MockProviderE7execute0B6_
FNDA:1,_RNCNvMs3_NtCshZjyUOIHxJx_12cogni_client6clientINtB7_23ConnectedRequestBuilderNtNtB7_5tests12MockProviderE4send0B9_
FNDA:3,_RNvMNtCshZjyUOIHxJx_12cogni_client6clientINtB2_6ClientNtNtB2_5tests12MockProviderE3newB4_
FNDA:1,_RNvMNtCshZjyUOIHxJx_12cogni_client6clientINtB2_6ClientNtNtB2_5tests12MockProviderE7executeB4_
FNDA:1,_RNvMNtCshZjyUOIHxJx_12cogni_client6clientINtB2_6ClientNtNtB2_5tests12MockProviderE7requestB4_
FNDA:2,_RNvMNtCshZjyUOIHxJx_12cogni_client6clientINtB2_6ClientNtNtNtB4_8parallel5tests12MockProviderE3newB4_
FNDA:2,_RNvMNtCshZjyUOIHxJx_12cogni_client6clientINtB2_6ClientNtNtNtB4_8stateful5tests12MockProviderE3newB4_
FNDA:1,_RNvMs3_NtCshZjyUOIHxJx_12cogni_client6clientINtB5_23ConnectedRequestBuilderNtNtB5_5tests12MockProviderE11temperatureB7_
FNDA:1,_RNvMs3_NtCshZjyUOIHxJx_12cogni_client6clientINtB5_23ConnectedRequestBuilderNtNtB5_5tests12MockProviderE4sendB7_
FNDA:1,_RINvMs3_NtCs7KwJKxSQlzX_12cogni_client6clientINtB6_23ConnectedRequestBuilderNtNtNtCs1EirRVmYTZ6_15cogni_providers6openai8provider6OpenAIE22with_structured_outputNtCsQadenfUz7B_22structured_output_test13TestStructureEB2B_
FNDA:2,_RINvMs3_NtCs7KwJKxSQlzX_12cogni_client6clientINtB6_23ConnectedRequestBuilderNtNtNtCs1EirRVmYTZ6_15cogni_providers6openai8provider6OpenAIE4userReECsQadenfUz7B_22structured_output_test
FNDA:2,_RINvMs3_NtCs7KwJKxSQlzX_12cogni_client6clientINtB6_23ConnectedRequestBuilderNtNtNtCs1EirRVmYTZ6_15cogni_providers6openai8provider6OpenAIE5modelReECsQadenfUz7B_22structured_output_test
FNDA:2,_RINvMs3_NtCs7KwJKxSQlzX_12cogni_client6clientINtB6_23ConnectedRequestBuilderNtNtNtCs1EirRVmYTZ6_15cogni_providers6openai8provider6OpenAIE6systemReECsQadenfUz7B_22structured_output_test
FNDA:2,_RNCNvMNtCs7KwJKxSQlzX_12cogni_client6clientINtB4_6ClientNtNtNtCs1EirRVmYTZ6_15cogni_providers6openai8provider6OpenAIE7execute0CsQadenfUz7B_22structured_output_test
FNDA:2,_RNCNvMs3_NtCs7KwJKxSQlzX_12cogni_client6clientINtB7_23ConnectedRequestBuilderNtNtNtCs1EirRVmYTZ6_15cogni_providers6openai8provider6OpenAIE4send0CsQadenfUz7B_22structured_output_test
FNDA:2,_RNvMNtCs7KwJKxSQlzX_12cogni_client6clientINtB2_6ClientNtNtNtCs1EirRVmYTZ6_15cogni_providers6openai8provider6OpenAIE3newCsQadenfUz7B_22structured_output_test
FNDA:2,_RNvMNtCs7KwJKxSQlzX_12cogni_client6clientINtB2_6ClientNtNtNtCs1EirRVmYTZ6_15cogni_providers6openai8provider6OpenAIE7executeCsQadenfUz7B_22structured_output_test
FNDA:2,_RNvMNtCs7KwJKxSQlzX_12cogni_client6clientINtB2_6ClientNtNtNtCs1EirRVmYTZ6_15cogni_providers6openai8provider6OpenAIE7requestCsQadenfUz7B_22structured_output_test
FNDA:2,_RNvMs3_NtCs7KwJKxSQlzX_12cogni_client6clientINtB5_23ConnectedRequestBuilderNtNtNtCs1EirRVmYTZ6_15cogni_providers6openai8provider6OpenAIE4sendCsQadenfUz7B_22structured_output_test
FNDA:1,_RNvMs3_NtCs7KwJKxSQlzX_12cogni_client6clientINtB5_23ConnectedRequestBuilderNtNtNtCs1EirRVmYTZ6_15cogni_providers6openai8provider6OpenAIE9json_modeCsQadenfUz7B_22structured_output_test
FNF:51
FNH:32
DA:51,17
DA:52,17
DA:53,17
DA:54,17
DA:55,17
DA:56,17
DA:57,17
DA:60,0
DA:61,0
DA:62,0
DA:63,0
DA:66,0
DA:67,0
DA:68,0
DA:69,0
DA:92,8
DA:93,8
DA:94,8
DA:99,3
DA:100,3
DA:101,3
DA:102,3
DA:103,3
DA:104,3
DA:105,3
DA:106,3
DA:108,3
DA:109,3
DA:110,3
DA:115,1
DA:116,1
DA:117,1
DA:118,1
DA:119,1
DA:120,1
DA:121,1
DA:122,1
DA:123,1
DA:124,1
DA:125,1
DA:126,1
DA:127,1
DA:128,1
DA:130,1
DA:131,3
DA:132,3
DA:133,2
DA:134,1
DA:135,0
DA:137,6
DA:138,1
DA:162,3
DA:163,3
DA:164,3
DA:165,3
DA:166,3
DA:167,3
DA:168,3
DA:169,3
DA:170,3
DA:213,0
DA:214,0
DA:215,0
DA:216,0
DA:217,0
DA:218,0
DA:219,0
DA:220,0
DA:221,0
DA:222,0
DA:223,0
DA:225,0
DA:226,0
DA:229,0
DA:230,0
DA:231,0
DA:234,3
DA:235,3
DA:236,3
DA:239,0
DA:240,0
DA:241,0
DA:252,2
DA:253,2
DA:254,2
DA:258,2
DA:259,2
DA:260,2
DA:264,0
DA:265,0
DA:266,0
DA:270,4
DA:271,4
DA:272,4
DA:273,4
DA:274,4
DA:275,4
DA:276,4
DA:277,0
DA:279,4
DA:291,3
DA:292,3
DA:293,3
DA:294,3
DA:297,3
DA:298,3
DA:299,3
DA:300,3
DA:303,0
DA:304,0
DA:305,0
DA:306,0
DA:309,0
DA:310,0
DA:311,0
DA:312,0
DA:315,2
DA:316,2
DA:317,2
DA:318,2
DA:321,1
DA:322,1
DA:323,1
DA:324,1
DA:327,0
DA:328,0
DA:329,0
DA:330,0
DA:333,0
DA:334,0
DA:335,0
DA:336,0
DA:339,0
DA:340,0
DA:341,0
DA:342,0
DA:345,0
DA:346,0
DA:347,0
DA:348,0
DA:351,0
DA:352,0
DA:353,0
DA:354,0
DA:357,1
DA:358,1
DA:359,1
DA:360,1
DA:363,1
DA:364,1
DA:365,1
DA:366,1
DA:392,0
DA:393,0
DA:394,0
DA:395,0
DA:398,0
DA:399,0
DA:400,0
DA:403,3
DA:404,3
DA:407,3
DA:408,0
DA:409,3
DA:411,3
DA:412,3
DA:415,0
DA:416,0
DA:419,0
DA:420,0
DA:421,0
DA:423,0
DA:424,0
DA:440,2
DA:441,2
DA:442,2
DA:443,2
DA:444,2
DA:445,2
DA:446,4
DA:448,1
DA:449,1
DA:450,1
DA:451,1
DA:452,1
DA:453,1
DA:454,1
DA:455,1
DA:456,1
DA:457,1
DA:458,1
DA:459,2
DA:463,1
DA:464,1
DA:465,1
DA:466,1
DA:467,1
DA:470,1
DA:471,1
DA:472,1
DA:473,1
DA:474,1
DA:475,3
DA:476,2
DA:477,2
DA:478,1
DA:479,1
DA:480,1
DA:483,1
DA:484,1
DA:485,1
DA:486,1
DA:487,1
DA:488,1
DA:489,1
DA:490,1
DA:491,1
DA:492,1
DA:493,1
DA:494,1
DA:495,1
BRF:0
BRH:0
LF:258
LH:180
end_of_record
SF:/Users/jkh/Code/ai/cogni/cogni-client/src/middleware.rs
FN:39,_RNCNvXININtCshZjyUOIHxJx_12cogni_client10middlewares_0pEINtB7_18MiddlewareProviderpENtNtCsagf8dG4onv5_10cogni_core8provider8Provider6stream0B9_
FN:78,_RNCNvXs_NtNtCshZjyUOIHxJx_12cogni_client10middleware5testsNtB6_12MockProviderNtNtCsagf8dG4onv5_10cogni_core8provider8Provider6stream0Ba_
FN:53,_RNvXININtCshZjyUOIHxJx_12cogni_client10middlewares_0pEINtB5_18MiddlewareProviderpENtNtCsagf8dG4onv5_10cogni_core8provider8Provider6streamB7_
FN:89,_RNvXs_NtNtCshZjyUOIHxJx_12cogni_client10middleware5testsNtB4_12MockProviderNtNtCsagf8dG4onv5_10cogni_core8provider8Provider6stream
FN:93,_RNvNtNtCshZjyUOIHxJx_12cogni_client10middleware5testss_30test_middleware_provider_basic
FN:76,_RNvXs_NtNtCshZjyUOIHxJx_12cogni_client10middleware5testsNtB4_12MockProviderNtNtCsagf8dG4onv5_10cogni_core8provider8Provider7request
FN:93,_RNCNvNtNtCshZjyUOIHxJx_12cogni_client10middleware5testss_30test_middleware_provider_basic0B7_
FN:70,_RNCNvXs_NtNtCshZjyUOIHxJx_12cogni_client10middleware5testsNtB6_12MockProviderNtNtCsagf8dG4onv5_10cogni_core8provider8Provider7request0Ba_
FN:34,_RNCNvXs_NtCshZjyUOIHxJx_12cogni_client10middlewareINtB6_18MiddlewareProviderINtCs4EghsgDB6uT_16cogni_middleware15ProviderServiceNtNtB6_5tests12MockProviderEENtNtCsagf8dG4onv5_10cogni_core8provider8Provider7request0B8_
FN:21,_RNvMNtCshZjyUOIHxJx_12cogni_client10middlewareINtB2_18MiddlewareProviderINtCs4EghsgDB6uT_16cogni_middleware15ProviderServiceNtNtB2_5tests12MockProviderEE3newB4_
FN:37,_RNvXs_NtCshZjyUOIHxJx_12cogni_client10middlewareINtB4_18MiddlewareProviderINtCs4EghsgDB6uT_16cogni_middleware15ProviderServiceNtNtB4_5tests12MockProviderEENtNtCsagf8dG4onv5_10cogni_core8provider8Provider7requestB6_
FNDA:0,_RNCNvXININtCshZjyUOIHxJx_12cogni_client10middlewares_0pEINtB7_18MiddlewareProviderpENtNtCsagf8dG4onv5_10cogni_core8provider8Provider6stream0B9_
FNDA:0,_RNCNvXs_NtNtCshZjyUOIHxJx_12cogni_client10middleware5testsNtB6_12MockProviderNtNtCsagf8dG4onv5_10cogni_core8provider8Provider6stream0Ba_
FNDA:0,_RNvXININtCshZjyUOIHxJx_12cogni_client10middlewares_0pEINtB5_18MiddlewareProviderpENtNtCsagf8dG4onv5_10cogni_core8provider8Provider6streamB7_
FNDA:0,_RNvXs_NtNtCshZjyUOIHxJx_12cogni_client10middleware5testsNtB4_12MockProviderNtNtCsagf8dG4onv5_10cogni_core8provider8Provider6stream
FNDA:1,_RNvNtNtCshZjyUOIHxJx_12cogni_client10middleware5testss_30test_middleware_provider_basic
FNDA:1,_RNvXs_NtNtCshZjyUOIHxJx_12cogni_client10middleware5testsNtB4_12MockProviderNtNtCsagf8dG4onv5_10cogni_core8provider8Provider7request
FNDA:1,_RNCNvNtNtCshZjyUOIHxJx_12cogni_client10middleware5testss_30test_middleware_provider_basic0B7_
FNDA:1,_RNCNvXs_NtNtCshZjyUOIHxJx_12cogni_client10middleware5testsNtB6_12MockProviderNtNtCsagf8dG4onv5_10cogni_core8provider8Provider7request0Ba_
FNDA:1,_RNCNvXs_NtCshZjyUOIHxJx_12cogni_client10middlewareINtB6_18MiddlewareProviderINtCs4EghsgDB6uT_16cogni_middleware15ProviderServiceNtNtB6_5tests12MockProviderEENtNtCsagf8dG4onv5_10cogni_core8provider8Provider7request0B8_
FNDA:1,_RNvMNtCshZjyUOIHxJx_12cogni_client10middlewareINtB2_18MiddlewareProviderINtCs4EghsgDB6uT_16cogni_middleware15ProviderServiceNtNtB2_5tests12MockProviderEE3newB4_
FNDA:1,_RNvXs_NtCshZjyUOIHxJx_12cogni_client10middlewareINtB4_18MiddlewareProviderINtCs4EghsgDB6uT_16cogni_middleware15ProviderServiceNtNtB4_5tests12MockProviderEENtNtCsagf8dG4onv5_10cogni_core8provider8Provider7requestB6_
FNF:11
FNH:7
DA:21,1
DA:22,1
DA:23,1
DA:34,1
DA:35,1
DA:36,1
DA:37,2
DA:39,0
DA:42,0
DA:45,0
DA:46,0
DA:47,0
DA:48,0
DA:49,0
DA:50,0
DA:51,0
DA:52,0
DA:53,0
DA:70,1
DA:71,1
DA:72,1
DA:73,1
DA:74,1
DA:75,1
DA:76,2
DA:78,0
DA:79,0
DA:80,0
DA:81,0
DA:82,0
DA:83,0
DA:84,0
DA:85,0
DA:86,0
DA:87,0
DA:88,0
DA:89,0
DA:93,1
DA:94,1
DA:95,1
DA:96,1
DA:97,1
DA:98,1
DA:99,1
DA:100,1
DA:101,1
DA:102,1
DA:103,1
DA:104,1
DA:105,1
DA:106,1
DA:107,1
DA:108,1
DA:109,1
DA:110,1
DA:111,1
DA:112,1
BRF:0
BRH:0
LF:77
LH:52
end_of_record
SF:/Users/jkh/Code/ai/cogni/cogni-client/src/parallel.rs
FN:367,_RNvNtNtCshZjyUOIHxJx_12cogni_client8parallel5testss_18test_parallel_chat
FN:385,_RNvNtNtCshZjyUOIHxJx_12cogni_client8parallel5testss_25test_parallel_client_race
FN:413,_RNvNtNtCshZjyUOIHxJx_12cogni_client8parallel5testss_34test_parallel_client_first_success
FN:358,_RNvXs_NtNtCshZjyUOIHxJx_12cogni_client8parallel5testsNtB4_12MockProviderNtNtCsagf8dG4onv5_10cogni_core8provider8Provider7request
FN:325,_RINvNtCshZjyUOIHxJx_12cogni_client8parallel22create_parallel_clientpEB4_
FN:360,_RNCNvXs_NtNtCshZjyUOIHxJx_12cogni_client8parallel5testsNtB6_12MockProviderNtNtCsagf8dG4onv5_10cogni_core8provider8Provider6stream0Ba_
FN:363,_RNvXs_NtNtCshZjyUOIHxJx_12cogni_client8parallel5testsNtB4_12MockProviderNtNtCsagf8dG4onv5_10cogni_core8provider8Provider6stream
FN:381,_RNCNCNvNtNtCshZjyUOIHxJx_12cogni_client8parallel5testss_18test_parallel_chat00B9_
FN:367,_RNCNvNtNtCshZjyUOIHxJx_12cogni_client8parallel5testss_18test_parallel_chat0B7_
FN:385,_RNCNvNtNtCshZjyUOIHxJx_12cogni_client8parallel5testss_25test_parallel_client_race0B7_
FN:413,_RNCNvNtNtCshZjyUOIHxJx_12cogni_client8parallel5testss_34test_parallel_client_first_success0B7_
FN:349,_RNCNvXs_NtNtCshZjyUOIHxJx_12cogni_client8parallel5testsNtB6_12MockProviderNtNtCsagf8dG4onv5_10cogni_core8provider8Provider7request0Ba_
FN:91,_RINvNtCshZjyUOIHxJx_12cogni_client8parallel13parallel_chatNtNtB2_5tests12MockProviderReEB4_
FN:36,_RINvNtCshZjyUOIHxJx_12cogni_client8parallel17parallel_requestsNtNtB2_5tests12MockProviderEB4_
FN:98,_RNCINvNtCshZjyUOIHxJx_12cogni_client8parallel13parallel_chatNtNtB4_5tests12MockProviderReE0B6_
FN:43,_RNCINvNtCshZjyUOIHxJx_12cogni_client8parallel17parallel_requestsNtNtB4_5tests12MockProviderE0B6_
FN:102,_RNCNCINvNtCshZjyUOIHxJx_12cogni_client8parallel13parallel_chatNtNtB6_5tests12MockProviderReE00B8_
FN:112,_RNCNCINvNtCshZjyUOIHxJx_12cogni_client8parallel13parallel_chatNtNtB6_5tests12MockProviderReE0s_0B8_
FN:47,_RNCNCINvNtCshZjyUOIHxJx_12cogni_client8parallel17parallel_requestsNtNtB6_5tests12MockProviderE00B8_
FN:56,_RNCNCINvNtCshZjyUOIHxJx_12cogni_client8parallel17parallel_requestsNtNtB6_5tests12MockProviderE0s_0B8_
FN:105,_RNCNCNCINvNtCshZjyUOIHxJx_12cogni_client8parallel13parallel_chatNtNtB8_5tests12MockProviderReE000Ba_
FN:113,_RNCNCNCINvNtCshZjyUOIHxJx_12cogni_client8parallel13parallel_chatNtNtB8_5tests12MockProviderReE0s_00Ba_
FN:49,_RNCNCNCINvNtCshZjyUOIHxJx_12cogni_client8parallel17parallel_requestsNtNtB8_5tests12MockProviderE000Ba_
FN:57,_RNCNCNCINvNtCshZjyUOIHxJx_12cogni_client8parallel17parallel_requestsNtNtB8_5tests12MockProviderE0s_00Ba_
FN:238,_RNCNCNvMNtCshZjyUOIHxJx_12cogni_client8parallelINtB6_14ParallelClientNtNtB6_5tests12MockProviderE13all_responses00B8_
FN:238,_RNCNCNvMNtCshZjyUOIHxJx_12cogni_client8parallelINtB6_14ParallelClientNtNtB6_5tests12MockProviderE13all_responses0s_0B8_
FN:218,_RNCNCNvMNtCshZjyUOIHxJx_12cogni_client8parallelINtB6_14ParallelClientNtNtB6_5tests12MockProviderE13first_success00B8_
FN:218,_RNCNCNvMNtCshZjyUOIHxJx_12cogni_client8parallelINtB6_14ParallelClientNtNtB6_5tests12MockProviderE13first_success0s_0B8_
FN:287,_RNCNCNvMNtCshZjyUOIHxJx_12cogni_client8parallelINtB6_14ParallelClientNtNtB6_5tests12MockProviderE4race00B8_
FN:298,_RNCNCNvMNtCshZjyUOIHxJx_12cogni_client8parallelINtB6_14ParallelClientNtNtB6_5tests12MockProviderE4race0s_0B8_
FN:258,_RNCNCNvMNtCshZjyUOIHxJx_12cogni_client8parallelINtB6_14ParallelClientNtNtB6_5tests12MockProviderE9consensus00B8_
FN:233,_RNCNvMNtCshZjyUOIHxJx_12cogni_client8parallelINtB4_14ParallelClientNtNtB4_5tests12MockProviderE13all_responses0B6_
FN:214,_RNCNvMNtCshZjyUOIHxJx_12cogni_client8parallelINtB4_14ParallelClientNtNtB4_5tests12MockProviderE13first_success0B6_
FN:279,_RNCNvMNtCshZjyUOIHxJx_12cogni_client8parallelINtB4_14ParallelClientNtNtB4_5tests12MockProviderE4race0B6_
FN:200,_RNCNvMNtCshZjyUOIHxJx_12cogni_client8parallelINtB4_14ParallelClientNtNtB4_5tests12MockProviderE7request0B6_
FN:253,_RNCNvMNtCshZjyUOIHxJx_12cogni_client8parallelINtB4_14ParallelClientNtNtB4_5tests12MockProviderE9consensus0B6_
FN:229,_RNvMNtCshZjyUOIHxJx_12cogni_client8parallelINtB2_14ParallelClientNtNtB2_5tests12MockProviderE13all_responsesB4_
FN:210,_RNvMNtCshZjyUOIHxJx_12cogni_client8parallelINtB2_14ParallelClientNtNtB2_5tests12MockProviderE13first_successB4_
FN:190,_RNvMNtCshZjyUOIHxJx_12cogni_client8parallelINtB2_14ParallelClientNtNtB2_5tests12MockProviderE13with_strategyB4_
FN:180,_RNvMNtCshZjyUOIHxJx_12cogni_client8parallelINtB2_14ParallelClientNtNtB2_5tests12MockProviderE3newB4_
FN:275,_RNvMNtCshZjyUOIHxJx_12cogni_client8parallelINtB2_14ParallelClientNtNtB2_5tests12MockProviderE4raceB4_
FN:196,_RNvMNtCshZjyUOIHxJx_12cogni_client8parallelINtB2_14ParallelClientNtNtB2_5tests12MockProviderE7requestB4_
FN:249,_RNvMNtCshZjyUOIHxJx_12cogni_client8parallelINtB2_14ParallelClientNtNtB2_5tests12MockProviderE9consensusB4_
FNDA:1,_RNvNtNtCshZjyUOIHxJx_12cogni_client8parallel5testss_18test_parallel_chat
FNDA:1,_RNvNtNtCshZjyUOIHxJx_12cogni_client8parallel5testss_25test_parallel_client_race
FNDA:1,_RNvNtNtCshZjyUOIHxJx_12cogni_client8parallel5testss_34test_parallel_client_first_success
FNDA:5,_RNvXs_NtNtCshZjyUOIHxJx_12cogni_client8parallel5testsNtB4_12MockProviderNtNtCsagf8dG4onv5_10cogni_core8provider8Provider7request
FNDA:0,_RINvNtCshZjyUOIHxJx_12cogni_client8parallel22create_parallel_clientpEB4_
FNDA:0,_RNCNvXs_NtNtCshZjyUOIHxJx_12cogni_client8parallel5testsNtB6_12MockProviderNtNtCsagf8dG4onv5_10cogni_core8provider8Provider6stream0Ba_
FNDA:0,_RNvXs_NtNtCshZjyUOIHxJx_12cogni_client8parallel5testsNtB4_12MockProviderNtNtCsagf8dG4onv5_10cogni_core8provider8Provider6stream
FNDA:2,_RNCNCNvNtNtCshZjyUOIHxJx_12cogni_client8parallel5testss_18test_parallel_chat00B9_
FNDA:1,_RNCNvNtNtCshZjyUOIHxJx_12cogni_client8parallel5testss_18test_parallel_chat0B7_
FNDA:1,_RNCNvNtNtCshZjyUOIHxJx_12cogni_client8parallel5testss_25test_parallel_client_race0B7_
FNDA:1,_RNCNvNtNtCshZjyUOIHxJx_12cogni_client8parallel5testss_34test_parallel_client_first_success0B7_
FNDA:5,_RNCNvXs_NtNtCshZjyUOIHxJx_12cogni_client8parallel5testsNtB6_12MockProviderNtNtCsagf8dG4onv5_10cogni_core8provider8Provider7request0Ba_
FNDA:1,_RINvNtCshZjyUOIHxJx_12cogni_client8parallel13parallel_chatNtNtB2_5tests12MockProviderReEB4_
FNDA:1,_RINvNtCshZjyUOIHxJx_12cogni_client8parallel17parallel_requestsNtNtB2_5tests12MockProviderEB4_
FNDA:1,_RNCINvNtCshZjyUOIHxJx_12cogni_client8parallel13parallel_chatNtNtB4_5tests12MockProviderReE0B6_
FNDA:1,_RNCINvNtCshZjyUOIHxJx_12cogni_client8parallel17parallel_requestsNtNtB4_5tests12MockProviderE0B6_
FNDA:2,_RNCNCINvNtCshZjyUOIHxJx_12cogni_client8parallel13parallel_chatNtNtB6_5tests12MockProviderReE00B8_
FNDA:2,_RNCNCINvNtCshZjyUOIHxJx_12cogni_client8parallel13parallel_chatNtNtB6_5tests12MockProviderReE0s_0B8_
FNDA:1,_RNCNCINvNtCshZjyUOIHxJx_12cogni_client8parallel17parallel_requestsNtNtB6_5tests12MockProviderE00B8_
FNDA:1,_RNCNCINvNtCshZjyUOIHxJx_12cogni_client8parallel17parallel_requestsNtNtB6_5tests12MockProviderE0s_0B8_
FNDA:2,_RNCNCNCINvNtCshZjyUOIHxJx_12cogni_client8parallel13parallel_chatNtNtB8_5tests12MockProviderReE000Ba_
FNDA:0,_RNCNCNCINvNtCshZjyUOIHxJx_12cogni_client8parallel13parallel_chatNtNtB8_5tests12MockProviderReE0s_00Ba_
FNDA:1,_RNCNCNCINvNtCshZjyUOIHxJx_12cogni_client8parallel17parallel_requestsNtNtB8_5tests12MockProviderE000Ba_
FNDA:0,_RNCNCNCINvNtCshZjyUOIHxJx_12cogni_client8parallel17parallel_requestsNtNtB8_5tests12MockProviderE0s_00Ba_
FNDA:0,_RNCNCNvMNtCshZjyUOIHxJx_12cogni_client8parallelINtB6_14ParallelClientNtNtB6_5tests12MockProviderE13all_responses00B8_
FNDA:0,_RNCNCNvMNtCshZjyUOIHxJx_12cogni_client8parallelINtB6_14ParallelClientNtNtB6_5tests12MockProviderE13all_responses0s_0B8_
FNDA:1,_RNCNCNvMNtCshZjyUOIHxJx_12cogni_client8parallelINtB6_14ParallelClientNtNtB6_5tests12MockProviderE13first_success00B8_
FNDA:0,_RNCNCNvMNtCshZjyUOIHxJx_12cogni_client8parallelINtB6_14ParallelClientNtNtB6_5tests12MockProviderE13first_success0s_0B8_
FNDA:2,_RNCNCNvMNtCshZjyUOIHxJx_12cogni_client8parallelINtB6_14ParallelClientNtNtB6_5tests12MockProviderE4race00B8_
FNDA:0,_RNCNCNvMNtCshZjyUOIHxJx_12cogni_client8parallelINtB6_14ParallelClientNtNtB6_5tests12MockProviderE4race0s_0B8_
FNDA:0,_RNCNCNvMNtCshZjyUOIHxJx_12cogni_client8parallelINtB6_14ParallelClientNtNtB6_5tests12MockProviderE9consensus00B8_
FNDA:0,_RNCNvMNtCshZjyUOIHxJx_12cogni_client8parallelINtB4_14ParallelClientNtNtB4_5tests12MockProviderE13all_responses0B6_
FNDA:1,_RNCNvMNtCshZjyUOIHxJx_12cogni_client8parallelINtB4_14ParallelClientNtNtB4_5tests12MockProviderE13first_success0B6_
FNDA:1,_RNCNvMNtCshZjyUOIHxJx_12cogni_client8parallelINtB4_14ParallelClientNtNtB4_5tests12MockProviderE4race0B6_
FNDA:2,_RNCNvMNtCshZjyUOIHxJx_12cogni_client8parallelINtB4_14ParallelClientNtNtB4_5tests12MockProviderE7request0B6_
FNDA:0,_RNCNvMNtCshZjyUOIHxJx_12cogni_client8parallelINtB4_14ParallelClientNtNtB4_5tests12MockProviderE9consensus0B6_
FNDA:0,_RNvMNtCshZjyUOIHxJx_12cogni_client8parallelINtB2_14ParallelClientNtNtB2_5tests12MockProviderE13all_responsesB4_
FNDA:1,_RNvMNtCshZjyUOIHxJx_12cogni_client8parallelINtB2_14ParallelClientNtNtB2_5tests12MockProviderE13first_successB4_
FNDA:2,_RNvMNtCshZjyUOIHxJx_12cogni_client8parallelINtB2_14ParallelClientNtNtB2_5tests12MockProviderE13with_strategyB4_
FNDA:2,_RNvMNtCshZjyUOIHxJx_12cogni_client8parallelINtB2_14ParallelClientNtNtB2_5tests12MockProviderE3newB4_
FNDA:1,_RNvMNtCshZjyUOIHxJx_12cogni_client8parallelINtB2_14ParallelClientNtNtB2_5tests12MockProviderE4raceB4_
FNDA:2,_RNvMNtCshZjyUOIHxJx_12cogni_client8parallelINtB2_14ParallelClientNtNtB2_5tests12MockProviderE7requestB4_
FNDA:0,_RNvMNtCshZjyUOIHxJx_12cogni_client8parallelINtB2_14ParallelClientNtNtB2_5tests12MockProviderE9consensusB4_
FNF:43
FNH:29
DA:36,1
DA:37,1
DA:38,1
DA:39,1
DA:40,1
DA:41,1
DA:42,1
DA:43,1
DA:44,1
DA:45,1
DA:46,1
DA:47,1
DA:48,1
DA:49,1
DA:50,1
DA:51,1
DA:53,1
DA:54,1
DA:55,1
DA:56,1
DA:57,1
DA:58,0
DA:59,0
DA:60,0
DA:61,0
DA:62,0
DA:63,0
DA:64,1
DA:65,1
DA:66,1
DA:67,1
DA:91,1
DA:92,1
DA:93,1
DA:94,1
DA:95,1
DA:96,1
DA:97,1
DA:98,1
DA:99,1
DA:100,1
DA:101,1
DA:102,2
DA:103,2
DA:104,2
DA:105,2
DA:106,2
DA:107,1
DA:109,1
DA:110,1
DA:111,1
DA:112,2
DA:113,2
DA:114,0
DA:115,0
DA:116,0
DA:117,0
DA:118,0
DA:119,0
DA:120,2
DA:121,2
DA:122,1
DA:123,1
DA:180,2
DA:181,2
DA:182,2
DA:183,2
DA:184,2
DA:185,2
DA:190,2
DA:191,2
DA:192,2
DA:193,2
DA:196,2
DA:197,2
DA:198,2
DA:199,2
DA:200,2
DA:201,2
DA:202,1
DA:203,0
DA:204,0
DA:205,1
DA:207,2
DA:210,1
DA:211,1
DA:212,1
DA:213,1
DA:214,1
DA:215,1
DA:216,1
DA:218,1
DA:219,0
DA:220,0
DA:221,0
DA:222,0
DA:223,0
DA:224,0
DA:225,1
DA:226,1
DA:229,0
DA:230,0
DA:231,0
DA:232,0
DA:233,0
DA:234,0
DA:235,0
DA:238,0
DA:239,0
DA:240,0
DA:241,0
DA:242,0
DA:243,0
DA:244,0
DA:245,0
DA:246,0
DA:249,0
DA:250,0
DA:251,0
DA:252,0
DA:253,0
DA:254,0
DA:255,0
DA:257,0
DA:258,0
DA:259,0
DA:260,0
DA:261,0
DA:262,0
DA:263,0
DA:264,0
DA:265,0
DA:266,0
DA:267,0
DA:268,0
DA:269,0
DA:270,0
DA:271,0
DA:272,0
DA:275,1
DA:276,1
DA:277,1
DA:278,1
DA:279,1
DA:280,1
DA:281,1
DA:284,2
DA:285,2
DA:286,2
DA:287,2
DA:288,2
DA:289,1
DA:290,0
DA:291,2
DA:292,2
DA:295,1
DA:296,1
DA:297,1
DA:298,1
DA:299,0
DA:300,0
DA:301,0
DA:302,0
DA:303,1
DA:304,1
DA:325,0
DA:326,0
DA:327,0
DA:328,0
DA:329,0
DA:330,0
DA:349,5
DA:350,5
DA:351,2
DA:352,3
DA:353,4
DA:354,4
DA:355,4
DA:356,4
DA:357,4
DA:358,9
DA:360,0
DA:361,0
DA:362,0
DA:363,0
DA:367,1
DA:368,1
DA:369,1
DA:370,1
DA:371,1
DA:372,1
DA:373,1
DA:374,1
DA:375,1
DA:376,1
DA:377,1
DA:378,1
DA:379,1
DA:380,1
DA:381,2
DA:382,1
DA:385,1
DA:386,1
DA:387,1
DA:388,1
DA:389,1
DA:390,1
DA:391,1
DA:392,1
DA:393,1
DA:394,1
DA:395,1
DA:396,1
DA:397,1
DA:398,1
DA:399,1
DA:400,1
DA:401,1
DA:402,1
DA:403,1
DA:404,1
DA:405,1
DA:406,1
DA:407,1
DA:408,1
DA:409,1
DA:410,1
DA:413,1
DA:414,1
DA:415,1
DA:416,1
DA:417,1
DA:418,1
DA:419,1
DA:420,1
DA:421,1
DA:422,1
DA:423,1
DA:424,1
DA:425,1
DA:426,1
DA:427,1
DA:428,1
DA:429,1
DA:430,1
BRF:0
BRH:0
LF:332
LH:243
end_of_record
SF:/Users/jkh/Code/ai/cogni/cogni-client/src/stateful.rs
FN:60,_RNCNCNvMNtCs7KwJKxSQlzX_12cogni_client8statefulINtB6_14StatefulClientNtCsgyDhXtLpw1x_21agentic_features_test12MockProviderE17load_conversation00B17_
FN:180,_RNCNCNvMNtCs7KwJKxSQlzX_12cogni_client8statefulINtB6_14StatefulClientNtCsgyDhXtLpw1x_21agentic_features_test12MockProviderE18list_conversations00B17_
FN:73,_RNCNCNvMNtCs7KwJKxSQlzX_12cogni_client8statefulINtB6_14StatefulClientNtCsgyDhXtLpw1x_21agentic_features_test12MockProviderE4save00B17_
FN:180,_RNCNCNvMNtCs7KwJKxSQlzX_12cogni_client8statefulINtB6_14StatefulClientNtNtNtCs1EirRVmYTZ6_15cogni_providers6openai8provider6OpenAIE18list_conversations00CsgyDhXtLpw1x_21agentic_features_test
FN:73,_RNCNCNvMNtCs7KwJKxSQlzX_12cogni_client8statefulINtB6_14StatefulClientNtNtNtCs1EirRVmYTZ6_15cogni_providers6openai8provider6OpenAIE4save00CsgyDhXtLpw1x_21agentic_features_test
FN:42,_RNCNvMNtCs7KwJKxSQlzX_12cogni_client8statefulINtB4_14StatefulClientNtCsgyDhXtLpw1x_21agentic_features_test12MockProviderE16new_conversation0B15_
FN:54,_RNCNvMNtCs7KwJKxSQlzX_12cogni_client8statefulINtB4_14StatefulClientNtCsgyDhXtLpw1x_21agentic_features_test12MockProviderE17load_conversation0B15_
FN:176,_RNCNvMNtCs7KwJKxSQlzX_12cogni_client8statefulINtB4_14StatefulClientNtCsgyDhXtLpw1x_21agentic_features_test12MockProviderE18list_conversations0B15_
FN:100,_RNCNvMNtCs7KwJKxSQlzX_12cogni_client8statefulINtB4_14StatefulClientNtCsgyDhXtLpw1x_21agentic_features_test12MockProviderE4chat0B15_
FN:67,_RNCNvMNtCs7KwJKxSQlzX_12cogni_client8statefulINtB4_14StatefulClientNtCsgyDhXtLpw1x_21agentic_features_test12MockProviderE4save0B15_
FN:42,_RNCNvMNtCs7KwJKxSQlzX_12cogni_client8statefulINtB4_14StatefulClientNtNtNtCs1EirRVmYTZ6_15cogni_providers6openai8provider6OpenAIE16new_conversation0CsgyDhXtLpw1x_21agentic_features_test
FN:176,_RNCNvMNtCs7KwJKxSQlzX_12cogni_client8statefulINtB4_14StatefulClientNtNtNtCs1EirRVmYTZ6_15cogni_providers6openai8provider6OpenAIE18list_conversations0CsgyDhXtLpw1x_21agentic_features_test
FN:100,_RNCNvMNtCs7KwJKxSQlzX_12cogni_client8statefulINtB4_14StatefulClientNtNtNtCs1EirRVmYTZ6_15cogni_providers6openai8provider6OpenAIE4chat0CsgyDhXtLpw1x_21agentic_features_test
FN:67,_RNCNvMNtCs7KwJKxSQlzX_12cogni_client8statefulINtB4_14StatefulClientNtNtNtCs1EirRVmYTZ6_15cogni_providers6openai8provider6OpenAIE4save0CsgyDhXtLpw1x_21agentic_features_test
FN:85,_RNvMNtCs7KwJKxSQlzX_12cogni_client8statefulINtB2_14StatefulClientNtCsgyDhXtLpw1x_21agentic_features_test12MockProviderE13current_stateB13_
FN:42,_RNvMNtCs7KwJKxSQlzX_12cogni_client8statefulINtB2_14StatefulClientNtCsgyDhXtLpw1x_21agentic_features_test12MockProviderE16new_conversationB13_
FN:90,_RNvMNtCs7KwJKxSQlzX_12cogni_client8statefulINtB2_14StatefulClientNtCsgyDhXtLpw1x_21agentic_features_test12MockProviderE17current_state_mutB13_
FN:54,_RNvMNtCs7KwJKxSQlzX_12cogni_client8statefulINtB2_14StatefulClientNtCsgyDhXtLpw1x_21agentic_features_test12MockProviderE17load_conversationB13_
FN:176,_RNvMNtCs7KwJKxSQlzX_12cogni_client8statefulINtB2_14StatefulClientNtCsgyDhXtLpw1x_21agentic_features_test12MockProviderE18list_conversationsB13_
FN:27,_RNvMNtCs7KwJKxSQlzX_12cogni_client8statefulINtB2_14StatefulClientNtCsgyDhXtLpw1x_21agentic_features_test12MockProviderE3newB13_
FN:100,_RNvMNtCs7KwJKxSQlzX_12cogni_client8statefulINtB2_14StatefulClientNtCsgyDhXtLpw1x_21agentic_features_test12MockProviderE4chatB13_
FN:67,_RNvMNtCs7KwJKxSQlzX_12cogni_client8statefulINtB2_14StatefulClientNtCsgyDhXtLpw1x_21agentic_features_test12MockProviderE4saveB13_
FN:85,_RNvMNtCs7KwJKxSQlzX_12cogni_client8statefulINtB2_14StatefulClientNtNtNtCs1EirRVmYTZ6_15cogni_providers6openai8provider6OpenAIE13current_stateCsgyDhXtLpw1x_21agentic_features_test
FN:42,_RNvMNtCs7KwJKxSQlzX_12cogni_client8statefulINtB2_14StatefulClientNtNtNtCs1EirRVmYTZ6_15cogni_providers6openai8provider6OpenAIE16new_conversationCsgyDhXtLpw1x_21agentic_features_test
FN:90,_RNvMNtCs7KwJKxSQlzX_12cogni_client8statefulINtB2_14StatefulClientNtNtNtCs1EirRVmYTZ6_15cogni_providers6openai8provider6OpenAIE17current_state_mutCsgyDhXtLpw1x_21agentic_features_test
FN:176,_RNvMNtCs7KwJKxSQlzX_12cogni_client8statefulINtB2_14StatefulClientNtNtNtCs1EirRVmYTZ6_15cogni_providers6openai8provider6OpenAIE18list_conversationsCsgyDhXtLpw1x_21agentic_features_test
FN:27,_RNvMNtCs7KwJKxSQlzX_12cogni_client8statefulINtB2_14StatefulClientNtNtNtCs1EirRVmYTZ6_15cogni_providers6openai8provider6OpenAIE3newCsgyDhXtLpw1x_21agentic_features_test
FN:100,_RNvMNtCs7KwJKxSQlzX_12cogni_client8statefulINtB2_14StatefulClientNtNtNtCs1EirRVmYTZ6_15cogni_providers6openai8provider6OpenAIE4chatCsgyDhXtLpw1x_21agentic_features_test
FN:67,_RNvMNtCs7KwJKxSQlzX_12cogni_client8statefulINtB2_14StatefulClientNtNtNtCs1EirRVmYTZ6_15cogni_providers6openai8provider6OpenAIE4saveCsgyDhXtLpw1x_21agentic_features_test
FN:147,_RNCNvMNtCshZjyUOIHxJx_12cogni_client8statefulINtB4_14StatefulClientpE11stream_chat0B6_
FN:257,_RNCNvXs_NtNtCshZjyUOIHxJx_12cogni_client8stateful5testsNtB6_12MockProviderNtNtCsagf8dG4onv5_10cogni_core8provider8Provider6stream0Ba_
FN:144,_RNvMNtCshZjyUOIHxJx_12cogni_client8statefulINtB2_14StatefulClientpE11stream_chatB4_
FN:37,_RNvMNtCshZjyUOIHxJx_12cogni_client8statefulINtB2_14StatefulClientpE13set_auto_saveB4_
FN:259,_RNvXs_NtNtCshZjyUOIHxJx_12cogni_client8stateful5testsNtB4_12MockProviderNtNtCsagf8dG4onv5_10cogni_core8provider8Provider6stream
FN:229,_RNvMNtNtCshZjyUOIHxJx_12cogni_client8stateful5testsNtB2_12MockProvider13with_response
FN:222,_RNvMNtNtCshZjyUOIHxJx_12cogni_client8stateful5testsNtB2_12MockProvider3new
FN:263,_RNvNtNtCshZjyUOIHxJx_12cogni_client8stateful5testss_26test_stateful_client_basic
FN:305,_RNvNtNtCshZjyUOIHxJx_12cogni_client8stateful5testss_28test_conversation_management
FN:255,_RNvXs_NtNtCshZjyUOIHxJx_12cogni_client8stateful5testsNtB4_12MockProviderNtNtCsagf8dG4onv5_10cogni_core8provider8Provider7request
FN:203,_RNCNCNvMNtCshZjyUOIHxJx_12cogni_client8statefulINtB6_14StatefulClientNtNtB6_5tests12MockProviderE12find_by_tags00B8_
FN:60,_RNCNCNvMNtCshZjyUOIHxJx_12cogni_client8statefulINtB6_14StatefulClientNtNtB6_5tests12MockProviderE17load_conversation00B8_
FN:180,_RNCNCNvMNtCshZjyUOIHxJx_12cogni_client8statefulINtB6_14StatefulClientNtNtB6_5tests12MockProviderE18list_conversations00B8_
FN:188,_RNCNCNvMNtCshZjyUOIHxJx_12cogni_client8statefulINtB6_14StatefulClientNtNtB6_5tests12MockProviderE19delete_conversation00B8_
FN:73,_RNCNCNvMNtCshZjyUOIHxJx_12cogni_client8statefulINtB6_14StatefulClientNtNtB6_5tests12MockProviderE4save00B8_
FN:199,_RNCNvMNtCshZjyUOIHxJx_12cogni_client8statefulINtB4_14StatefulClientNtNtB4_5tests12MockProviderE12find_by_tags0B6_
FN:42,_RNCNvMNtCshZjyUOIHxJx_12cogni_client8statefulINtB4_14StatefulClientNtNtB4_5tests12MockProviderE16new_conversation0B6_
FN:54,_RNCNvMNtCshZjyUOIHxJx_12cogni_client8statefulINtB4_14StatefulClientNtNtB4_5tests12MockProviderE17load_conversation0B6_
FN:176,_RNCNvMNtCshZjyUOIHxJx_12cogni_client8statefulINtB4_14StatefulClientNtNtB4_5tests12MockProviderE18list_conversations0B6_
FN:184,_RNCNvMNtCshZjyUOIHxJx_12cogni_client8statefulINtB4_14StatefulClientNtNtB4_5tests12MockProviderE19delete_conversation0B6_
FN:81,_RNCNvMNtCshZjyUOIHxJx_12cogni_client8statefulINtB4_14StatefulClientNtNtB4_5tests12MockProviderE23current_conversation_id0B6_
FN:100,_RNCNvMNtCshZjyUOIHxJx_12cogni_client8statefulINtB4_14StatefulClientNtNtB4_5tests12MockProviderE4chat0B6_
FN:67,_RNCNvMNtCshZjyUOIHxJx_12cogni_client8statefulINtB4_14StatefulClientNtNtB4_5tests12MockProviderE4save0B6_
FN:199,_RNvMNtCshZjyUOIHxJx_12cogni_client8statefulINtB2_14StatefulClientNtNtB2_5tests12MockProviderE12find_by_tagsB4_
FN:95,_RNvMNtCshZjyUOIHxJx_12cogni_client8statefulINtB2_14StatefulClientNtNtB2_5tests12MockProviderE13clear_currentB4_
FN:85,_RNvMNtCshZjyUOIHxJx_12cogni_client8statefulINtB2_14StatefulClientNtNtB2_5tests12MockProviderE13current_stateB4_
FN:42,_RNvMNtCshZjyUOIHxJx_12cogni_client8statefulINtB2_14StatefulClientNtNtB2_5tests12MockProviderE16new_conversationB4_
FN:90,_RNvMNtCshZjyUOIHxJx_12cogni_client8statefulINtB2_14StatefulClientNtNtB2_5tests12MockProviderE17current_state_mutB4_
FN:54,_RNvMNtCshZjyUOIHxJx_12cogni_client8statefulINtB2_14StatefulClientNtNtB2_5tests12MockProviderE17load_conversationB4_
FN:176,_RNvMNtCshZjyUOIHxJx_12cogni_client8statefulINtB2_14StatefulClientNtNtB2_5tests12MockProviderE18list_conversationsB4_
FN:184,_RNvMNtCshZjyUOIHxJx_12cogni_client8statefulINtB2_14StatefulClientNtNtB2_5tests12MockProviderE19delete_conversationB4_
FN:80,_RNvMNtCshZjyUOIHxJx_12cogni_client8statefulINtB2_14StatefulClientNtNtB2_5tests12MockProviderE23current_conversation_idB4_
FN:27,_RNvMNtCshZjyUOIHxJx_12cogni_client8statefulINtB2_14StatefulClientNtNtB2_5tests12MockProviderE3newB4_
FN:100,_RNvMNtCshZjyUOIHxJx_12cogni_client8statefulINtB2_14StatefulClientNtNtB2_5tests12MockProviderE4chatB4_
FN:67,_RNvMNtCshZjyUOIHxJx_12cogni_client8statefulINtB2_14StatefulClientNtNtB2_5tests12MockProviderE4saveB4_
FN:263,_RNCNvNtNtCshZjyUOIHxJx_12cogni_client8stateful5testss_26test_stateful_client_basic0B7_
FN:305,_RNCNvNtNtCshZjyUOIHxJx_12cogni_client8stateful5testss_28test_conversation_management0B7_
FN:240,_RNCNvXs_NtNtCshZjyUOIHxJx_12cogni_client8stateful5testsNtB6_12MockProviderNtNtCsagf8dG4onv5_10cogni_core8provider8Provider7request0Ba_
FNDA:0,_RNCNCNvMNtCs7KwJKxSQlzX_12cogni_client8statefulINtB6_14StatefulClientNtCsgyDhXtLpw1x_21agentic_features_test12MockProviderE17load_conversation00B17_
FNDA:0,_RNCNCNvMNtCs7KwJKxSQlzX_12cogni_client8statefulINtB6_14StatefulClientNtCsgyDhXtLpw1x_21agentic_features_test12MockProviderE18list_conversations00B17_
FNDA:0,_RNCNCNvMNtCs7KwJKxSQlzX_12cogni_client8statefulINtB6_14StatefulClientNtCsgyDhXtLpw1x_21agentic_features_test12MockProviderE4save00B17_
FNDA:0,_RNCNCNvMNtCs7KwJKxSQlzX_12cogni_client8statefulINtB6_14StatefulClientNtNtNtCs1EirRVmYTZ6_15cogni_providers6openai8provider6OpenAIE18list_conversations00CsgyDhXtLpw1x_21agentic_features_test
FNDA:0,_RNCNCNvMNtCs7KwJKxSQlzX_12cogni_client8statefulINtB6_14StatefulClientNtNtNtCs1EirRVmYTZ6_15cogni_providers6openai8provider6OpenAIE4save00CsgyDhXtLpw1x_21agentic_features_test
FNDA:5,_RNCNvMNtCs7KwJKxSQlzX_12cogni_client8statefulINtB4_14StatefulClientNtCsgyDhXtLpw1x_21agentic_features_test12MockProviderE16new_conversation0B15_
FNDA:2,_RNCNvMNtCs7KwJKxSQlzX_12cogni_client8statefulINtB4_14StatefulClientNtCsgyDhXtLpw1x_21agentic_features_test12MockProviderE17load_conversation0B15_
FNDA:1,_RNCNvMNtCs7KwJKxSQlzX_12cogni_client8statefulINtB4_14StatefulClientNtCsgyDhXtLpw1x_21agentic_features_test12MockProviderE18list_conversations0B15_
FNDA:8,_RNCNvMNtCs7KwJKxSQlzX_12cogni_client8statefulINtB4_14StatefulClientNtCsgyDhXtLpw1x_21agentic_features_test12MockProviderE4chat0B15_
FNDA:15,_RNCNvMNtCs7KwJKxSQlzX_12cogni_client8statefulINtB4_14StatefulClientNtCsgyDhXtLpw1x_21agentic_features_test12MockProviderE4save0B15_
FNDA:1,_RNCNvMNtCs7KwJKxSQlzX_12cogni_client8statefulINtB4_14StatefulClientNtNtNtCs1EirRVmYTZ6_15cogni_providers6openai8provider6OpenAIE16new_conversation0CsgyDhXtLpw1x_21agentic_features_test
FNDA:1,_RNCNvMNtCs7KwJKxSQlzX_12cogni_client8statefulINtB4_14StatefulClientNtNtNtCs1EirRVmYTZ6_15cogni_providers6openai8provider6OpenAIE18list_conversations0CsgyDhXtLpw1x_21agentic_features_test
FNDA:1,_RNCNvMNtCs7KwJKxSQlzX_12cogni_client8statefulINtB4_14StatefulClientNtNtNtCs1EirRVmYTZ6_15cogni_providers6openai8provider6OpenAIE4chat0CsgyDhXtLpw1x_21agentic_features_test
FNDA:3,_RNCNvMNtCs7KwJKxSQlzX_12cogni_client8statefulINtB4_14StatefulClientNtNtNtCs1EirRVmYTZ6_15cogni_providers6openai8provider6OpenAIE4save0CsgyDhXtLpw1x_21agentic_features_test
FNDA:5,_RNvMNtCs7KwJKxSQlzX_12cogni_client8statefulINtB2_14StatefulClientNtCsgyDhXtLpw1x_21agentic_features_test12MockProviderE13current_stateB13_
FNDA:5,_RNvMNtCs7KwJKxSQlzX_12cogni_client8statefulINtB2_14StatefulClientNtCsgyDhXtLpw1x_21agentic_features_test12MockProviderE16new_conversationB13_
FNDA:4,_RNvMNtCs7KwJKxSQlzX_12cogni_client8statefulINtB2_14StatefulClientNtCsgyDhXtLpw1x_21agentic_features_test12MockProviderE17current_state_mutB13_
FNDA:2,_RNvMNtCs7KwJKxSQlzX_12cogni_client8statefulINtB2_14StatefulClientNtCsgyDhXtLpw1x_21agentic_features_test12MockProviderE17load_conversationB13_
FNDA:1,_RNvMNtCs7KwJKxSQlzX_12cogni_client8statefulINtB2_14StatefulClientNtCsgyDhXtLpw1x_21agentic_features_test12MockProviderE18list_conversationsB13_
FNDA:7,_RNvMNtCs7KwJKxSQlzX_12cogni_client8statefulINtB2_14StatefulClientNtCsgyDhXtLpw1x_21agentic_features_test12MockProviderE3newB13_
FNDA:8,_RNvMNtCs7KwJKxSQlzX_12cogni_client8statefulINtB2_14StatefulClientNtCsgyDhXtLpw1x_21agentic_features_test12MockProviderE4chatB13_
FNDA:15,_RNvMNtCs7KwJKxSQlzX_12cogni_client8statefulINtB2_14StatefulClientNtCsgyDhXtLpw1x_21agentic_features_test12MockProviderE4saveB13_
FNDA:1,_RNvMNtCs7KwJKxSQlzX_12cogni_client8statefulINtB2_14StatefulClientNtNtNtCs1EirRVmYTZ6_15cogni_providers6openai8provider6OpenAIE13current_stateCsgyDhXtLpw1x_21agentic_features_test
FNDA:1,_RNvMNtCs7KwJKxSQlzX_12cogni_client8statefulINtB2_14StatefulClientNtNtNtCs1EirRVmYTZ6_15cogni_providers6openai8provider6OpenAIE16new_conversationCsgyDhXtLpw1x_21agentic_features_test
FNDA:1,_RNvMNtCs7KwJKxSQlzX_12cogni_client8statefulINtB2_14StatefulClientNtNtNtCs1EirRVmYTZ6_15cogni_providers6openai8provider6OpenAIE17current_state_mutCsgyDhXtLpw1x_21agentic_features_test
FNDA:1,_RNvMNtCs7KwJKxSQlzX_12cogni_client8statefulINtB2_14StatefulClientNtNtNtCs1EirRVmYTZ6_15cogni_providers6openai8provider6OpenAIE18list_conversationsCsgyDhXtLpw1x_21agentic_features_test
FNDA:1,_RNvMNtCs7KwJKxSQlzX_12cogni_client8statefulINtB2_14StatefulClientNtNtNtCs1EirRVmYTZ6_15cogni_providers6openai8provider6OpenAIE3newCsgyDhXtLpw1x_21agentic_features_test
FNDA:1,_RNvMNtCs7KwJKxSQlzX_12cogni_client8statefulINtB2_14StatefulClientNtNtNtCs1EirRVmYTZ6_15cogni_providers6openai8provider6OpenAIE4chatCsgyDhXtLpw1x_21agentic_features_test
FNDA:3,_RNvMNtCs7KwJKxSQlzX_12cogni_client8statefulINtB2_14StatefulClientNtNtNtCs1EirRVmYTZ6_15cogni_providers6openai8provider6OpenAIE4saveCsgyDhXtLpw1x_21agentic_features_test
FNDA:0,_RNCNvMNtCshZjyUOIHxJx_12cogni_client8statefulINtB4_14StatefulClientpE11stream_chat0B6_
FNDA:0,_RNCNvXs_NtNtCshZjyUOIHxJx_12cogni_client8stateful5testsNtB6_12MockProviderNtNtCsagf8dG4onv5_10cogni_core8provider8Provider6stream0Ba_
FNDA:0,_RNvMNtCshZjyUOIHxJx_12cogni_client8statefulINtB2_14StatefulClientpE11stream_chatB4_
FNDA:0,_RNvMNtCshZjyUOIHxJx_12cogni_client8statefulINtB2_14StatefulClientpE13set_auto_saveB4_
FNDA:0,_RNvXs_NtNtCshZjyUOIHxJx_12cogni_client8stateful5testsNtB4_12MockProviderNtNtCsagf8dG4onv5_10cogni_core8provider8Provider6stream
FNDA:1,_RNvMNtNtCshZjyUOIHxJx_12cogni_client8stateful5testsNtB2_12MockProvider13with_response
FNDA:2,_RNvMNtNtCshZjyUOIHxJx_12cogni_client8stateful5testsNtB2_12MockProvider3new
FNDA:1,_RNvNtNtCshZjyUOIHxJx_12cogni_client8stateful5testss_26test_stateful_client_basic
FNDA:1,_RNvNtNtCshZjyUOIHxJx_12cogni_client8stateful5testss_28test_conversation_management
FNDA:1,_RNvXs_NtNtCshZjyUOIHxJx_12cogni_client8stateful5testsNtB4_12MockProviderNtNtCsagf8dG4onv5_10cogni_core8provider8Provider7request
FNDA:0,_RNCNCNvMNtCshZjyUOIHxJx_12cogni_client8statefulINtB6_14StatefulClientNtNtB6_5tests12MockProviderE12find_by_tags00B8_
FNDA:0,_RNCNCNvMNtCshZjyUOIHxJx_12cogni_client8statefulINtB6_14StatefulClientNtNtB6_5tests12MockProviderE17load_conversation00B8_
FNDA:0,_RNCNCNvMNtCshZjyUOIHxJx_12cogni_client8statefulINtB6_14StatefulClientNtNtB6_5tests12MockProviderE18list_conversations00B8_
FNDA:0,_RNCNCNvMNtCshZjyUOIHxJx_12cogni_client8statefulINtB6_14StatefulClientNtNtB6_5tests12MockProviderE19delete_conversation00B8_
FNDA:0,_RNCNCNvMNtCshZjyUOIHxJx_12cogni_client8statefulINtB6_14StatefulClientNtNtB6_5tests12MockProviderE4save00B8_
FNDA:1,_RNCNvMNtCshZjyUOIHxJx_12cogni_client8statefulINtB4_14StatefulClientNtNtB4_5tests12MockProviderE12find_by_tags0B6_
FNDA:3,_RNCNvMNtCshZjyUOIHxJx_12cogni_client8statefulINtB4_14StatefulClientNtNtB4_5tests12MockProviderE16new_conversation0B6_
FNDA:1,_RNCNvMNtCshZjyUOIHxJx_12cogni_client8statefulINtB4_14StatefulClientNtNtB4_5tests12MockProviderE17load_conversation0B6_
FNDA:2,_RNCNvMNtCshZjyUOIHxJx_12cogni_client8statefulINtB4_14StatefulClientNtNtB4_5tests12MockProviderE18list_conversations0B6_
FNDA:1,_RNCNvMNtCshZjyUOIHxJx_12cogni_client8statefulINtB4_14StatefulClientNtNtB4_5tests12MockProviderE19delete_conversation0B6_
FNDA:3,_RNCNvMNtCshZjyUOIHxJx_12cogni_client8statefulINtB4_14StatefulClientNtNtB4_5tests12MockProviderE23current_conversation_id0B6_
FNDA:1,_RNCNvMNtCshZjyUOIHxJx_12cogni_client8statefulINtB4_14StatefulClientNtNtB4_5tests12MockProviderE4chat0B6_
FNDA:6,_RNCNvMNtCshZjyUOIHxJx_12cogni_client8statefulINtB4_14StatefulClientNtNtB4_5tests12MockProviderE4save0B6_
FNDA:1,_RNvMNtCshZjyUOIHxJx_12cogni_client8statefulINtB2_14StatefulClientNtNtB2_5tests12MockProviderE12find_by_tagsB4_
FNDA:0,_RNvMNtCshZjyUOIHxJx_12cogni_client8statefulINtB2_14StatefulClientNtNtB2_5tests12MockProviderE13clear_currentB4_
FNDA:1,_RNvMNtCshZjyUOIHxJx_12cogni_client8statefulINtB2_14StatefulClientNtNtB2_5tests12MockProviderE13current_stateB4_
FNDA:3,_RNvMNtCshZjyUOIHxJx_12cogni_client8statefulINtB2_14StatefulClientNtNtB2_5tests12MockProviderE16new_conversationB4_
FNDA:4,_RNvMNtCshZjyUOIHxJx_12cogni_client8statefulINtB2_14StatefulClientNtNtB2_5tests12MockProviderE17current_state_mutB4_
FNDA:1,_RNvMNtCshZjyUOIHxJx_12cogni_client8statefulINtB2_14StatefulClientNtNtB2_5tests12MockProviderE17load_conversationB4_
FNDA:2,_RNvMNtCshZjyUOIHxJx_12cogni_client8statefulINtB2_14StatefulClientNtNtB2_5tests12MockProviderE18list_conversationsB4_
FNDA:1,_RNvMNtCshZjyUOIHxJx_12cogni_client8statefulINtB2_14StatefulClientNtNtB2_5tests12MockProviderE19delete_conversationB4_
FNDA:3,_RNvMNtCshZjyUOIHxJx_12cogni_client8statefulINtB2_14StatefulClientNtNtB2_5tests12MockProviderE23current_conversation_idB4_
FNDA:2,_RNvMNtCshZjyUOIHxJx_12cogni_client8statefulINtB2_14StatefulClientNtNtB2_5tests12MockProviderE3newB4_
FNDA:1,_RNvMNtCshZjyUOIHxJx_12cogni_client8statefulINtB2_14StatefulClientNtNtB2_5tests12MockProviderE4chatB4_
FNDA:6,_RNvMNtCshZjyUOIHxJx_12cogni_client8statefulINtB2_14StatefulClientNtNtB2_5tests12MockProviderE4saveB4_
FNDA:1,_RNCNvNtNtCshZjyUOIHxJx_12cogni_client8stateful5testss_26test_stateful_client_basic0B7_
FNDA:1,_RNCNvNtNtCshZjyUOIHxJx_12cogni_client8stateful5testss_28test_conversation_management0B7_
FNDA:1,_RNCNvXs_NtNtCshZjyUOIHxJx_12cogni_client8stateful5testsNtB6_12MockProviderNtNtCsagf8dG4onv5_10cogni_core8provider8Provider7request0Ba_
FNF:38
FNH:27
DA:27,10
DA:28,10
DA:29,10
DA:30,10
DA:31,10
DA:32,10
DA:33,10
DA:34,10
DA:37,0
DA:38,0
DA:39,0
DA:42,9
DA:43,9
DA:44,9
DA:45,9
DA:46,9
DA:47,9
DA:48,0
DA:49,9
DA:50,9
DA:51,9
DA:54,3
DA:55,3
DA:56,3
DA:57,3
DA:58,3
DA:59,3
DA:60,3
DA:61,3
DA:62,3
DA:63,3
DA:64,3
DA:67,24
DA:68,24
DA:69,24
DA:70,24
DA:71,24
DA:72,24
DA:73,24
DA:74,24
DA:75,0
DA:76,24
DA:77,24
DA:80,3
DA:81,3
DA:82,3
DA:85,7
DA:86,7
DA:87,7
DA:90,9
DA:91,9
DA:92,9
DA:95,0
DA:96,0
DA:97,0
DA:100,10
DA:101,10
DA:102,10
DA:103,0
DA:104,10
DA:106,10
DA:107,10
DA:108,10
DA:109,10
DA:110,10
DA:111,10
DA:112,10
DA:113,10
DA:114,10
DA:115,10
DA:116,10
DA:117,10
DA:118,10
DA:119,10
DA:122,10
DA:125,10
DA:126,10
DA:127,10
DA:130,10
DA:131,10
DA:132,10
DA:133,10
DA:136,10
DA:137,10
DA:138,0
DA:140,10
DA:141,10
DA:144,0
DA:145,0
DA:146,0
DA:147,0
DA:148,0
DA:149,0
DA:150,0
DA:151,0
DA:153,0
DA:154,0
DA:155,0
DA:156,0
DA:157,0
DA:158,0
DA:159,0
DA:160,0
DA:161,0
DA:162,0
DA:163,0
DA:164,0
DA:165,0
DA:166,0
DA:170,0
DA:172,0
DA:173,0
DA:176,4
DA:177,4
DA:178,4
DA:179,4
DA:180,4
DA:181,4
DA:184,1
DA:185,1
DA:186,1
DA:187,1
DA:188,1
DA:191,1
DA:192,0
DA:193,1
DA:195,1
DA:196,1
DA:199,1
DA:200,1
DA:201,1
DA:202,1
DA:203,1
DA:204,1
DA:222,2
DA:223,2
DA:224,2
DA:225,2
DA:226,2
DA:227,2
DA:229,1
DA:230,1
DA:231,1
DA:232,1
DA:240,1
DA:241,1
DA:242,1
DA:243,1
DA:244,1
DA:245,1
DA:246,1
DA:247,1
DA:249,0
DA:250,0
DA:251,0
DA:252,0
DA:253,0
DA:255,2
DA:257,0
DA:258,0
DA:259,0
DA:263,1
DA:264,1
DA:265,1
DA:266,1
DA:267,1
DA:268,1
DA:269,1
DA:270,1
DA:271,1
DA:272,1
DA:273,1
DA:274,1
DA:275,1
DA:276,1
DA:277,1
DA:278,1
DA:279,1
DA:280,1
DA:281,1
DA:282,1
DA:283,1
DA:284,1
DA:285,1
DA:286,1
DA:287,1
DA:288,1
DA:289,1
DA:290,1
DA:291,1
DA:292,1
DA:293,1
DA:294,1
DA:295,1
DA:296,1
DA:297,1
DA:298,1
DA:299,1
DA:300,1
DA:301,1
DA:302,1
DA:305,1
DA:306,1
DA:307,1
DA:308,1
DA:309,1
DA:310,1
DA:311,1
DA:312,1
DA:313,1
DA:314,1
DA:315,1
DA:316,1
DA:317,1
DA:318,1
DA:319,1
DA:320,1
DA:321,1
DA:322,1
DA:323,1
DA:324,1
DA:325,1
DA:326,1
DA:327,1
DA:328,1
DA:329,1
DA:330,1
DA:331,1
DA:332,1
DA:333,1
DA:334,1
DA:335,1
DA:336,1
DA:337,1
DA:338,1
DA:339,1
DA:340,1
DA:341,1
DA:342,1
DA:343,1
DA:344,1
DA:345,1
BRF:0
BRH:0
LF:318
LH:267
end_of_record
SF:/Users/jkh/Code/ai/cogni/cogni-context/src/counter.rs
FN:34,_RNCNvYNtNtCs4iTIVX4RZ9L_13cogni_context7counter15TiktokenCounterNtB6_12TokenCounter14count_messages0CsgyDhXtLpw1x_21agentic_features_test
FN:13,_RNvYNtNtCs4iTIVX4RZ9L_13cogni_context7counter15TiktokenCounterNtB4_12TokenCounter13count_messageCsgyDhXtLpw1x_21agentic_features_test
FN:33,_RNvYNtNtCs4iTIVX4RZ9L_13cogni_context7counter15TiktokenCounterNtB4_12TokenCounter14count_messagesCsgyDhXtLpw1x_21agentic_features_test
FN:48,_RNCNvMNtCs4iTIVX4RZ9L_13cogni_context7counterNtB4_15TiktokenCounter9for_model0B6_
FN:51,_RNCNvMNtCs4iTIVX4RZ9L_13cogni_context7counterNtB4_15TiktokenCounter9for_models_0B6_
FN:59,_RNvMNtCs4iTIVX4RZ9L_13cogni_context7counterNtB2_15TiktokenCounter12with_encoder
FN:46,_RNvMNtCs4iTIVX4RZ9L_13cogni_context7counterNtB2_15TiktokenCounter9for_model
FN:68,_RNvXs_NtCs4iTIVX4RZ9L_13cogni_context7counterNtB4_15TiktokenCounterNtB4_12TokenCounter10count_text
FN:72,_RNvXs_NtCs4iTIVX4RZ9L_13cogni_context7counterNtB4_15TiktokenCounterNtB4_12TokenCounter20model_context_window
FN:34,_RNCNvYpNtNtCs4iTIVX4RZ9L_13cogni_context7counter12TokenCounter14count_messages0B9_
FN:13,_RNvYpNtNtCs4iTIVX4RZ9L_13cogni_context7counter12TokenCounter13count_messageB7_
FN:33,_RNvYpNtNtCs4iTIVX4RZ9L_13cogni_context7counter12TokenCounter14count_messagesB7_
FN:13,_RNvYNtNvNtNtCsjRSNOzM2ApR_13cogni_context7counter5testss_19test_token_counting11MockCounterNtB8_12TokenCounter13count_messageBa_
FN:33,_RNvYNtNvNtNtCsjRSNOzM2ApR_13cogni_context7counter5testss_19test_token_counting11MockCounterNtB8_12TokenCounter14count_messagesBa_
FN:48,_RNCNvMNtCsjRSNOzM2ApR_13cogni_context7counterNtB4_15TiktokenCounter9for_model0B6_
FN:51,_RNCNvMNtCsjRSNOzM2ApR_13cogni_context7counterNtB4_15TiktokenCounter9for_models_0B6_
FN:59,_RNvMNtCsjRSNOzM2ApR_13cogni_context7counterNtB2_15TiktokenCounter12with_encoder
FN:46,_RNvMNtCsjRSNOzM2ApR_13cogni_context7counterNtB2_15TiktokenCounter9for_model
FN:94,_RNvXNvNtNtCsjRSNOzM2ApR_13cogni_context7counter5testss_19test_token_countingNtB2_11MockCounterNtB6_12TokenCounter20model_context_window
FN:68,_RNvXs_NtCsjRSNOzM2ApR_13cogni_context7counterNtB4_15TiktokenCounterNtB4_12TokenCounter10count_text
FN:72,_RNvXs_NtCsjRSNOzM2ApR_13cogni_context7counterNtB4_15TiktokenCounterNtB4_12TokenCounter20model_context_window
FN:34,_RNCNvYNtNvNtNtCsjRSNOzM2ApR_13cogni_context7counter5testss_19test_token_counting11MockCounterNtBa_12TokenCounter14count_messages0Bc_
FN:83,_RNvNtNtCsjRSNOzM2ApR_13cogni_context7counter5testss_19test_token_counting
FN:89,_RNvXNvNtNtCsjRSNOzM2ApR_13cogni_context7counter5testss_19test_token_countingNtB2_11MockCounterNtB6_12TokenCounter10count_text
FNDA:3,_RNCNvYNtNtCs4iTIVX4RZ9L_13cogni_context7counter15TiktokenCounterNtB6_12TokenCounter14count_messages0CsgyDhXtLpw1x_21agentic_features_test
FNDA:3,_RNvYNtNtCs4iTIVX4RZ9L_13cogni_context7counter15TiktokenCounterNtB4_12TokenCounter13count_messageCsgyDhXtLpw1x_21agentic_features_test
FNDA:1,_RNvYNtNtCs4iTIVX4RZ9L_13cogni_context7counter15TiktokenCounterNtB4_12TokenCounter14count_messagesCsgyDhXtLpw1x_21agentic_features_test
FNDA:0,_RNCNvMNtCs4iTIVX4RZ9L_13cogni_context7counterNtB4_15TiktokenCounter9for_model0B6_
FNDA:0,_RNCNvMNtCs4iTIVX4RZ9L_13cogni_context7counterNtB4_15TiktokenCounter9for_models_0B6_
FNDA:0,_RNvMNtCs4iTIVX4RZ9L_13cogni_context7counterNtB2_15TiktokenCounter12with_encoder
FNDA:1,_RNvMNtCs4iTIVX4RZ9L_13cogni_context7counterNtB2_15TiktokenCounter9for_model
FNDA:6,_RNvXs_NtCs4iTIVX4RZ9L_13cogni_context7counterNtB4_15TiktokenCounterNtB4_12TokenCounter10count_text
FNDA:1,_RNvXs_NtCs4iTIVX4RZ9L_13cogni_context7counterNtB4_15TiktokenCounterNtB4_12TokenCounter20model_context_window
FNDA:0,_RNCNvYpNtNtCs4iTIVX4RZ9L_13cogni_context7counter12TokenCounter14count_messages0B9_
FNDA:0,_RNvYpNtNtCs4iTIVX4RZ9L_13cogni_context7counter12TokenCounter13count_messageB7_
FNDA:0,_RNvYpNtNtCs4iTIVX4RZ9L_13cogni_context7counter12TokenCounter14count_messagesB7_
FNDA:4,_RNvYNtNvNtNtCsjRSNOzM2ApR_13cogni_context7counter5testss_19test_token_counting11MockCounterNtB8_12TokenCounter13count_messageBa_
FNDA:1,_RNvYNtNvNtNtCsjRSNOzM2ApR_13cogni_context7counter5testss_19test_token_counting11MockCounterNtB8_12TokenCounter14count_messagesBa_
FNDA:0,_RNCNvMNtCsjRSNOzM2ApR_13cogni_context7counterNtB4_15TiktokenCounter9for_model0B6_
FNDA:0,_RNCNvMNtCsjRSNOzM2ApR_13cogni_context7counterNtB4_15TiktokenCounter9for_models_0B6_
FNDA:0,_RNvMNtCsjRSNOzM2ApR_13cogni_context7counterNtB2_15TiktokenCounter12with_encoder
FNDA:0,_RNvMNtCsjRSNOzM2ApR_13cogni_context7counterNtB2_15TiktokenCounter9for_model
FNDA:0,_RNvXNvNtNtCsjRSNOzM2ApR_13cogni_context7counter5testss_19test_token_countingNtB2_11MockCounterNtB6_12TokenCounter20model_context_window
FNDA:0,_RNvXs_NtCsjRSNOzM2ApR_13cogni_context7counterNtB4_15TiktokenCounterNtB4_12TokenCounter10count_text
FNDA:0,_RNvXs_NtCsjRSNOzM2ApR_13cogni_context7counterNtB4_15TiktokenCounterNtB4_12TokenCounter20model_context_window
FNDA:3,_RNCNvYNtNvNtNtCsjRSNOzM2ApR_13cogni_context7counter5testss_19test_token_counting11MockCounterNtBa_12TokenCounter14count_messages0Bc_
FNDA:1,_RNvNtNtCsjRSNOzM2ApR_13cogni_context7counter5testss_19test_token_counting
FNDA:8,_RNvXNvNtNtCsjRSNOzM2ApR_13cogni_context7counter5testss_19test_token_countingNtB2_11MockCounterNtB6_12TokenCounter10count_text
FNF:12
FNH:8
DA:13,7
DA:14,7
DA:15,7
DA:16,7
DA:17,7
DA:20,7
DA:21,7
DA:22,7
DA:25,7
DA:26,0
DA:27,7
DA:30,7
DA:31,7
DA:33,2
DA:34,6
DA:35,2
DA:46,1
DA:47,1
DA:48,1
DA:50,1
DA:51,1
DA:53,1
DA:54,1
DA:55,1
DA:56,1
DA:57,1
DA:59,0
DA:60,0
DA:61,0
DA:62,0
DA:63,0
DA:64,0
DA:68,6
DA:69,6
DA:70,6
DA:72,1
DA:73,1
DA:74,1
DA:83,1
DA:89,8
DA:90,8
DA:91,8
DA:92,8
DA:94,0
DA:95,0
DA:96,0
DA:99,1
DA:100,1
DA:101,1
DA:102,1
DA:103,1
DA:105,1
DA:106,1
DA:107,1
DA:108,1
DA:109,1
DA:110,1
DA:111,1
DA:112,1
DA:113,1
BRF:0
BRH:0
LF:63
LH:51
end_of_record
SF:/Users/jkh/Code/ai/cogni/cogni-context/src/error.rs
FN:25,_RNvXNtCs4iTIVX4RZ9L_13cogni_context5errorNtNtCsagf8dG4onv5_10cogni_core5error5ErrorINtNtCsfvfooZQ3Axs_4core7convert4FromNtB2_12ContextErrorE4from
FN:25,_RNvXNtCsjRSNOzM2ApR_13cogni_context5errorNtNtCsagf8dG4onv5_10cogni_core5error5ErrorINtNtCsfvfooZQ3Axs_4core7convert4FromNtB2_12ContextErrorE4from
FN:35,_RNvNtNtCsjRSNOzM2ApR_13cogni_context5error5testss_18test_error_display
FN:72,_RNvNtNtCsjRSNOzM2ApR_13cogni_context5error5testss_31test_all_error_variants_convert
FN:59,_RNvNtNtCsjRSNOzM2ApR_13cogni_context5error5testss_35test_error_conversion_to_core_error
FNDA:0,_RNvXNtCs4iTIVX4RZ9L_13cogni_context5errorNtNtCsagf8dG4onv5_10cogni_core5error5ErrorINtNtCsfvfooZQ3Axs_4core7convert4FromNtB2_12ContextErrorE4from
FNDA:7,_RNvXNtCsjRSNOzM2ApR_13cogni_context5errorNtNtCsagf8dG4onv5_10cogni_core5error5ErrorINtNtCsfvfooZQ3Axs_4core7convert4FromNtB2_12ContextErrorE4from
FNDA:1,_RNvNtNtCsjRSNOzM2ApR_13cogni_context5error5testss_18test_error_display
FNDA:1,_RNvNtNtCsjRSNOzM2ApR_13cogni_context5error5testss_31test_all_error_variants_convert
FNDA:1,_RNvNtNtCsjRSNOzM2ApR_13cogni_context5error5testss_35test_error_conversion_to_core_error
FNF:4
FNH:4
DA:25,7
DA:26,7
DA:27,7
DA:35,1
DA:36,1
DA:37,1
DA:39,1
DA:40,1
DA:42,1
DA:43,1
DA:44,1
DA:45,1
DA:46,1
DA:48,1
DA:49,1
DA:51,1
DA:52,1
DA:54,1
DA:55,1
DA:56,1
DA:59,1
DA:60,1
DA:61,1
DA:62,1
DA:63,1
DA:64,1
DA:65,1
DA:67,0
DA:69,1
DA:72,1
DA:73,1
DA:74,1
DA:75,1
DA:76,1
DA:77,1
DA:78,1
DA:79,1
DA:80,1
DA:82,7
DA:83,6
DA:84,6
DA:86,1
BRF:0
BRH:0
LF:42
LH:41
end_of_record
SF:/Users/jkh/Code/ai/cogni/cogni-context/src/manager.rs
FN:44,_RNCNvMNtCs4iTIVX4RZ9L_13cogni_context7managerNtB4_14ContextManager12fit_messages0CsgyDhXtLpw1x_21agentic_features_test
FN:44,_RNvMNtCs4iTIVX4RZ9L_13cogni_context7managerNtB2_14ContextManager12fit_messages
FN:35,_RNvMNtCs4iTIVX4RZ9L_13cogni_context7managerNtB2_14ContextManager13with_strategy
FN:63,_RNvMNtCs4iTIVX4RZ9L_13cogni_context7managerNtB2_14ContextManager14count_messages
FN:25,_RNvMNtCs4iTIVX4RZ9L_13cogni_context7managerNtB2_14ContextManager15with_max_tokens
FN:40,_RNvMNtCs4iTIVX4RZ9L_13cogni_context7managerNtB2_14ContextManager16available_tokens
FN:71,_RNvMNtCs4iTIVX4RZ9L_13cogni_context7managerNtB2_14ContextManager16tokens_remaining
FN:30,_RNvMNtCs4iTIVX4RZ9L_13cogni_context7managerNtB2_14ContextManager26with_reserve_output_tokens
FN:15,_RNvMNtCs4iTIVX4RZ9L_13cogni_context7managerNtB2_14ContextManager3new
FN:67,_RNvMNtCs4iTIVX4RZ9L_13cogni_context7managerNtB2_14ContextManager9would_fit
FN:44,_RNCNvMNtCs4iTIVX4RZ9L_13cogni_context7managerNtB4_14ContextManager12fit_messages0CshZjyUOIHxJx_12cogni_client
FN:44,_RNCNvMNtCs4iTIVX4RZ9L_13cogni_context7managerNtB4_14ContextManager12fit_messages0B6_
FN:44,_RNCNvMNtCsjRSNOzM2ApR_13cogni_context7managerNtB4_14ContextManager12fit_messages0B6_
FN:112,_RNvNtNtCsjRSNOzM2ApR_13cogni_context7manager5testss_31test_context_manager_no_pruning
FN:129,_RNvNtNtCsjRSNOzM2ApR_13cogni_context7manager5testss_33test_context_manager_with_pruning
FN:94,_RNvXNtNtCsjRSNOzM2ApR_13cogni_context7manager5testsNtB2_11MockCounterNtNtB6_7counter12TokenCounter10count_text
FN:98,_RNvXNtNtCsjRSNOzM2ApR_13cogni_context7manager5testsNtB2_11MockCounterNtNtB6_7counter12TokenCounter13count_message
FN:102,_RNvXNtNtCsjRSNOzM2ApR_13cogni_context7manager5testsNtB2_11MockCounterNtNtB6_7counter12TokenCounter14count_messages
FN:106,_RNvXNtNtCsjRSNOzM2ApR_13cogni_context7manager5testsNtB2_11MockCounterNtNtB6_7counter12TokenCounter20model_context_window
FN:44,_RNvMNtCsjRSNOzM2ApR_13cogni_context7managerNtB2_14ContextManager12fit_messages
FN:35,_RNvMNtCsjRSNOzM2ApR_13cogni_context7managerNtB2_14ContextManager13with_strategy
FN:63,_RNvMNtCsjRSNOzM2ApR_13cogni_context7managerNtB2_14ContextManager14count_messages
FN:40,_RNvMNtCsjRSNOzM2ApR_13cogni_context7managerNtB2_14ContextManager16available_tokens
FN:30,_RNvMNtCsjRSNOzM2ApR_13cogni_context7managerNtB2_14ContextManager26with_reserve_output_tokens
FN:15,_RNvMNtCsjRSNOzM2ApR_13cogni_context7managerNtB2_14ContextManager3new
FN:67,_RNvMNtCsjRSNOzM2ApR_13cogni_context7managerNtB2_14ContextManager9would_fit
FN:25,_RNvMNtCsjRSNOzM2ApR_13cogni_context7managerNtB2_14ContextManager15with_max_tokens
FN:71,_RNvMNtCsjRSNOzM2ApR_13cogni_context7managerNtB2_14ContextManager16tokens_remaining
FN:112,_RNCNvNtNtCsjRSNOzM2ApR_13cogni_context7manager5testss_31test_context_manager_no_pruning0B7_
FN:129,_RNCNvNtNtCsjRSNOzM2ApR_13cogni_context7manager5testss_33test_context_manager_with_pruning0B7_
FN:44,_RNCNvMNtCs4iTIVX4RZ9L_13cogni_context7managerNtB4_14ContextManager12fit_messages0CsQadenfUz7B_22structured_output_test
FNDA:4,_RNCNvMNtCs4iTIVX4RZ9L_13cogni_context7managerNtB4_14ContextManager12fit_messages0CsgyDhXtLpw1x_21agentic_features_test
FNDA:4,_RNvMNtCs4iTIVX4RZ9L_13cogni_context7managerNtB2_14ContextManager12fit_messages
FNDA:3,_RNvMNtCs4iTIVX4RZ9L_13cogni_context7managerNtB2_14ContextManager13with_strategy
FNDA:0,_RNvMNtCs4iTIVX4RZ9L_13cogni_context7managerNtB2_14ContextManager14count_messages
FNDA:4,_RNvMNtCs4iTIVX4RZ9L_13cogni_context7managerNtB2_14ContextManager15with_max_tokens
FNDA:4,_RNvMNtCs4iTIVX4RZ9L_13cogni_context7managerNtB2_14ContextManager16available_tokens
FNDA:0,_RNvMNtCs4iTIVX4RZ9L_13cogni_context7managerNtB2_14ContextManager16tokens_remaining
FNDA:4,_RNvMNtCs4iTIVX4RZ9L_13cogni_context7managerNtB2_14ContextManager26with_reserve_output_tokens
FNDA:4,_RNvMNtCs4iTIVX4RZ9L_13cogni_context7managerNtB2_14ContextManager3new
FNDA:0,_RNvMNtCs4iTIVX4RZ9L_13cogni_context7managerNtB2_14ContextManager9would_fit
FNDA:0,_RNCNvMNtCs4iTIVX4RZ9L_13cogni_context7managerNtB4_14ContextManager12fit_messages0CshZjyUOIHxJx_12cogni_client
FNDA:0,_RNCNvMNtCs4iTIVX4RZ9L_13cogni_context7managerNtB4_14ContextManager12fit_messages0B6_
FNDA:2,_RNCNvMNtCsjRSNOzM2ApR_13cogni_context7managerNtB4_14ContextManager12fit_messages0B6_
FNDA:1,_RNvNtNtCsjRSNOzM2ApR_13cogni_context7manager5testss_31test_context_manager_no_pruning
FNDA:1,_RNvNtNtCsjRSNOzM2ApR_13cogni_context7manager5testss_33test_context_manager_with_pruning
FNDA:0,_RNvXNtNtCsjRSNOzM2ApR_13cogni_context7manager5testsNtB2_11MockCounterNtNtB6_7counter12TokenCounter10count_text
FNDA:6,_RNvXNtNtCsjRSNOzM2ApR_13cogni_context7manager5testsNtB2_11MockCounterNtNtB6_7counter12TokenCounter13count_message
FNDA:3,_RNvXNtNtCsjRSNOzM2ApR_13cogni_context7manager5testsNtB2_11MockCounterNtNtB6_7counter12TokenCounter14count_messages
FNDA:2,_RNvXNtNtCsjRSNOzM2ApR_13cogni_context7manager5testsNtB2_11MockCounterNtNtB6_7counter12TokenCounter20model_context_window
FNDA:2,_RNvMNtCsjRSNOzM2ApR_13cogni_context7managerNtB2_14ContextManager12fit_messages
FNDA:1,_RNvMNtCsjRSNOzM2ApR_13cogni_context7managerNtB2_14ContextManager13with_strategy
FNDA:1,_RNvMNtCsjRSNOzM2ApR_13cogni_context7managerNtB2_14ContextManager14count_messages
FNDA:3,_RNvMNtCsjRSNOzM2ApR_13cogni_context7managerNtB2_14ContextManager16available_tokens
FNDA:2,_RNvMNtCsjRSNOzM2ApR_13cogni_context7managerNtB2_14ContextManager26with_reserve_output_tokens
FNDA:2,_RNvMNtCsjRSNOzM2ApR_13cogni_context7managerNtB2_14ContextManager3new
FNDA:1,_RNvMNtCsjRSNOzM2ApR_13cogni_context7managerNtB2_14ContextManager9would_fit
FNDA:0,_RNvMNtCsjRSNOzM2ApR_13cogni_context7managerNtB2_14ContextManager15with_max_tokens
FNDA:0,_RNvMNtCsjRSNOzM2ApR_13cogni_context7managerNtB2_14ContextManager16tokens_remaining
FNDA:1,_RNCNvNtNtCsjRSNOzM2ApR_13cogni_context7manager5testss_31test_context_manager_no_pruning0B7_
FNDA:1,_RNCNvNtNtCsjRSNOzM2ApR_13cogni_context7manager5testss_33test_context_manager_with_pruning0B7_
FNDA:0,_RNCNvMNtCs4iTIVX4RZ9L_13cogni_context7managerNtB4_14ContextManager12fit_messages0CsQadenfUz7B_22structured_output_test
FNF:18
FNH:16
DA:15,6
DA:16,6
DA:17,6
DA:18,6
DA:19,6
DA:20,6
DA:21,6
DA:22,6
DA:23,6
DA:25,4
DA:26,4
DA:27,4
DA:28,4
DA:30,6
DA:31,6
DA:32,6
DA:33,6
DA:35,4
DA:36,4
DA:37,4
DA:38,4
DA:40,7
DA:41,7
DA:42,7
DA:44,6
DA:45,6
DA:46,6
DA:47,6
DA:48,6
DA:49,3
DA:50,3
DA:51,3
DA:52,3
DA:53,0
DA:58,3
DA:59,3
DA:60,3
DA:61,6
DA:63,1
DA:64,1
DA:65,1
DA:67,1
DA:68,1
DA:69,1
DA:71,0
DA:72,0
DA:73,0
DA:74,0
DA:75,0
DA:76,0
DA:78,0
DA:80,0
DA:94,0
DA:95,0
DA:96,0
DA:98,6
DA:99,6
DA:100,6
DA:102,3
DA:103,3
DA:104,3
DA:106,2
DA:107,2
DA:108,2
DA:112,1
DA:113,1
DA:114,1
DA:115,1
DA:116,1
DA:117,1
DA:118,1
DA:119,1
DA:120,1
DA:121,1
DA:122,1
DA:123,1
DA:124,1
DA:125,1
DA:126,1
DA:129,1
DA:130,1
DA:131,1
DA:132,1
DA:133,1
DA:134,1
DA:135,1
DA:136,1
DA:137,1
DA:138,1
DA:139,1
DA:140,1
DA:141,1
DA:142,1
DA:143,1
DA:144,1
DA:145,1
DA:146,1
DA:147,1
DA:148,1
DA:149,1
DA:150,1
DA:151,1
DA:152,1
DA:153,1
DA:154,1
BRF:0
BRH:0
LF:143
LH:131
end_of_record
SF:/Users/jkh/Code/ai/cogni/cogni-context/src/strategies.rs
FN:105,_RINvMs0_NtCs4iTIVX4RZ9L_13cogni_context10strategiesNtB6_23ImportanceBasedStrategy3newINtNtCse1nGBsou5OW_5alloc5boxed3BoxNCNCNvCsgyDhXtLpw1x_21agentic_features_tests_31test_context_pruning_strategies00EEB20_
FN:25,_RNvMNtCs4iTIVX4RZ9L_13cogni_context10strategiesNtB2_21SlidingWindowStrategy3new
FN:116,_RNvMs0_NtCs4iTIVX4RZ9L_13cogni_context10strategiesNtB5_23ImportanceBasedStrategy17with_min_messages
FN:94,_RNvXs4_NtCs4iTIVX4RZ9L_13cogni_context10strategiesNtB5_21SlidingWindowStrategyNtB5_15PruningStrategy5prune
FN:168,_RNvXs6_NtCs4iTIVX4RZ9L_13cogni_context10strategiesNtB5_23ImportanceBasedStrategyNtB5_15PruningStrategy5prune
FN:34,_RNvXs_NtCs4iTIVX4RZ9L_13cogni_context10strategiesNtB4_21SlidingWindowStrategyNtNtCsfvfooZQ3Axs_4core7default7Default7default
FN:69,_RNCNCNvXs4_NtCs4iTIVX4RZ9L_13cogni_context10strategiesNtB9_21SlidingWindowStrategyNtB9_15PruningStrategy5prune00Bb_
FN:84,_RNCNCNvXs4_NtCs4iTIVX4RZ9L_13cogni_context10strategiesNtB9_21SlidingWindowStrategyNtB9_15PruningStrategy5prune0s_0Bb_
FN:132,_RNCNCNvXs6_NtCs4iTIVX4RZ9L_13cogni_context10strategiesNtB9_23ImportanceBasedStrategyNtB9_15PruningStrategy5prune00Bb_
FN:159,_RNCNCNvXs6_NtCs4iTIVX4RZ9L_13cogni_context10strategiesNtB9_23ImportanceBasedStrategyNtB9_15PruningStrategy5prune0s0_0Bb_
FN:143,_RNCNCNvXs6_NtCs4iTIVX4RZ9L_13cogni_context10strategiesNtB9_23ImportanceBasedStrategyNtB9_15PruningStrategy5prune0s_0Bb_
FN:49,_RNCNvXs4_NtCs4iTIVX4RZ9L_13cogni_context10strategiesNtB7_21SlidingWindowStrategyNtB7_15PruningStrategy5prune0B9_
FN:129,_RNCNvXs6_NtCs4iTIVX4RZ9L_13cogni_context10strategiesNtB7_23ImportanceBasedStrategyNtB7_15PruningStrategy5prune0B9_
FN:105,_RINvMs0_NtCs4iTIVX4RZ9L_13cogni_context10strategiesNtB6_23ImportanceBasedStrategy3newpEB8_
FN:213,_RNCNCNvXININtCs4iTIVX4RZ9L_13cogni_context10strategiess7_0pEINtB9_21SummarizationStrategypENtB9_15PruningStrategy5prune00Bb_
FN:246,_RNCNCNvXININtCs4iTIVX4RZ9L_13cogni_context10strategiess7_0pEINtB9_21SummarizationStrategypENtB9_15PruningStrategy5prune0s_0Bb_
FN:206,_RNCNvXININtCs4iTIVX4RZ9L_13cogni_context10strategiess7_0pEINtB7_21SummarizationStrategypENtB7_15PruningStrategy5prune0B9_
FN:188,_RNvMs1_NtCs4iTIVX4RZ9L_13cogni_context10strategiesINtB5_21SummarizationStrategypE15with_chunk_sizeB7_
FN:193,_RNvMs1_NtCs4iTIVX4RZ9L_13cogni_context10strategiesINtB5_21SummarizationStrategypE16with_keep_recentB7_
FN:179,_RNvMs1_NtCs4iTIVX4RZ9L_13cogni_context10strategiesINtB5_21SummarizationStrategypE3newB7_
FN:280,_RNvXININtCs4iTIVX4RZ9L_13cogni_context10strategiess7_0pEINtB5_21SummarizationStrategypENtB5_15PruningStrategy5pruneB7_
FN:105,_RINvMs0_NtCsjRSNOzM2ApR_13cogni_context10strategiesNtB6_23ImportanceBasedStrategy3newNCNCNvNtB6_5testss_30test_importance_based_strategy00EB8_
FN:69,_RNCNCNvXs4_NtCsjRSNOzM2ApR_13cogni_context10strategiesNtB9_21SlidingWindowStrategyNtB9_15PruningStrategy5prune00Bb_
FN:84,_RNCNCNvXs4_NtCsjRSNOzM2ApR_13cogni_context10strategiesNtB9_21SlidingWindowStrategyNtB9_15PruningStrategy5prune0s_0Bb_
FN:132,_RNCNCNvXs6_NtCsjRSNOzM2ApR_13cogni_context10strategiesNtB9_23ImportanceBasedStrategyNtB9_15PruningStrategy5prune00Bb_
FN:159,_RNCNCNvXs6_NtCsjRSNOzM2ApR_13cogni_context10strategiesNtB9_23ImportanceBasedStrategyNtB9_15PruningStrategy5prune0s0_0Bb_
FN:143,_RNCNCNvXs6_NtCsjRSNOzM2ApR_13cogni_context10strategiesNtB9_23ImportanceBasedStrategyNtB9_15PruningStrategy5prune0s_0Bb_
FN:49,_RNCNvXs4_NtCsjRSNOzM2ApR_13cogni_context10strategiesNtB7_21SlidingWindowStrategyNtB7_15PruningStrategy5prune0B9_
FN:129,_RNCNvXs6_NtCsjRSNOzM2ApR_13cogni_context10strategiesNtB7_23ImportanceBasedStrategyNtB7_15PruningStrategy5prune0B9_
FN:25,_RNvMNtCsjRSNOzM2ApR_13cogni_context10strategiesNtB2_21SlidingWindowStrategy3new
FN:94,_RNvXs4_NtCsjRSNOzM2ApR_13cogni_context10strategiesNtB5_21SlidingWindowStrategyNtB5_15PruningStrategy5prune
FN:168,_RNvXs6_NtCsjRSNOzM2ApR_13cogni_context10strategiesNtB5_23ImportanceBasedStrategyNtB5_15PruningStrategy5prune
FN:34,_RNvXs_NtCsjRSNOzM2ApR_13cogni_context10strategiesNtB4_21SlidingWindowStrategyNtNtCsfvfooZQ3Axs_4core7default7Default7default
FN:331,_RNCNCNvNtNtCsjRSNOzM2ApR_13cogni_context10strategies5testss_30test_importance_based_strategy00B9_
FN:352,_RNCNCNvNtNtCsjRSNOzM2ApR_13cogni_context10strategies5testss_30test_importance_based_strategy0s_0B9_
FN:309,_RNCNvNtNtCsjRSNOzM2ApR_13cogni_context10strategies5testss_28test_sliding_window_strategy0B7_
FN:330,_RNCNvNtNtCsjRSNOzM2ApR_13cogni_context10strategies5testss_30test_importance_based_strategy0B7_
FN:300,_RNCNvXNtNtCsjRSNOzM2ApR_13cogni_context10strategies5testsNtB4_11MockCounterNtNtB8_7counter12TokenCounter14count_messages0B8_
FN:309,_RNvNtNtCsjRSNOzM2ApR_13cogni_context10strategies5testss_28test_sliding_window_strategy
FN:330,_RNvNtNtCsjRSNOzM2ApR_13cogni_context10strategies5testss_30test_importance_based_strategy
FN:291,_RNvXNtNtCsjRSNOzM2ApR_13cogni_context10strategies5testsNtB2_11MockCounterNtNtB6_7counter12TokenCounter10count_text
FN:295,_RNvXNtNtCsjRSNOzM2ApR_13cogni_context10strategies5testsNtB2_11MockCounterNtNtB6_7counter12TokenCounter13count_message
FN:299,_RNvXNtNtCsjRSNOzM2ApR_13cogni_context10strategies5testsNtB2_11MockCounterNtNtB6_7counter12TokenCounter14count_messages
FN:303,_RNvXNtNtCsjRSNOzM2ApR_13cogni_context10strategies5testsNtB2_11MockCounterNtNtB6_7counter12TokenCounter20model_context_window
FN:213,_RNCNCNvXININtCsjRSNOzM2ApR_13cogni_context10strategiess7_0pEINtB9_21SummarizationStrategypENtB9_15PruningStrategy5prune00Bb_
FN:246,_RNCNCNvXININtCsjRSNOzM2ApR_13cogni_context10strategiess7_0pEINtB9_21SummarizationStrategypENtB9_15PruningStrategy5prune0s_0Bb_
FN:206,_RNCNvXININtCsjRSNOzM2ApR_13cogni_context10strategiess7_0pEINtB7_21SummarizationStrategypENtB7_15PruningStrategy5prune0B9_
FN:116,_RNvMs0_NtCsjRSNOzM2ApR_13cogni_context10strategiesNtB5_23ImportanceBasedStrategy17with_min_messages
FN:188,_RNvMs1_NtCsjRSNOzM2ApR_13cogni_context10strategiesINtB5_21SummarizationStrategypE15with_chunk_sizeB7_
FN:193,_RNvMs1_NtCsjRSNOzM2ApR_13cogni_context10strategiesINtB5_21SummarizationStrategypE16with_keep_recentB7_
FN:179,_RNvMs1_NtCsjRSNOzM2ApR_13cogni_context10strategiesINtB5_21SummarizationStrategypE3newB7_
FN:280,_RNvXININtCsjRSNOzM2ApR_13cogni_context10strategiess7_0pEINtB5_21SummarizationStrategypENtB5_15PruningStrategy5pruneB7_
FNDA:1,_RINvMs0_NtCs4iTIVX4RZ9L_13cogni_context10strategiesNtB6_23ImportanceBasedStrategy3newINtNtCse1nGBsou5OW_5alloc5boxed3BoxNCNCNvCsgyDhXtLpw1x_21agentic_features_tests_31test_context_pruning_strategies00EEB20_
FNDA:2,_RNvMNtCs4iTIVX4RZ9L_13cogni_context10strategiesNtB2_21SlidingWindowStrategy3new
FNDA:0,_RNvMs0_NtCs4iTIVX4RZ9L_13cogni_context10strategiesNtB5_23ImportanceBasedStrategy17with_min_messages
FNDA:1,_RNvXs4_NtCs4iTIVX4RZ9L_13cogni_context10strategiesNtB5_21SlidingWindowStrategyNtB5_15PruningStrategy5prune
FNDA:1,_RNvXs6_NtCs4iTIVX4RZ9L_13cogni_context10strategiesNtB5_23ImportanceBasedStrategyNtB5_15PruningStrategy5prune
FNDA:4,_RNvXs_NtCs4iTIVX4RZ9L_13cogni_context10strategiesNtB4_21SlidingWindowStrategyNtNtCsfvfooZQ3Axs_4core7default7Default7default
FNDA:21,_RNCNCNvXs4_NtCs4iTIVX4RZ9L_13cogni_context10strategiesNtB9_21SlidingWindowStrategyNtB9_15PruningStrategy5prune00Bb_
FNDA:4,_RNCNCNvXs4_NtCs4iTIVX4RZ9L_13cogni_context10strategiesNtB9_21SlidingWindowStrategyNtB9_15PruningStrategy5prune0s_0Bb_
FNDA:9,_RNCNCNvXs6_NtCs4iTIVX4RZ9L_13cogni_context10strategiesNtB9_23ImportanceBasedStrategyNtB9_15PruningStrategy5prune00Bb_
FNDA:20,_RNCNCNvXs6_NtCs4iTIVX4RZ9L_13cogni_context10strategiesNtB9_23ImportanceBasedStrategyNtB9_15PruningStrategy5prune0s0_0Bb_
FNDA:16,_RNCNCNvXs6_NtCs4iTIVX4RZ9L_13cogni_context10strategiesNtB9_23ImportanceBasedStrategyNtB9_15PruningStrategy5prune0s_0Bb_
FNDA:1,_RNCNvXs4_NtCs4iTIVX4RZ9L_13cogni_context10strategiesNtB7_21SlidingWindowStrategyNtB7_15PruningStrategy5prune0B9_
FNDA:1,_RNCNvXs6_NtCs4iTIVX4RZ9L_13cogni_context10strategiesNtB7_23ImportanceBasedStrategyNtB7_15PruningStrategy5prune0B9_
FNDA:0,_RINvMs0_NtCs4iTIVX4RZ9L_13cogni_context10strategiesNtB6_23ImportanceBasedStrategy3newpEB8_
FNDA:0,_RNCNCNvXININtCs4iTIVX4RZ9L_13cogni_context10strategiess7_0pEINtB9_21SummarizationStrategypENtB9_15PruningStrategy5prune00Bb_
FNDA:0,_RNCNCNvXININtCs4iTIVX4RZ9L_13cogni_context10strategiess7_0pEINtB9_21SummarizationStrategypENtB9_15PruningStrategy5prune0s_0Bb_
FNDA:0,_RNCNvXININtCs4iTIVX4RZ9L_13cogni_context10strategiess7_0pEINtB7_21SummarizationStrategypENtB7_15PruningStrategy5prune0B9_
FNDA:0,_RNvMs1_NtCs4iTIVX4RZ9L_13cogni_context10strategiesINtB5_21SummarizationStrategypE15with_chunk_sizeB7_
FNDA:0,_RNvMs1_NtCs4iTIVX4RZ9L_13cogni_context10strategiesINtB5_21SummarizationStrategypE16with_keep_recentB7_
FNDA:0,_RNvMs1_NtCs4iTIVX4RZ9L_13cogni_context10strategiesINtB5_21SummarizationStrategypE3newB7_
FNDA:0,_RNvXININtCs4iTIVX4RZ9L_13cogni_context10strategiess7_0pEINtB5_21SummarizationStrategypENtB5_15PruningStrategy5pruneB7_
FNDA:1,_RINvMs0_NtCsjRSNOzM2ApR_13cogni_context10strategiesNtB6_23ImportanceBasedStrategy3newNCNCNvNtB6_5testss_30test_importance_based_strategy00EB8_
FNDA:16,_RNCNCNvXs4_NtCsjRSNOzM2ApR_13cogni_context10strategiesNtB9_21SlidingWindowStrategyNtB9_15PruningStrategy5prune00Bb_
FNDA:10,_RNCNCNvXs4_NtCsjRSNOzM2ApR_13cogni_context10strategiesNtB9_21SlidingWindowStrategyNtB9_15PruningStrategy5prune0s_0Bb_
FNDA:4,_RNCNCNvXs6_NtCsjRSNOzM2ApR_13cogni_context10strategiesNtB9_23ImportanceBasedStrategyNtB9_15PruningStrategy5prune00Bb_
FNDA:4,_RNCNCNvXs6_NtCsjRSNOzM2ApR_13cogni_context10strategiesNtB9_23ImportanceBasedStrategyNtB9_15PruningStrategy5prune0s0_0Bb_
FNDA:4,_RNCNCNvXs6_NtCsjRSNOzM2ApR_13cogni_context10strategiesNtB9_23ImportanceBasedStrategyNtB9_15PruningStrategy5prune0s_0Bb_
FNDA:2,_RNCNvXs4_NtCsjRSNOzM2ApR_13cogni_context10strategiesNtB7_21SlidingWindowStrategyNtB7_15PruningStrategy5prune0B9_
FNDA:1,_RNCNvXs6_NtCsjRSNOzM2ApR_13cogni_context10strategiesNtB7_23ImportanceBasedStrategyNtB7_15PruningStrategy5prune0B9_
FNDA:2,_RNvMNtCsjRSNOzM2ApR_13cogni_context10strategiesNtB2_21SlidingWindowStrategy3new
FNDA:2,_RNvXs4_NtCsjRSNOzM2ApR_13cogni_context10strategiesNtB5_21SlidingWindowStrategyNtB5_15PruningStrategy5prune
FNDA:1,_RNvXs6_NtCsjRSNOzM2ApR_13cogni_context10strategiesNtB5_23ImportanceBasedStrategyNtB5_15PruningStrategy5prune
FNDA:2,_RNvXs_NtCsjRSNOzM2ApR_13cogni_context10strategiesNtB4_21SlidingWindowStrategyNtNtCsfvfooZQ3Axs_4core7default7Default7default
FNDA:3,_RNCNCNvNtNtCsjRSNOzM2ApR_13cogni_context10strategies5testss_30test_importance_based_strategy00B9_
FNDA:2,_RNCNCNvNtNtCsjRSNOzM2ApR_13cogni_context10strategies5testss_30test_importance_based_strategy0s_0B9_
FNDA:1,_RNCNvNtNtCsjRSNOzM2ApR_13cogni_context10strategies5testss_28test_sliding_window_strategy0B7_
FNDA:1,_RNCNvNtNtCsjRSNOzM2ApR_13cogni_context10strategies5testss_30test_importance_based_strategy0B7_
FNDA:0,_RNCNvXNtNtCsjRSNOzM2ApR_13cogni_context10strategies5testsNtB4_11MockCounterNtNtB8_7counter12TokenCounter14count_messages0B8_
FNDA:1,_RNvNtNtCsjRSNOzM2ApR_13cogni_context10strategies5testss_28test_sliding_window_strategy
FNDA:1,_RNvNtNtCsjRSNOzM2ApR_13cogni_context10strategies5testss_30test_importance_based_strategy
FNDA:8,_RNvXNtNtCsjRSNOzM2ApR_13cogni_context10strategies5testsNtB2_11MockCounterNtNtB6_7counter12TokenCounter10count_text
FNDA:8,_RNvXNtNtCsjRSNOzM2ApR_13cogni_context10strategies5testsNtB2_11MockCounterNtNtB6_7counter12TokenCounter13count_message
FNDA:0,_RNvXNtNtCsjRSNOzM2ApR_13cogni_context10strategies5testsNtB2_11MockCounterNtNtB6_7counter12TokenCounter14count_messages
FNDA:0,_RNvXNtNtCsjRSNOzM2ApR_13cogni_context10strategies5testsNtB2_11MockCounterNtNtB6_7counter12TokenCounter20model_context_window
FNDA:0,_RNCNCNvXININtCsjRSNOzM2ApR_13cogni_context10strategiess7_0pEINtB9_21SummarizationStrategypENtB9_15PruningStrategy5prune00Bb_
FNDA:0,_RNCNCNvXININtCsjRSNOzM2ApR_13cogni_context10strategiess7_0pEINtB9_21SummarizationStrategypENtB9_15PruningStrategy5prune0s_0Bb_
FNDA:0,_RNCNvXININtCsjRSNOzM2ApR_13cogni_context10strategiess7_0pEINtB7_21SummarizationStrategypENtB7_15PruningStrategy5prune0B9_
FNDA:0,_RNvMs0_NtCsjRSNOzM2ApR_13cogni_context10strategiesNtB5_23ImportanceBasedStrategy17with_min_messages
FNDA:0,_RNvMs1_NtCsjRSNOzM2ApR_13cogni_context10strategiesINtB5_21SummarizationStrategypE15with_chunk_sizeB7_
FNDA:0,_RNvMs1_NtCsjRSNOzM2ApR_13cogni_context10strategiesINtB5_21SummarizationStrategypE16with_keep_recentB7_
FNDA:0,_RNvMs1_NtCsjRSNOzM2ApR_13cogni_context10strategiesINtB5_21SummarizationStrategypE3newB7_
FNDA:0,_RNvXININtCsjRSNOzM2ApR_13cogni_context10strategiess7_0pEINtB5_21SummarizationStrategypENtB5_15PruningStrategy5pruneB7_
FNF:31
FNH:20
DA:25,4
DA:26,4
DA:27,4
DA:28,4
DA:29,4
DA:30,4
DA:34,6
DA:35,6
DA:36,6
DA:37,6
DA:38,6
DA:39,6
DA:49,3
DA:50,3
DA:51,3
DA:52,3
DA:53,3
DA:54,3
DA:55,40
DA:56,37
DA:57,3
DA:58,3
DA:59,3
DA:60,3
DA:61,3
DA:62,34
DA:64,0
DA:67,3
DA:68,3
DA:69,37
DA:70,3
DA:71,3
DA:72,3
DA:73,11
DA:74,11
DA:75,11
DA:76,11
DA:77,11
DA:78,11
DA:79,0
DA:84,14
DA:85,3
DA:86,3
DA:87,3
DA:88,0
DA:89,0
DA:90,0
DA:91,3
DA:92,3
DA:93,3
DA:94,6
DA:105,2
DA:106,2
DA:107,2
DA:108,2
DA:109,2
DA:110,2
DA:111,2
DA:112,2
DA:113,2
DA:114,2
DA:116,0
DA:117,0
DA:118,0
DA:119,0
DA:129,2
DA:130,2
DA:131,2
DA:132,13
DA:133,13
DA:134,2
DA:136,11
DA:138,13
DA:139,13
DA:140,2
DA:141,2
DA:142,2
DA:143,20
DA:144,2
DA:145,2
DA:146,2
DA:149,15
DA:150,13
DA:151,13
DA:152,11
DA:153,11
DA:154,11
DA:159,24
DA:160,2
DA:161,12
DA:162,10
DA:163,0
DA:164,0
DA:165,24
DA:166,2
DA:167,2
DA:168,4
DA:179,0
DA:180,0
DA:181,0
DA:182,0
DA:183,0
DA:184,0
DA:185,0
DA:186,0
DA:188,0
DA:189,0
DA:190,0
DA:191,0
DA:193,0
DA:194,0
DA:195,0
DA:196,0
DA:206,0
DA:207,0
DA:208,0
DA:209,0
DA:210,0
DA:211,0
DA:212,0
DA:213,0
DA:215,0
DA:216,0
DA:217,0
DA:218,0
DA:219,0
DA:220,0
DA:224,0
DA:225,0
DA:226,0
DA:229,0
DA:230,0
DA:231,0
DA:232,0
DA:233,0
DA:234,0
DA:238,0
DA:239,0
DA:241,0
DA:242,0
DA:243,0
DA:244,0
DA:245,0
DA:246,0
DA:247,0
DA:248,0
DA:249,0
DA:250,0
DA:251,0
DA:252,0
DA:253,0
DA:254,0
DA:255,0
DA:256,0
DA:257,0
DA:258,0
DA:259,0
DA:260,0
DA:261,0
DA:262,0
DA:263,0
DA:264,0
DA:265,0
DA:266,0
DA:267,0
DA:268,0
DA:269,0
DA:271,0
DA:272,0
DA:277,0
DA:279,0
DA:280,0
DA:291,8
DA:292,8
DA:293,8
DA:295,8
DA:296,8
DA:297,8
DA:299,0
DA:300,0
DA:301,0
DA:303,0
DA:304,0
DA:305,0
DA:309,1
DA:310,1
DA:311,1
DA:312,1
DA:313,1
DA:314,1
DA:315,1
DA:316,1
DA:317,1
DA:318,1
DA:319,1
DA:320,1
DA:321,1
DA:322,1
DA:323,1
DA:324,1
DA:325,1
DA:326,1
DA:327,1
DA:330,1
DA:331,3
DA:332,3
DA:333,1
DA:334,1
DA:335,2
DA:336,1
DA:337,3
DA:338,1
DA:339,1
DA:340,1
DA:341,1
DA:342,1
DA:343,1
DA:344,1
DA:345,1
DA:346,1
DA:347,1
DA:348,1
DA:349,1
DA:350,1
DA:351,1
DA:352,2
DA:353,1
BRF:0
BRH:0
LF:280
LH:184
end_of_record
SF:/Users/jkh/Code/ai/cogni/cogni-context/src/types.rs
FN:89,_RNvMs_NtCs4iTIVX4RZ9L_13cogni_context5typesNtB4_11ModelLimits16available_tokens
FN:21,_RNvMs_NtCs4iTIVX4RZ9L_13cogni_context5typesNtB4_11ModelLimits9for_model
FN:11,_RNvXNtCs4iTIVX4RZ9L_13cogni_context5typesNtB2_11ModelLimitsNtNtCsfvfooZQ3Axs_4core7default7Default7default
FN:100,_RNvNtNtCsjRSNOzM2ApR_13cogni_context5types5testss_17test_model_limits
FN:112,_RNvNtNtCsjRSNOzM2ApR_13cogni_context5types5testss_21test_available_tokens
FN:89,_RNvMs_NtCsjRSNOzM2ApR_13cogni_context5typesNtB4_11ModelLimits16available_tokens
FN:21,_RNvMs_NtCsjRSNOzM2ApR_13cogni_context5typesNtB4_11ModelLimits9for_model
FN:11,_RNvXNtCsjRSNOzM2ApR_13cogni_context5typesNtB2_11ModelLimitsNtNtCsfvfooZQ3Axs_4core7default7Default7default
FNDA:0,_RNvMs_NtCs4iTIVX4RZ9L_13cogni_context5typesNtB4_11ModelLimits16available_tokens
FNDA:1,_RNvMs_NtCs4iTIVX4RZ9L_13cogni_context5typesNtB4_11ModelLimits9for_model
FNDA:0,_RNvXNtCs4iTIVX4RZ9L_13cogni_context5typesNtB2_11ModelLimitsNtNtCsfvfooZQ3Axs_4core7default7Default7default
FNDA:1,_RNvNtNtCsjRSNOzM2ApR_13cogni_context5types5testss_17test_model_limits
FNDA:1,_RNvNtNtCsjRSNOzM2ApR_13cogni_context5types5testss_21test_available_tokens
FNDA:2,_RNvMs_NtCsjRSNOzM2ApR_13cogni_context5typesNtB4_11ModelLimits16available_tokens
FNDA:4,_RNvMs_NtCsjRSNOzM2ApR_13cogni_context5typesNtB4_11ModelLimits9for_model
FNDA:0,_RNvXNtCsjRSNOzM2ApR_13cogni_context5typesNtB2_11ModelLimitsNtNtCsfvfooZQ3Axs_4core7default7Default7default
FNF:5
FNH:4
DA:11,0
DA:12,0
DA:13,0
DA:14,0
DA:15,0
DA:16,0
DA:17,0
DA:21,5
DA:23,5
DA:24,5
DA:25,5
DA:26,2
DA:27,2
DA:28,2
DA:29,2
DA:30,3
DA:31,0
DA:32,0
DA:33,0
DA:34,0
DA:35,3
DA:36,0
DA:37,0
DA:38,0
DA:39,0
DA:40,3
DA:41,0
DA:42,0
DA:43,0
DA:44,0
DA:45,3
DA:46,1
DA:47,1
DA:48,1
DA:49,1
DA:50,2
DA:51,0
DA:52,0
DA:53,0
DA:54,0
DA:57,2
DA:58,1
DA:59,1
DA:60,1
DA:61,1
DA:62,1
DA:63,0
DA:64,0
DA:65,0
DA:66,0
DA:67,1
DA:68,0
DA:69,0
DA:70,0
DA:71,0
DA:72,1
DA:73,0
DA:74,0
DA:75,0
DA:76,0
DA:77,1
DA:78,0
DA:79,0
DA:80,0
DA:81,0
DA:83,1
DA:86,4
DA:87,5
DA:89,2
DA:90,2
DA:91,2
DA:92,2
DA:100,1
DA:101,1
DA:102,1
DA:103,1
DA:105,1
DA:106,1
DA:108,1
DA:109,1
DA:112,1
DA:113,1
DA:114,1
DA:115,1
DA:116,1
BRF:0
BRH:0
LF:85
LH:42
end_of_record
SF:/Users/jkh/Code/ai/cogni/cogni-core/src/error.rs
FN:92,_RNCNvXs_NtCsagf8dG4onv5_10cogni_core5errorNtB6_5ErrorNtNtCsfvfooZQ3Axs_4core5error5Error6source0B8_
FN:65,_RNvXNtCshQF7Xon2xxd_10cogni_core5errorNtB2_5ErrorNtNtCsfvfooZQ3Axs_4core3fmt7Display3fmt
FN:103,_RNvXs0_NtCshQF7Xon2xxd_10cogni_core5errorNtB5_5ErrorINtNtCsfvfooZQ3Axs_4core7convert4FromNtNtNtCscOYdFFY2T5N_3std2io5error5ErrorE4from
FN:112,_RNvXs1_NtCshQF7Xon2xxd_10cogni_core5errorNtB5_5ErrorINtNtCsfvfooZQ3Axs_4core7convert4FromNtNtCsjzYHKjXEdum_10serde_json5error5ErrorE4from
FN:86,_RNvXs_NtCshQF7Xon2xxd_10cogni_core5errorNtB4_5ErrorNtNtCsfvfooZQ3Axs_4core5error5Error6source
FN:92,_RNCNvXs_NtCshQF7Xon2xxd_10cogni_core5errorNtB6_5ErrorNtNtCsfvfooZQ3Axs_4core5error5Error6source0B8_
FN:293,_RINvNvNtNtCshQF7Xon2xxd_10cogni_core5error5testss_23test_error_is_send_sync11assert_sendNtB6_5ErrorEB8_
FN:294,_RINvNvNtNtCshQF7Xon2xxd_10cogni_core5error5testss_23test_error_is_send_sync11assert_syncNtB6_5ErrorEB8_
FN:175,_RNvNtNtCshQF7Xon2xxd_10cogni_core5error5testss_17test_error_source
FN:126,_RNvNtNtCshQF7Xon2xxd_10cogni_core5error5testss_18test_error_display
FN:274,_RNvNtNtCshQF7Xon2xxd_10cogni_core5error5testss_22test_result_type_alias
FN:263,_RNvNtNtCshQF7Xon2xxd_10cogni_core5error5testss_23test_error_debug_format
FN:292,_RNvNtNtCshQF7Xon2xxd_10cogni_core5error5testss_23test_error_is_send_sync
FN:218,_RNvNtNtCshQF7Xon2xxd_10cogni_core5error5testss_24test_error_from_io_error
FN:301,_RNvNtNtCshQF7Xon2xxd_10cogni_core5error5testss_24test_nested_error_source
FN:232,_RNvNtNtCshQF7Xon2xxd_10cogni_core5error5testss_32test_error_from_serde_json_error
FN:246,_RNvNtNtCshQF7Xon2xxd_10cogni_core5error5testss_36test_provider_error_with_retry_after
FN:275,_RNvNvNtNtCshQF7Xon2xxd_10cogni_core5error5testss_22test_result_type_alias13test_function
FN:283,_RNvNvNtNtCshQF7Xon2xxd_10cogni_core5error5testss_22test_result_type_alias16failing_function
FN:65,_RNvXNtCsagf8dG4onv5_10cogni_core5errorNtB2_5ErrorNtNtCsfvfooZQ3Axs_4core3fmt7Display3fmt
FN:103,_RNvXs0_NtCsagf8dG4onv5_10cogni_core5errorNtB5_5ErrorINtNtCsfvfooZQ3Axs_4core7convert4FromNtNtNtCscOYdFFY2T5N_3std2io5error5ErrorE4from
FN:112,_RNvXs1_NtCsagf8dG4onv5_10cogni_core5errorNtB5_5ErrorINtNtCsfvfooZQ3Axs_4core7convert4FromNtNtCsjzYHKjXEdum_10serde_json5error5ErrorE4from
FN:86,_RNvXs_NtCsagf8dG4onv5_10cogni_core5errorNtB4_5ErrorNtNtCsfvfooZQ3Axs_4core5error5Error6source
FNDA:0,_RNCNvXs_NtCsagf8dG4onv5_10cogni_core5errorNtB6_5ErrorNtNtCsfvfooZQ3Axs_4core5error5Error6source0B8_
FNDA:12,_RNvXNtCshQF7Xon2xxd_10cogni_core5errorNtB2_5ErrorNtNtCsfvfooZQ3Axs_4core3fmt7Display3fmt
FNDA:2,_RNvXs0_NtCshQF7Xon2xxd_10cogni_core5errorNtB5_5ErrorINtNtCsfvfooZQ3Axs_4core7convert4FromNtNtNtCscOYdFFY2T5N_3std2io5error5ErrorE4from
FNDA:1,_RNvXs1_NtCshQF7Xon2xxd_10cogni_core5errorNtB5_5ErrorINtNtCsfvfooZQ3Axs_4core7convert4FromNtNtCsjzYHKjXEdum_10serde_json5error5ErrorE4from
FNDA:6,_RNvXs_NtCshQF7Xon2xxd_10cogni_core5errorNtB4_5ErrorNtNtCsfvfooZQ3Axs_4core5error5Error6source
FNDA:3,_RNCNvXs_NtCshQF7Xon2xxd_10cogni_core5errorNtB6_5ErrorNtNtCsfvfooZQ3Axs_4core5error5Error6source0B8_
FNDA:1,_RINvNvNtNtCshQF7Xon2xxd_10cogni_core5error5testss_23test_error_is_send_sync11assert_sendNtB6_5ErrorEB8_
FNDA:1,_RINvNvNtNtCshQF7Xon2xxd_10cogni_core5error5testss_23test_error_is_send_sync11assert_syncNtB6_5ErrorEB8_
FNDA:1,_RNvNtNtCshQF7Xon2xxd_10cogni_core5error5testss_17test_error_source
FNDA:1,_RNvNtNtCshQF7Xon2xxd_10cogni_core5error5testss_18test_error_display
FNDA:1,_RNvNtNtCshQF7Xon2xxd_10cogni_core5error5testss_22test_result_type_alias
FNDA:1,_RNvNtNtCshQF7Xon2xxd_10cogni_core5error5testss_23test_error_debug_format
FNDA:1,_RNvNtNtCshQF7Xon2xxd_10cogni_core5error5testss_23test_error_is_send_sync
FNDA:1,_RNvNtNtCshQF7Xon2xxd_10cogni_core5error5testss_24test_error_from_io_error
FNDA:1,_RNvNtNtCshQF7Xon2xxd_10cogni_core5error5testss_24test_nested_error_source
FNDA:1,_RNvNtNtCshQF7Xon2xxd_10cogni_core5error5testss_32test_error_from_serde_json_error
FNDA:1,_RNvNtNtCshQF7Xon2xxd_10cogni_core5error5testss_36test_provider_error_with_retry_after
FNDA:1,_RNvNvNtNtCshQF7Xon2xxd_10cogni_core5error5testss_22test_result_type_alias13test_function
FNDA:1,_RNvNvNtNtCshQF7Xon2xxd_10cogni_core5error5testss_22test_result_type_alias16failing_function
FNDA:11,_RNvXNtCsagf8dG4onv5_10cogni_core5errorNtB2_5ErrorNtNtCsfvfooZQ3Axs_4core3fmt7Display3fmt
FNDA:0,_RNvXs0_NtCsagf8dG4onv5_10cogni_core5errorNtB5_5ErrorINtNtCsfvfooZQ3Axs_4core7convert4FromNtNtNtCscOYdFFY2T5N_3std2io5error5ErrorE4from
FNDA:0,_RNvXs1_NtCsagf8dG4onv5_10cogni_core5errorNtB5_5ErrorINtNtCsfvfooZQ3Axs_4core7convert4FromNtNtCsjzYHKjXEdum_10serde_json5error5ErrorE4from
FNDA:0,_RNvXs_NtCsagf8dG4onv5_10cogni_core5errorNtB4_5ErrorNtNtCsfvfooZQ3Axs_4core5error5Error6source
FNF:18
FNH:18
DA:65,23
DA:66,23
DA:67,8
DA:69,3
DA:70,3
DA:71,3
DA:73,1
DA:74,2
DA:75,1
DA:76,3
DA:77,1
DA:78,1
DA:79,2
DA:80,1
DA:82,23
DA:86,6
DA:87,6
DA:88,2
DA:89,1
DA:90,4
DA:91,4
DA:92,4
DA:93,2
DA:95,6
DA:103,2
DA:104,2
DA:105,2
DA:106,2
DA:107,2
DA:108,2
DA:112,1
DA:113,1
DA:114,1
DA:115,1
DA:116,1
DA:117,1
DA:126,1
DA:127,1
DA:128,1
DA:129,1
DA:130,1
DA:131,1
DA:133,1
DA:134,1
DA:135,1
DA:136,1
DA:137,1
DA:138,1
DA:139,1
DA:140,1
DA:141,1
DA:142,1
DA:144,1
DA:145,1
DA:146,1
DA:147,1
DA:148,1
DA:150,1
DA:151,1
DA:153,1
DA:154,1
DA:156,1
DA:157,1
DA:159,1
DA:160,1
DA:162,1
DA:163,1
DA:165,1
DA:166,1
DA:168,1
DA:169,1
DA:170,1
DA:171,1
DA:172,1
DA:175,1
DA:176,1
DA:177,1
DA:178,1
DA:179,1
DA:180,1
DA:181,1
DA:184,1
DA:185,1
DA:186,1
DA:187,1
DA:188,1
DA:189,1
DA:192,1
DA:193,1
DA:194,1
DA:195,1
DA:196,1
DA:197,1
DA:198,1
DA:199,1
DA:202,1
DA:203,1
DA:204,1
DA:205,1
DA:206,1
DA:207,1
DA:210,1
DA:211,1
DA:213,1
DA:214,1
DA:215,1
DA:218,1
DA:219,1
DA:220,1
DA:221,1
DA:222,1
DA:223,1
DA:224,1
DA:225,1
DA:227,0
DA:229,1
DA:232,1
DA:233,1
DA:234,1
DA:235,1
DA:236,1
DA:237,1
DA:238,1
DA:239,1
DA:241,0
DA:243,1
DA:246,1
DA:247,1
DA:248,1
DA:249,1
DA:250,1
DA:251,1
DA:252,1
DA:253,1
DA:254,1
DA:255,1
DA:256,1
DA:258,0
DA:260,1
DA:263,1
DA:264,1
DA:265,1
DA:266,1
DA:267,1
DA:268,1
DA:269,1
DA:270,1
DA:271,1
DA:274,1
DA:275,1
DA:276,1
DA:277,1
DA:279,1
DA:280,1
DA:281,1
DA:283,1
DA:284,1
DA:285,1
DA:287,1
DA:288,1
DA:289,1
DA:292,1
DA:293,1
DA:294,1
DA:296,1
DA:297,1
DA:298,1
DA:301,1
DA:302,1
DA:303,1
DA:304,1
DA:305,1
DA:306,1
DA:307,1
DA:308,1
DA:309,1
BRF:0
BRH:0
LF:177
LH:174
end_of_record
SF:/Users/jkh/Code/ai/cogni/cogni-core/src/types/message.rs
FN:77,_RINvMNtNtCsagf8dG4onv5_10cogni_core5types7messageNtB3_7Message4textNtNtCse1nGBsou5OW_5alloc6string6StringECsgyDhXtLpw1x_21agentic_features_test
FN:77,_RINvMNtNtCsagf8dG4onv5_10cogni_core5types7messageNtB3_7Message4textRNtNtCse1nGBsou5OW_5alloc6string6StringECsgyDhXtLpw1x_21agentic_features_test
FN:77,_RINvMNtNtCsagf8dG4onv5_10cogni_core5types7messageNtB3_7Message4textReECsgyDhXtLpw1x_21agentic_features_test
FN:91,_RINvMNtNtCsagf8dG4onv5_10cogni_core5types7messageNtB3_7Message4userNtNtCse1nGBsou5OW_5alloc6string6StringECsgyDhXtLpw1x_21agentic_features_test
FN:91,_RINvMNtNtCsagf8dG4onv5_10cogni_core5types7messageNtB3_7Message4userReECsgyDhXtLpw1x_21agentic_features_test
FN:86,_RINvMNtNtCsagf8dG4onv5_10cogni_core5types7messageNtB3_7Message6systemReECsgyDhXtLpw1x_21agentic_features_test
FN:96,_RINvMNtNtCsagf8dG4onv5_10cogni_core5types7messageNtB3_7Message9assistantNtNtCse1nGBsou5OW_5alloc6string6StringECsgyDhXtLpw1x_21agentic_features_test
FN:96,_RINvMNtNtCsagf8dG4onv5_10cogni_core5types7messageNtB3_7Message9assistantRNtNtCse1nGBsou5OW_5alloc6string6StringECsgyDhXtLpw1x_21agentic_features_test
FN:96,_RINvMNtNtCsagf8dG4onv5_10cogni_core5types7messageNtB3_7Message9assistantReECsgyDhXtLpw1x_21agentic_features_test
FN:77,_RINvMNtNtCsagf8dG4onv5_10cogni_core5types7messageNtB3_7Message4textpEB7_
FN:101,_RINvMNtNtCsagf8dG4onv5_10cogni_core5types7messageNtB3_7Message4toolppEB7_
FN:91,_RINvMNtNtCsagf8dG4onv5_10cogni_core5types7messageNtB3_7Message4userpEB7_
FN:86,_RINvMNtNtCsagf8dG4onv5_10cogni_core5types7messageNtB3_7Message6systempEB7_
FN:96,_RINvMNtNtCsagf8dG4onv5_10cogni_core5types7messageNtB3_7Message9assistantpEB7_
FN:110,_RNvMs_NtNtCsagf8dG4onv5_10cogni_core5types7messageNtB4_7Content7as_text
FN:126,_RNvMs_NtNtCsagf8dG4onv5_10cogni_core5types7messageNtB4_7Content8as_audio
FN:118,_RNvMs_NtNtCsagf8dG4onv5_10cogni_core5types7messageNtB4_7Content8as_image
FN:136,_RNvXs0_NtNtCsagf8dG4onv5_10cogni_core5types7messageNtB5_7ContentINtNtCsfvfooZQ3Axs_4core7convert4FromNtNtCse1nGBsou5OW_5alloc6string6StringE4from
FN:142,_RNvXs1_NtNtCsagf8dG4onv5_10cogni_core5types7messageNtB5_7ContentINtNtCsfvfooZQ3Axs_4core7convert4FromReE4from
FN:77,_RINvMNtNtCsagf8dG4onv5_10cogni_core5types7messageNtB3_7Message4textRNtNtCse1nGBsou5OW_5alloc6string6StringECshZjyUOIHxJx_12cogni_client
FN:77,_RINvMNtNtCsagf8dG4onv5_10cogni_core5types7messageNtB3_7Message4textReECshZjyUOIHxJx_12cogni_client
FN:91,_RINvMNtNtCsagf8dG4onv5_10cogni_core5types7messageNtB3_7Message4userReECshZjyUOIHxJx_12cogni_client
FN:96,_RINvMNtNtCsagf8dG4onv5_10cogni_core5types7messageNtB3_7Message9assistantRNtNtCse1nGBsou5OW_5alloc6string6StringECshZjyUOIHxJx_12cogni_client
FN:77,_RINvMNtNtCsagf8dG4onv5_10cogni_core5types7messageNtB3_7Message4textReECsjRSNOzM2ApR_13cogni_context
FN:91,_RINvMNtNtCsagf8dG4onv5_10cogni_core5types7messageNtB3_7Message4userReECsjRSNOzM2ApR_13cogni_context
FN:86,_RINvMNtNtCsagf8dG4onv5_10cogni_core5types7messageNtB3_7Message6systemReECsjRSNOzM2ApR_13cogni_context
FN:96,_RINvMNtNtCsagf8dG4onv5_10cogni_core5types7messageNtB3_7Message9assistantReECsjRSNOzM2ApR_13cogni_context
FN:101,_RINvMNtNtCshQF7Xon2xxd_10cogni_core5types7messageNtB3_7Message4toolppEB7_
FN:110,_RNvMs_NtNtCshQF7Xon2xxd_10cogni_core5types7messageNtB4_7Content7as_text
FN:126,_RNvMs_NtNtCshQF7Xon2xxd_10cogni_core5types7messageNtB4_7Content8as_audio
FN:118,_RNvMs_NtNtCshQF7Xon2xxd_10cogni_core5types7messageNtB4_7Content8as_image
FN:136,_RNvXs0_NtNtCshQF7Xon2xxd_10cogni_core5types7messageNtB5_7ContentINtNtCsfvfooZQ3Axs_4core7convert4FromNtNtCse1nGBsou5OW_5alloc6string6StringE4from
FN:142,_RNvXs1_NtNtCshQF7Xon2xxd_10cogni_core5types7messageNtB5_7ContentINtNtCsfvfooZQ3Axs_4core7convert4FromReE4from
FN:77,_RINvMNtNtCshQF7Xon2xxd_10cogni_core5types7messageNtB3_7Message4textReEB7_
FN:91,_RINvMNtNtCshQF7Xon2xxd_10cogni_core5types7messageNtB3_7Message4userReEB7_
FN:86,_RINvMNtNtCshQF7Xon2xxd_10cogni_core5types7messageNtB3_7Message6systemReEB7_
FN:96,_RINvMNtNtCshQF7Xon2xxd_10cogni_core5types7messageNtB3_7Message9assistantReEB7_
FN:77,_RINvMNtNtCsagf8dG4onv5_10cogni_core5types7messageNtB3_7Message4textRNtNtCse1nGBsou5OW_5alloc6string6StringECs489t2QWteFi_16cogni_middleware
FN:77,_RINvMNtNtCsagf8dG4onv5_10cogni_core5types7messageNtB3_7Message4textReECs489t2QWteFi_16cogni_middleware
FN:91,_RINvMNtNtCsagf8dG4onv5_10cogni_core5types7messageNtB3_7Message4userReECs489t2QWteFi_16cogni_middleware
FN:96,_RINvMNtNtCsagf8dG4onv5_10cogni_core5types7messageNtB3_7Message9assistantRNtNtCse1nGBsou5OW_5alloc6string6StringECs489t2QWteFi_16cogni_middleware
FN:96,_RINvMNtNtCsagf8dG4onv5_10cogni_core5types7messageNtB3_7Message9assistantReECs489t2QWteFi_16cogni_middleware
FN:77,_RINvMNtNtCsagf8dG4onv5_10cogni_core5types7messageNtB3_7Message4textReECsbPiOgIOhMuC_10core_types
FN:91,_RINvMNtNtCsagf8dG4onv5_10cogni_core5types7messageNtB3_7Message4userReECsbPiOgIOhMuC_10core_types
FN:86,_RINvMNtNtCsagf8dG4onv5_10cogni_core5types7messageNtB3_7Message6systemReECsbPiOgIOhMuC_10core_types
FN:77,_RINvMNtNtCsagf8dG4onv5_10cogni_core5types7messageNtB3_7Message4textReECskDMj0mycnZW_21tool_integration_test
FN:91,_RINvMNtNtCsagf8dG4onv5_10cogni_core5types7messageNtB3_7Message4userReECskDMj0mycnZW_21tool_integration_test
FN:77,_RINvMNtNtCsagf8dG4onv5_10cogni_core5types7messageNtB3_7Message4textReECscJLei9umsYl_19tool_streaming_test
FN:91,_RINvMNtNtCsagf8dG4onv5_10cogni_core5types7messageNtB3_7Message4userReECscJLei9umsYl_19tool_streaming_test
FNDA:20,_RINvMNtNtCsagf8dG4onv5_10cogni_core5types7messageNtB3_7Message4textNtNtCse1nGBsou5OW_5alloc6string6StringECsgyDhXtLpw1x_21agentic_features_test
FNDA:9,_RINvMNtNtCsagf8dG4onv5_10cogni_core5types7messageNtB3_7Message4textRNtNtCse1nGBsou5OW_5alloc6string6StringECsgyDhXtLpw1x_21agentic_features_test
FNDA:22,_RINvMNtNtCsagf8dG4onv5_10cogni_core5types7messageNtB3_7Message4textReECsgyDhXtLpw1x_21agentic_features_test
FNDA:10,_RINvMNtNtCsagf8dG4onv5_10cogni_core5types7messageNtB3_7Message4userNtNtCse1nGBsou5OW_5alloc6string6StringECsgyDhXtLpw1x_21agentic_features_test
FNDA:13,_RINvMNtNtCsagf8dG4onv5_10cogni_core5types7messageNtB3_7Message4userReECsgyDhXtLpw1x_21agentic_features_test
FNDA:5,_RINvMNtNtCsagf8dG4onv5_10cogni_core5types7messageNtB3_7Message6systemReECsgyDhXtLpw1x_21agentic_features_test
FNDA:10,_RINvMNtNtCsagf8dG4onv5_10cogni_core5types7messageNtB3_7Message9assistantNtNtCse1nGBsou5OW_5alloc6string6StringECsgyDhXtLpw1x_21agentic_features_test
FNDA:9,_RINvMNtNtCsagf8dG4onv5_10cogni_core5types7messageNtB3_7Message9assistantRNtNtCse1nGBsou5OW_5alloc6string6StringECsgyDhXtLpw1x_21agentic_features_test
FNDA:4,_RINvMNtNtCsagf8dG4onv5_10cogni_core5types7messageNtB3_7Message9assistantReECsgyDhXtLpw1x_21agentic_features_test
FNDA:0,_RINvMNtNtCsagf8dG4onv5_10cogni_core5types7messageNtB3_7Message4textpEB7_
FNDA:0,_RINvMNtNtCsagf8dG4onv5_10cogni_core5types7messageNtB3_7Message4toolppEB7_
FNDA:0,_RINvMNtNtCsagf8dG4onv5_10cogni_core5types7messageNtB3_7Message4userpEB7_
FNDA:0,_RINvMNtNtCsagf8dG4onv5_10cogni_core5types7messageNtB3_7Message6systempEB7_
FNDA:0,_RINvMNtNtCsagf8dG4onv5_10cogni_core5types7messageNtB3_7Message9assistantpEB7_
FNDA:89,_RNvMs_NtNtCsagf8dG4onv5_10cogni_core5types7messageNtB4_7Content7as_text
FNDA:0,_RNvMs_NtNtCsagf8dG4onv5_10cogni_core5types7messageNtB4_7Content8as_audio
FNDA:0,_RNvMs_NtNtCsagf8dG4onv5_10cogni_core5types7messageNtB4_7Content8as_image
FNDA:12,_RNvXs0_NtNtCsagf8dG4onv5_10cogni_core5types7messageNtB5_7ContentINtNtCsfvfooZQ3Axs_4core7convert4FromNtNtCse1nGBsou5OW_5alloc6string6StringE4from
FNDA:0,_RNvXs1_NtNtCsagf8dG4onv5_10cogni_core5types7messageNtB5_7ContentINtNtCsfvfooZQ3Axs_4core7convert4FromReE4from
FNDA:1,_RINvMNtNtCsagf8dG4onv5_10cogni_core5types7messageNtB3_7Message4textRNtNtCse1nGBsou5OW_5alloc6string6StringECshZjyUOIHxJx_12cogni_client
FNDA:4,_RINvMNtNtCsagf8dG4onv5_10cogni_core5types7messageNtB3_7Message4textReECshZjyUOIHxJx_12cogni_client
FNDA:4,_RINvMNtNtCsagf8dG4onv5_10cogni_core5types7messageNtB3_7Message4userReECshZjyUOIHxJx_12cogni_client
FNDA:1,_RINvMNtNtCsagf8dG4onv5_10cogni_core5types7messageNtB3_7Message9assistantRNtNtCse1nGBsou5OW_5alloc6string6StringECshZjyUOIHxJx_12cogni_client
FNDA:27,_RINvMNtNtCsagf8dG4onv5_10cogni_core5types7messageNtB3_7Message4textReECsjRSNOzM2ApR_13cogni_context
FNDA:14,_RINvMNtNtCsagf8dG4onv5_10cogni_core5types7messageNtB3_7Message4userReECsjRSNOzM2ApR_13cogni_context
FNDA:5,_RINvMNtNtCsagf8dG4onv5_10cogni_core5types7messageNtB3_7Message6systemReECsjRSNOzM2ApR_13cogni_context
FNDA:8,_RINvMNtNtCsagf8dG4onv5_10cogni_core5types7messageNtB3_7Message9assistantReECsjRSNOzM2ApR_13cogni_context
FNDA:0,_RINvMNtNtCshQF7Xon2xxd_10cogni_core5types7messageNtB3_7Message4toolppEB7_
FNDA:0,_RNvMs_NtNtCshQF7Xon2xxd_10cogni_core5types7messageNtB4_7Content7as_text
FNDA:0,_RNvMs_NtNtCshQF7Xon2xxd_10cogni_core5types7messageNtB4_7Content8as_audio
FNDA:0,_RNvMs_NtNtCshQF7Xon2xxd_10cogni_core5types7messageNtB4_7Content8as_image
FNDA:0,_RNvXs0_NtNtCshQF7Xon2xxd_10cogni_core5types7messageNtB5_7ContentINtNtCsfvfooZQ3Axs_4core7convert4FromNtNtCse1nGBsou5OW_5alloc6string6StringE4from
FNDA:0,_RNvXs1_NtNtCshQF7Xon2xxd_10cogni_core5types7messageNtB5_7ContentINtNtCsfvfooZQ3Axs_4core7convert4FromReE4from
FNDA:14,_RINvMNtNtCshQF7Xon2xxd_10cogni_core5types7messageNtB3_7Message4textReEB7_
FNDA:11,_RINvMNtNtCshQF7Xon2xxd_10cogni_core5types7messageNtB3_7Message4userReEB7_
FNDA:2,_RINvMNtNtCshQF7Xon2xxd_10cogni_core5types7messageNtB3_7Message6systemReEB7_
FNDA:1,_RINvMNtNtCshQF7Xon2xxd_10cogni_core5types7messageNtB3_7Message9assistantReEB7_
FNDA:3,_RINvMNtNtCsagf8dG4onv5_10cogni_core5types7messageNtB3_7Message4textRNtNtCse1nGBsou5OW_5alloc6string6StringECs489t2QWteFi_16cogni_middleware
FNDA:70,_RINvMNtNtCsagf8dG4onv5_10cogni_core5types7messageNtB3_7Message4textReECs489t2QWteFi_16cogni_middleware
FNDA:61,_RINvMNtNtCsagf8dG4onv5_10cogni_core5types7messageNtB3_7Message4userReECs489t2QWteFi_16cogni_middleware
FNDA:3,_RINvMNtNtCsagf8dG4onv5_10cogni_core5types7messageNtB3_7Message9assistantRNtNtCse1nGBsou5OW_5alloc6string6StringECs489t2QWteFi_16cogni_middleware
FNDA:9,_RINvMNtNtCsagf8dG4onv5_10cogni_core5types7messageNtB3_7Message9assistantReECs489t2QWteFi_16cogni_middleware
FNDA:3,_RINvMNtNtCsagf8dG4onv5_10cogni_core5types7messageNtB3_7Message4textReECsbPiOgIOhMuC_10core_types
FNDA:2,_RINvMNtNtCsagf8dG4onv5_10cogni_core5types7messageNtB3_7Message4userReECsbPiOgIOhMuC_10core_types
FNDA:1,_RINvMNtNtCsagf8dG4onv5_10cogni_core5types7messageNtB3_7Message6systemReECsbPiOgIOhMuC_10core_types
FNDA:4,_RINvMNtNtCsagf8dG4onv5_10cogni_core5types7messageNtB3_7Message4textReECskDMj0mycnZW_21tool_integration_test
FNDA:4,_RINvMNtNtCsagf8dG4onv5_10cogni_core5types7messageNtB3_7Message4userReECskDMj0mycnZW_21tool_integration_test
FNDA:4,_RINvMNtNtCsagf8dG4onv5_10cogni_core5types7messageNtB3_7Message4textReECscJLei9umsYl_19tool_streaming_test
FNDA:4,_RINvMNtNtCsagf8dG4onv5_10cogni_core5types7messageNtB3_7Message4userReECscJLei9umsYl_19tool_streaming_test
FNF:10
FNH:6
DA:77,181
DA:78,181
DA:79,181
DA:80,181
DA:81,181
DA:82,181
DA:83,181
DA:86,13
DA:87,13
DA:88,13
DA:91,123
DA:92,123
DA:93,123
DA:96,45
DA:97,45
DA:98,45
DA:101,0
DA:102,0
DA:103,0
DA:104,0
DA:105,0
DA:110,89
DA:111,89
DA:112,89
DA:113,0
DA:115,89
DA:118,0
DA:119,0
DA:120,0
DA:121,0
DA:123,0
DA:126,0
DA:127,0
DA:128,0
DA:129,0
DA:131,0
DA:136,12
DA:137,12
DA:138,12
DA:142,0
DA:143,0
DA:144,0
BRF:0
BRH:0
LF:42
LH:23
end_of_record
SF:/Users/jkh/Code/ai/cogni/cogni-core/src/types/request.rs
FN:164,_RINvMs6_NtNtCsagf8dG4onv5_10cogni_core5types7requestNtB6_14RequestBuilder8messagesINtNtCse1nGBsou5OW_5alloc3vec3VecNtNtB8_7message7MessageEECsgyDhXtLpw1x_21agentic_features_test
FN:14,_RINvMNtNtCsagf8dG4onv5_10cogni_core5types7requestNtB3_5Model3newpEB7_
FN:97,_RINvMs4_NtNtCsagf8dG4onv5_10cogni_core5types7requestNtB6_17ParametersBuilder4stopppEBa_
FN:170,_RINvMs6_NtNtCsagf8dG4onv5_10cogni_core5types7requestNtB6_14RequestBuilder5modelpEBa_
FN:164,_RINvMs6_NtNtCsagf8dG4onv5_10cogni_core5types7requestNtB6_14RequestBuilder8messagespEBa_
FN:66,_RNvMs3_NtNtCsagf8dG4onv5_10cogni_core5types7requestNtB5_10Parameters7builder
FN:79,_RNvMs4_NtNtCsagf8dG4onv5_10cogni_core5types7requestNtB5_17ParametersBuilder10max_tokens
FN:85,_RNvMs4_NtNtCsagf8dG4onv5_10cogni_core5types7requestNtB5_17ParametersBuilder11temperature
FN:103,_RNvMs4_NtNtCsagf8dG4onv5_10cogni_core5types7requestNtB5_17ParametersBuilder5build
FN:91,_RNvMs4_NtNtCsagf8dG4onv5_10cogni_core5types7requestNtB5_17ParametersBuilder5top_p
FN:130,_RNvMs5_NtNtCsagf8dG4onv5_10cogni_core5types7requestNtB5_7Request3new
FN:125,_RNvMs5_NtNtCsagf8dG4onv5_10cogni_core5types7requestNtB5_7Request7builder
FN:141,_RNvMs5_NtNtCsagf8dG4onv5_10cogni_core5types7requestNtB5_7Request9has_tools
FN:188,_RNvMs6_NtNtCsagf8dG4onv5_10cogni_core5types7requestNtB5_14RequestBuilder10max_tokens
FN:176,_RNvMs6_NtNtCsagf8dG4onv5_10cogni_core5types7requestNtB5_14RequestBuilder10parameters
FN:182,_RNvMs6_NtNtCsagf8dG4onv5_10cogni_core5types7requestNtB5_14RequestBuilder11temperature
FN:200,_RNvMs6_NtNtCsagf8dG4onv5_10cogni_core5types7requestNtB5_14RequestBuilder15response_format
FN:194,_RNvMs6_NtNtCsagf8dG4onv5_10cogni_core5types7requestNtB5_14RequestBuilder4tool
FN:206,_RNvMs6_NtNtCsagf8dG4onv5_10cogni_core5types7requestNtB5_14RequestBuilder5build
FN:158,_RNvMs6_NtNtCsagf8dG4onv5_10cogni_core5types7requestNtB5_14RequestBuilder7message
FN:217,_RNvMs6_NtNtCsagf8dG4onv5_10cogni_core5types7requestNtB5_14RequestBuilder9try_build
FN:26,_RNvXs0_NtNtCsagf8dG4onv5_10cogni_core5types7requestNtB5_5ModelINtNtCsfvfooZQ3Axs_4core7convert4FromReE4from
FN:32,_RNvXs1_NtNtCsagf8dG4onv5_10cogni_core5types7requestNtB5_5ModelINtNtCsfvfooZQ3Axs_4core7convert4FromNtNtCse1nGBsou5OW_5alloc6string6StringE4from
FN:38,_RNvXs2_NtNtCsagf8dG4onv5_10cogni_core5types7requestNtB5_5ModelNtNtCsfvfooZQ3Axs_4core3fmt7Display3fmt
FN:20,_RNvXs_NtNtCsagf8dG4onv5_10cogni_core5types7requestNtB4_5ModelNtNtCsfvfooZQ3Axs_4core7default7Default7default
FN:66,_RNvMs3_NtNtCshQF7Xon2xxd_10cogni_core5types7requestNtB5_10Parameters7builder
FN:79,_RNvMs4_NtNtCshQF7Xon2xxd_10cogni_core5types7requestNtB5_17ParametersBuilder10max_tokens
FN:85,_RNvMs4_NtNtCshQF7Xon2xxd_10cogni_core5types7requestNtB5_17ParametersBuilder11temperature
FN:103,_RNvMs4_NtNtCshQF7Xon2xxd_10cogni_core5types7requestNtB5_17ParametersBuilder5build
FN:91,_RNvMs4_NtNtCshQF7Xon2xxd_10cogni_core5types7requestNtB5_17ParametersBuilder5top_p
FN:130,_RNvMs5_NtNtCshQF7Xon2xxd_10cogni_core5types7requestNtB5_7Request3new
FN:125,_RNvMs5_NtNtCshQF7Xon2xxd_10cogni_core5types7requestNtB5_7Request7builder
FN:141,_RNvMs5_NtNtCshQF7Xon2xxd_10cogni_core5types7requestNtB5_7Request9has_tools
FN:188,_RNvMs6_NtNtCshQF7Xon2xxd_10cogni_core5types7requestNtB5_14RequestBuilder10max_tokens
FN:176,_RNvMs6_NtNtCshQF7Xon2xxd_10cogni_core5types7requestNtB5_14RequestBuilder10parameters
FN:182,_RNvMs6_NtNtCshQF7Xon2xxd_10cogni_core5types7requestNtB5_14RequestBuilder11temperature
FN:200,_RNvMs6_NtNtCshQF7Xon2xxd_10cogni_core5types7requestNtB5_14RequestBuilder15response_format
FN:194,_RNvMs6_NtNtCshQF7Xon2xxd_10cogni_core5types7requestNtB5_14RequestBuilder4tool
FN:206,_RNvMs6_NtNtCshQF7Xon2xxd_10cogni_core5types7requestNtB5_14RequestBuilder5build
FN:158,_RNvMs6_NtNtCshQF7Xon2xxd_10cogni_core5types7requestNtB5_14RequestBuilder7message
FN:217,_RNvMs6_NtNtCshQF7Xon2xxd_10cogni_core5types7requestNtB5_14RequestBuilder9try_build
FN:26,_RNvXs0_NtNtCshQF7Xon2xxd_10cogni_core5types7requestNtB5_5ModelINtNtCsfvfooZQ3Axs_4core7convert4FromReE4from
FN:32,_RNvXs1_NtNtCshQF7Xon2xxd_10cogni_core5types7requestNtB5_5ModelINtNtCsfvfooZQ3Axs_4core7convert4FromNtNtCse1nGBsou5OW_5alloc6string6StringE4from
FN:38,_RNvXs2_NtNtCshQF7Xon2xxd_10cogni_core5types7requestNtB5_5ModelNtNtCsfvfooZQ3Axs_4core3fmt7Display3fmt
FN:20,_RNvXs_NtNtCshQF7Xon2xxd_10cogni_core5types7requestNtB4_5ModelNtNtCsfvfooZQ3Axs_4core7default7Default7default
FN:303,_RNvNtNtNtCshQF7Xon2xxd_10cogni_core5types7request5testss_16test_request_new
FN:263,_RNvNtNtNtCshQF7Xon2xxd_10cogni_core5types7request5testss_18test_model_default
FN:269,_RNvNtNtNtCshQF7Xon2xxd_10cogni_core5types7request5testss_18test_model_display
FN:473,_RNvNtNtNtCshQF7Xon2xxd_10cogni_core5types7request5testss_18test_request_clone
FN:248,_RNvNtNtNtCshQF7Xon2xxd_10cogni_core5types7request5testss_19test_model_creation
FN:453,_RNvNtNtNtCshQF7Xon2xxd_10cogni_core5types7request5testss_19test_model_equality
FN:318,_RNvNtNtNtCshQF7Xon2xxd_10cogni_core5types7request5testss_22test_request_has_tools
FN:275,_RNvNtNtNtCshQF7Xon2xxd_10cogni_core5types7request5testss_23test_parameters_builder
FN:294,_RNvNtNtNtCshQF7Xon2xxd_10cogni_core5types7request5testss_23test_parameters_default
FN:437,_RNvNtNtNtCshQF7Xon2xxd_10cogni_core5types7request5testss_24test_build_error_display
FN:463,_RNvNtNtNtCshQF7Xon2xxd_10cogni_core5types7request5testss_24test_parameters_equality
FN:335,_RNvNtNtNtCshQF7Xon2xxd_10cogni_core5types7request5testss_26test_request_builder_basic
FN:443,_RNvNtNtNtCshQF7Xon2xxd_10cogni_core5types7request5testss_28test_request_builder_default
FN:383,_RNvNtNtNtCshQF7Xon2xxd_10cogni_core5types7request5testss_31test_request_builder_with_tools
FN:351,_RNvNtNtNtCshQF7Xon2xxd_10cogni_core5types7request5testss_34test_request_builder_with_messages
FN:366,_RNvNtNtNtCshQF7Xon2xxd_10cogni_core5types7request5testss_36test_request_builder_with_parameters
FN:415,_RNvNtNtNtCshQF7Xon2xxd_10cogni_core5types7request5testss_38test_request_builder_try_build_success
FN:403,_RNvNtNtNtCshQF7Xon2xxd_10cogni_core5types7request5testss_41test_request_builder_with_response_format
FN:426,_RNvNtNtNtCshQF7Xon2xxd_10cogni_core5types7request5testss_42test_request_builder_try_build_no_messages
FN:14,_RINvMNtNtCshQF7Xon2xxd_10cogni_core5types7requestNtB3_5Model3newReEB7_
FN:97,_RINvMs4_NtNtCshQF7Xon2xxd_10cogni_core5types7requestNtB6_17ParametersBuilder4stopReINtNtCse1nGBsou5OW_5alloc3vec3VecB1h_EEBa_
FN:170,_RINvMs6_NtNtCshQF7Xon2xxd_10cogni_core5types7requestNtB6_14RequestBuilder5modelReEBa_
FN:164,_RINvMs6_NtNtCshQF7Xon2xxd_10cogni_core5types7requestNtB6_14RequestBuilder8messagesINtNtCse1nGBsou5OW_5alloc3vec3VecNtNtB8_7message7MessageEEBa_
FN:170,_RINvMs6_NtNtCsagf8dG4onv5_10cogni_core5types7requestNtB6_14RequestBuilder5modelNtB6_5ModelECs489t2QWteFi_16cogni_middleware
FN:170,_RINvMs6_NtNtCsagf8dG4onv5_10cogni_core5types7requestNtB6_14RequestBuilder5modelReECsbPiOgIOhMuC_10core_types
FN:170,_RINvMs6_NtNtCsagf8dG4onv5_10cogni_core5types7requestNtB6_14RequestBuilder5modelReECskDMj0mycnZW_21tool_integration_test
FN:170,_RINvMs6_NtNtCsagf8dG4onv5_10cogni_core5types7requestNtB6_14RequestBuilder5modelReECscJLei9umsYl_19tool_streaming_test
FNDA:2,_RINvMs6_NtNtCsagf8dG4onv5_10cogni_core5types7requestNtB6_14RequestBuilder8messagesINtNtCse1nGBsou5OW_5alloc3vec3VecNtNtB8_7message7MessageEECsgyDhXtLpw1x_21agentic_features_test
FNDA:0,_RINvMNtNtCsagf8dG4onv5_10cogni_core5types7requestNtB3_5Model3newpEB7_
FNDA:0,_RINvMs4_NtNtCsagf8dG4onv5_10cogni_core5types7requestNtB6_17ParametersBuilder4stopppEBa_
FNDA:0,_RINvMs6_NtNtCsagf8dG4onv5_10cogni_core5types7requestNtB6_14RequestBuilder5modelpEBa_
FNDA:0,_RINvMs6_NtNtCsagf8dG4onv5_10cogni_core5types7requestNtB6_14RequestBuilder8messagespEBa_
FNDA:0,_RNvMs3_NtNtCsagf8dG4onv5_10cogni_core5types7requestNtB5_10Parameters7builder
FNDA:0,_RNvMs4_NtNtCsagf8dG4onv5_10cogni_core5types7requestNtB5_17ParametersBuilder10max_tokens
FNDA:0,_RNvMs4_NtNtCsagf8dG4onv5_10cogni_core5types7requestNtB5_17ParametersBuilder11temperature
FNDA:0,_RNvMs4_NtNtCsagf8dG4onv5_10cogni_core5types7requestNtB5_17ParametersBuilder5build
FNDA:0,_RNvMs4_NtNtCsagf8dG4onv5_10cogni_core5types7requestNtB5_17ParametersBuilder5top_p
FNDA:0,_RNvMs5_NtNtCsagf8dG4onv5_10cogni_core5types7requestNtB5_7Request3new
FNDA:71,_RNvMs5_NtNtCsagf8dG4onv5_10cogni_core5types7requestNtB5_7Request7builder
FNDA:0,_RNvMs5_NtNtCsagf8dG4onv5_10cogni_core5types7requestNtB5_7Request9has_tools
FNDA:8,_RNvMs6_NtNtCsagf8dG4onv5_10cogni_core5types7requestNtB5_14RequestBuilder10max_tokens
FNDA:0,_RNvMs6_NtNtCsagf8dG4onv5_10cogni_core5types7requestNtB5_14RequestBuilder10parameters
FNDA:1,_RNvMs6_NtNtCsagf8dG4onv5_10cogni_core5types7requestNtB5_14RequestBuilder11temperature
FNDA:2,_RNvMs6_NtNtCsagf8dG4onv5_10cogni_core5types7requestNtB5_14RequestBuilder15response_format
FNDA:12,_RNvMs6_NtNtCsagf8dG4onv5_10cogni_core5types7requestNtB5_14RequestBuilder4tool
FNDA:71,_RNvMs6_NtNtCsagf8dG4onv5_10cogni_core5types7requestNtB5_14RequestBuilder5build
FNDA:80,_RNvMs6_NtNtCsagf8dG4onv5_10cogni_core5types7requestNtB5_14RequestBuilder7message
FNDA:0,_RNvMs6_NtNtCsagf8dG4onv5_10cogni_core5types7requestNtB5_14RequestBuilder9try_build
FNDA:12,_RNvXs0_NtNtCsagf8dG4onv5_10cogni_core5types7requestNtB5_5ModelINtNtCsfvfooZQ3Axs_4core7convert4FromReE4from
FNDA:0,_RNvXs1_NtNtCsagf8dG4onv5_10cogni_core5types7requestNtB5_5ModelINtNtCsfvfooZQ3Axs_4core7convert4FromNtNtCse1nGBsou5OW_5alloc6string6StringE4from
FNDA:20,_RNvXs2_NtNtCsagf8dG4onv5_10cogni_core5types7requestNtB5_5ModelNtNtCsfvfooZQ3Axs_4core3fmt7Display3fmt
FNDA:29,_RNvXs_NtNtCsagf8dG4onv5_10cogni_core5types7requestNtB4_5ModelNtNtCsfvfooZQ3Axs_4core7default7Default7default
FNDA:5,_RNvMs3_NtNtCshQF7Xon2xxd_10cogni_core5types7requestNtB5_10Parameters7builder
FNDA:2,_RNvMs4_NtNtCshQF7Xon2xxd_10cogni_core5types7requestNtB5_17ParametersBuilder10max_tokens
FNDA:5,_RNvMs4_NtNtCshQF7Xon2xxd_10cogni_core5types7requestNtB5_17ParametersBuilder11temperature
FNDA:5,_RNvMs4_NtNtCshQF7Xon2xxd_10cogni_core5types7requestNtB5_17ParametersBuilder5build
FNDA:1,_RNvMs4_NtNtCshQF7Xon2xxd_10cogni_core5types7requestNtB5_17ParametersBuilder5top_p
FNDA:2,_RNvMs5_NtNtCshQF7Xon2xxd_10cogni_core5types7requestNtB5_7Request3new
FNDA:8,_RNvMs5_NtNtCshQF7Xon2xxd_10cogni_core5types7requestNtB5_7Request7builder
FNDA:2,_RNvMs5_NtNtCshQF7Xon2xxd_10cogni_core5types7requestNtB5_7Request9has_tools
FNDA:1,_RNvMs6_NtNtCshQF7Xon2xxd_10cogni_core5types7requestNtB5_14RequestBuilder10max_tokens
FNDA:1,_RNvMs6_NtNtCshQF7Xon2xxd_10cogni_core5types7requestNtB5_14RequestBuilder10parameters
FNDA:3,_RNvMs6_NtNtCshQF7Xon2xxd_10cogni_core5types7requestNtB5_14RequestBuilder11temperature
FNDA:1,_RNvMs6_NtNtCshQF7Xon2xxd_10cogni_core5types7requestNtB5_14RequestBuilder15response_format
FNDA:1,_RNvMs6_NtNtCshQF7Xon2xxd_10cogni_core5types7requestNtB5_14RequestBuilder4tool
FNDA:7,_RNvMs6_NtNtCshQF7Xon2xxd_10cogni_core5types7requestNtB5_14RequestBuilder5build
FNDA:8,_RNvMs6_NtNtCshQF7Xon2xxd_10cogni_core5types7requestNtB5_14RequestBuilder7message
FNDA:2,_RNvMs6_NtNtCshQF7Xon2xxd_10cogni_core5types7requestNtB5_14RequestBuilder9try_build
FNDA:4,_RNvXs0_NtNtCshQF7Xon2xxd_10cogni_core5types7requestNtB5_5ModelINtNtCsfvfooZQ3Axs_4core7convert4FromReE4from
FNDA:1,_RNvXs1_NtNtCshQF7Xon2xxd_10cogni_core5types7requestNtB5_5ModelINtNtCsfvfooZQ3Axs_4core7convert4FromNtNtCse1nGBsou5OW_5alloc6string6StringE4from
FNDA:1,_RNvXs2_NtNtCshQF7Xon2xxd_10cogni_core5types7requestNtB5_5ModelNtNtCsfvfooZQ3Axs_4core3fmt7Display3fmt
FNDA:9,_RNvXs_NtNtCshQF7Xon2xxd_10cogni_core5types7requestNtB4_5ModelNtNtCsfvfooZQ3Axs_4core7default7Default7default
FNDA:1,_RNvNtNtNtCshQF7Xon2xxd_10cogni_core5types7request5testss_16test_request_new
FNDA:1,_RNvNtNtNtCshQF7Xon2xxd_10cogni_core5types7request5testss_18test_model_default
FNDA:1,_RNvNtNtNtCshQF7Xon2xxd_10cogni_core5types7request5testss_18test_model_display
FNDA:1,_RNvNtNtNtCshQF7Xon2xxd_10cogni_core5types7request5testss_18test_request_clone
FNDA:1,_RNvNtNtNtCshQF7Xon2xxd_10cogni_core5types7request5testss_19test_model_creation
FNDA:1,_RNvNtNtNtCshQF7Xon2xxd_10cogni_core5types7request5testss_19test_model_equality
FNDA:1,_RNvNtNtNtCshQF7Xon2xxd_10cogni_core5types7request5testss_22test_request_has_tools
FNDA:1,_RNvNtNtNtCshQF7Xon2xxd_10cogni_core5types7request5testss_23test_parameters_builder
FNDA:1,_RNvNtNtNtCshQF7Xon2xxd_10cogni_core5types7request5testss_23test_parameters_default
FNDA:1,_RNvNtNtNtCshQF7Xon2xxd_10cogni_core5types7request5testss_24test_build_error_display
FNDA:1,_RNvNtNtNtCshQF7Xon2xxd_10cogni_core5types7request5testss_24test_parameters_equality
FNDA:1,_RNvNtNtNtCshQF7Xon2xxd_10cogni_core5types7request5testss_26test_request_builder_basic
FNDA:1,_RNvNtNtNtCshQF7Xon2xxd_10cogni_core5types7request5testss_28test_request_builder_default
FNDA:1,_RNvNtNtNtCshQF7Xon2xxd_10cogni_core5types7request5testss_31test_request_builder_with_tools
FNDA:1,_RNvNtNtNtCshQF7Xon2xxd_10cogni_core5types7request5testss_34test_request_builder_with_messages
FNDA:1,_RNvNtNtNtCshQF7Xon2xxd_10cogni_core5types7request5testss_36test_request_builder_with_parameters
FNDA:1,_RNvNtNtNtCshQF7Xon2xxd_10cogni_core5types7request5testss_38test_request_builder_try_build_success
FNDA:1,_RNvNtNtNtCshQF7Xon2xxd_10cogni_core5types7request5testss_41test_request_builder_with_response_format
FNDA:1,_RNvNtNtNtCshQF7Xon2xxd_10cogni_core5types7request5testss_42test_request_builder_try_build_no_messages
FNDA:1,_RINvMNtNtCshQF7Xon2xxd_10cogni_core5types7requestNtB3_5Model3newReEB7_
FNDA:1,_RINvMs4_NtNtCshQF7Xon2xxd_10cogni_core5types7requestNtB6_17ParametersBuilder4stopReINtNtCse1nGBsou5OW_5alloc3vec3VecB1h_EEBa_
FNDA:2,_RINvMs6_NtNtCshQF7Xon2xxd_10cogni_core5types7requestNtB6_14RequestBuilder5modelReEBa_
FNDA:1,_RINvMs6_NtNtCshQF7Xon2xxd_10cogni_core5types7requestNtB6_14RequestBuilder8messagesINtNtCse1nGBsou5OW_5alloc3vec3VecNtNtB8_7message7MessageEEBa_
FNDA:60,_RINvMs6_NtNtCsagf8dG4onv5_10cogni_core5types7requestNtB6_14RequestBuilder5modelNtB6_5ModelECs489t2QWteFi_16cogni_middleware
FNDA:1,_RINvMs6_NtNtCsagf8dG4onv5_10cogni_core5types7requestNtB6_14RequestBuilder5modelReECsbPiOgIOhMuC_10core_types
FNDA:4,_RINvMs6_NtNtCsagf8dG4onv5_10cogni_core5types7requestNtB6_14RequestBuilder5modelReECskDMj0mycnZW_21tool_integration_test
FNDA:4,_RINvMs6_NtNtCsagf8dG4onv5_10cogni_core5types7requestNtB6_14RequestBuilder5modelReECscJLei9umsYl_19tool_streaming_test
FNF:43
FNH:43
DA:14,1
DA:15,1
DA:16,1
DA:20,38
DA:21,38
DA:22,38
DA:26,16
DA:27,16
DA:28,16
DA:32,1
DA:33,1
DA:34,1
DA:38,21
DA:39,21
DA:40,21
DA:66,5
DA:67,5
DA:68,5
DA:79,2
DA:80,2
DA:81,2
DA:82,2
DA:85,5
DA:86,5
DA:87,5
DA:88,5
DA:91,1
DA:92,1
DA:93,1
DA:94,1
DA:97,1
DA:98,1
DA:99,1
DA:100,1
DA:103,5
DA:104,5
DA:105,5
DA:125,79
DA:126,79
DA:127,79
DA:130,2
DA:131,2
DA:132,2
DA:133,2
DA:134,2
DA:135,2
DA:136,2
DA:137,2
DA:138,2
DA:141,2
DA:142,2
DA:143,2
DA:158,88
DA:159,88
DA:160,88
DA:161,88
DA:164,3
DA:165,3
DA:166,3
DA:167,3
DA:170,71
DA:171,71
DA:172,71
DA:173,71
DA:176,1
DA:177,1
DA:178,1
DA:179,1
DA:182,4
DA:183,4
DA:184,4
DA:185,4
DA:188,9
DA:189,9
DA:190,9
DA:191,9
DA:194,13
DA:195,13
DA:196,13
DA:197,13
DA:200,3
DA:201,3
DA:202,3
DA:203,3
DA:206,78
DA:207,78
DA:208,78
DA:209,78
DA:210,78
DA:211,78
DA:212,78
DA:213,78
DA:214,78
DA:217,2
DA:218,2
DA:219,1
DA:220,1
DA:221,1
DA:222,1
DA:223,1
DA:224,1
DA:225,1
DA:226,1
DA:227,1
DA:228,1
DA:229,2
DA:248,1
DA:249,1
DA:250,1
DA:252,1
DA:253,1
DA:255,1
DA:256,1
DA:258,1
DA:259,1
DA:260,1
DA:263,1
DA:264,1
DA:265,1
DA:266,1
DA:269,1
DA:270,1
DA:271,1
DA:272,1
DA:275,1
DA:276,1
DA:277,1
DA:278,1
DA:279,1
DA:280,1
DA:281,1
DA:282,1
DA:283,1
DA:284,1
DA:285,1
DA:286,1
DA:287,1
DA:288,1
DA:289,1
DA:290,1
DA:291,1
DA:294,1
DA:295,1
DA:296,1
DA:297,1
DA:298,1
DA:299,1
DA:300,1
DA:303,1
DA:304,1
DA:305,1
DA:306,1
DA:307,1
DA:308,1
DA:309,1
DA:310,1
DA:311,1
DA:312,1
DA:313,1
DA:314,1
DA:315,1
DA:318,1
DA:319,1
DA:320,1
DA:322,1
DA:323,1
DA:324,1
DA:325,1
DA:326,1
DA:327,1
DA:328,1
DA:329,1
DA:330,1
DA:331,1
DA:332,1
DA:335,1
DA:336,1
DA:337,1
DA:338,1
DA:339,1
DA:340,1
DA:341,1
DA:342,1
DA:343,1
DA:344,1
DA:345,1
DA:346,1
DA:347,1
DA:348,1
DA:351,1
DA:352,1
DA:353,1
DA:354,1
DA:355,1
DA:356,1
DA:357,1
DA:358,1
DA:359,1
DA:360,1
DA:361,1
DA:362,1
DA:363,1
DA:366,1
DA:367,1
DA:368,1
DA:369,1
DA:370,1
DA:371,1
DA:372,1
DA:373,1
DA:374,1
DA:375,1
DA:376,1
DA:377,1
DA:378,1
DA:379,1
DA:380,1
DA:383,1
DA:384,1
DA:385,1
DA:386,1
DA:387,1
DA:388,1
DA:389,1
DA:390,1
DA:391,1
DA:392,1
DA:393,1
DA:394,1
DA:395,1
DA:396,1
DA:397,1
DA:398,1
DA:399,1
DA:400,1
DA:403,1
DA:404,1
DA:405,1
DA:406,1
DA:407,1
DA:408,1
DA:409,1
DA:410,1
DA:411,1
DA:412,1
DA:415,1
DA:416,1
DA:417,1
DA:418,1
DA:419,1
DA:420,1
DA:421,1
DA:422,1
DA:423,1
DA:426,1
DA:427,1
DA:428,1
DA:429,1
DA:430,1
DA:431,1
DA:432,0
DA:434,1
DA:437,1
DA:438,1
DA:439,1
DA:440,1
DA:443,1
DA:444,1
DA:445,1
DA:446,1
DA:447,1
DA:448,1
DA:449,1
DA:450,1
DA:453,1
DA:454,1
DA:455,1
DA:456,1
DA:457,1
DA:458,1
DA:459,1
DA:460,1
DA:463,1
DA:464,1
DA:465,1
DA:466,1
DA:467,1
DA:468,1
DA:469,1
DA:470,1
DA:473,1
DA:474,1
DA:475,1
DA:476,1
DA:477,1
DA:478,1
DA:479,1
DA:480,1
DA:481,1
DA:482,1
BRF:0
BRH:0
LF:300
LH:299
end_of_record
SF:/Users/jkh/Code/ai/cogni/cogni-core/src/types/response.rs
FN:78,_RINvMNtNtCsagf8dG4onv5_10cogni_core5types8responseNtB3_8Response16parse_structuredNtCsgyDhXtLpw1x_21agentic_features_test12TestAnalysisEB1k_
FN:82,_RNCINvMNtNtCsagf8dG4onv5_10cogni_core5types8responseNtB5_8Response16parse_structuredNtCsgyDhXtLpw1x_21agentic_features_test12TestAnalysisE0B1m_
FN:78,_RINvMNtNtCsagf8dG4onv5_10cogni_core5types8responseNtB3_8Response16parse_structuredpEB7_
FN:64,_RINvMNtNtCsagf8dG4onv5_10cogni_core5types8responseNtB3_8Response4textpEB7_
FN:82,_RNCINvMNtNtCsagf8dG4onv5_10cogni_core5types8responseNtB5_8Response16parse_structuredpE0B9_
FN:78,_RINvMNtNtCshQF7Xon2xxd_10cogni_core5types8responseNtB3_8Response16parse_structuredpEB7_
FN:64,_RINvMNtNtCshQF7Xon2xxd_10cogni_core5types8responseNtB3_8Response4textpEB7_
FN:82,_RNCINvMNtNtCshQF7Xon2xxd_10cogni_core5types8responseNtB5_8Response16parse_structuredpE0B9_
FN:94,_RNCNvMNtNtCshQF7Xon2xxd_10cogni_core5types8responseNtB4_8Response10parse_json0B8_
FN:93,_RNvMNtNtCshQF7Xon2xxd_10cogni_core5types8responseNtB2_8Response10parse_json
FN:73,_RNvMNtNtCshQF7Xon2xxd_10cogni_core5types8responseNtB2_8Response14has_tool_calls
FN:111,_RNvXs0_NtNtCshQF7Xon2xxd_10cogni_core5types8responseNtB5_12FinishReasonNtNtCsfvfooZQ3Axs_4core3fmt7Display3fmt
FN:123,_RNvXs1_NtNtCshQF7Xon2xxd_10cogni_core5types8responseNtB5_5UsageNtNtCsfvfooZQ3Axs_4core3fmt7Display3fmt
FN:101,_RNvXs_NtNtCshQF7Xon2xxd_10cogni_core5types8responseNtB4_8ResponseNtNtCsfvfooZQ3Axs_4core3fmt7Display3fmt
FN:78,_RINvMNtNtCsagf8dG4onv5_10cogni_core5types8responseNtB3_8Response16parse_structuredNtCsQadenfUz7B_22structured_output_test13TestStructureEB1k_
FN:82,_RNCINvMNtNtCsagf8dG4onv5_10cogni_core5types8responseNtB5_8Response16parse_structuredNtCsQadenfUz7B_22structured_output_test13TestStructureE0B1m_
FN:93,_RNvMNtNtCsagf8dG4onv5_10cogni_core5types8responseNtB2_8Response10parse_json
FN:73,_RNvMNtNtCsagf8dG4onv5_10cogni_core5types8responseNtB2_8Response14has_tool_calls
FN:111,_RNvXs0_NtNtCsagf8dG4onv5_10cogni_core5types8responseNtB5_12FinishReasonNtNtCsfvfooZQ3Axs_4core3fmt7Display3fmt
FN:123,_RNvXs1_NtNtCsagf8dG4onv5_10cogni_core5types8responseNtB5_5UsageNtNtCsfvfooZQ3Axs_4core3fmt7Display3fmt
FN:101,_RNvXs_NtNtCsagf8dG4onv5_10cogni_core5types8responseNtB4_8ResponseNtNtCsfvfooZQ3Axs_4core3fmt7Display3fmt
FN:94,_RNCNvMNtNtCsagf8dG4onv5_10cogni_core5types8responseNtB4_8Response10parse_json0B8_
FNDA:2,_RINvMNtNtCsagf8dG4onv5_10cogni_core5types8responseNtB3_8Response16parse_structuredNtCsgyDhXtLpw1x_21agentic_features_test12TestAnalysisEB1k_
FNDA:0,_RNCINvMNtNtCsagf8dG4onv5_10cogni_core5types8responseNtB5_8Response16parse_structuredNtCsgyDhXtLpw1x_21agentic_features_test12TestAnalysisE0B1m_
FNDA:0,_RINvMNtNtCsagf8dG4onv5_10cogni_core5types8responseNtB3_8Response16parse_structuredpEB7_
FNDA:0,_RINvMNtNtCsagf8dG4onv5_10cogni_core5types8responseNtB3_8Response4textpEB7_
FNDA:0,_RNCINvMNtNtCsagf8dG4onv5_10cogni_core5types8responseNtB5_8Response16parse_structuredpE0B9_
FNDA:0,_RINvMNtNtCshQF7Xon2xxd_10cogni_core5types8responseNtB3_8Response16parse_structuredpEB7_
FNDA:0,_RINvMNtNtCshQF7Xon2xxd_10cogni_core5types8responseNtB3_8Response4textpEB7_
FNDA:0,_RNCINvMNtNtCshQF7Xon2xxd_10cogni_core5types8responseNtB5_8Response16parse_structuredpE0B9_
FNDA:0,_RNCNvMNtNtCshQF7Xon2xxd_10cogni_core5types8responseNtB4_8Response10parse_json0B8_
FNDA:0,_RNvMNtNtCshQF7Xon2xxd_10cogni_core5types8responseNtB2_8Response10parse_json
FNDA:0,_RNvMNtNtCshQF7Xon2xxd_10cogni_core5types8responseNtB2_8Response14has_tool_calls
FNDA:0,_RNvXs0_NtNtCshQF7Xon2xxd_10cogni_core5types8responseNtB5_12FinishReasonNtNtCsfvfooZQ3Axs_4core3fmt7Display3fmt
FNDA:0,_RNvXs1_NtNtCshQF7Xon2xxd_10cogni_core5types8responseNtB5_5UsageNtNtCsfvfooZQ3Axs_4core3fmt7Display3fmt
FNDA:0,_RNvXs_NtNtCshQF7Xon2xxd_10cogni_core5types8responseNtB4_8ResponseNtNtCsfvfooZQ3Axs_4core3fmt7Display3fmt
FNDA:3,_RINvMNtNtCsagf8dG4onv5_10cogni_core5types8responseNtB3_8Response16parse_structuredNtCsQadenfUz7B_22structured_output_test13TestStructureEB1k_
FNDA:1,_RNCINvMNtNtCsagf8dG4onv5_10cogni_core5types8responseNtB5_8Response16parse_structuredNtCsQadenfUz7B_22structured_output_test13TestStructureE0B1m_
FNDA:3,_RNvMNtNtCsagf8dG4onv5_10cogni_core5types8responseNtB2_8Response10parse_json
FNDA:0,_RNvMNtNtCsagf8dG4onv5_10cogni_core5types8responseNtB2_8Response14has_tool_calls
FNDA:0,_RNvXs0_NtNtCsagf8dG4onv5_10cogni_core5types8responseNtB5_12FinishReasonNtNtCsfvfooZQ3Axs_4core3fmt7Display3fmt
FNDA:0,_RNvXs1_NtNtCsagf8dG4onv5_10cogni_core5types8responseNtB5_5UsageNtNtCsfvfooZQ3Axs_4core3fmt7Display3fmt
FNDA:0,_RNvXs_NtNtCsagf8dG4onv5_10cogni_core5types8responseNtB4_8ResponseNtNtCsfvfooZQ3Axs_4core3fmt7Display3fmt
FNDA:1,_RNCNvMNtNtCsagf8dG4onv5_10cogni_core5types8responseNtB4_8Response10parse_json0B8_
FNF:9
FNH:4
DA:64,0
DA:65,0
DA:66,0
DA:67,0
DA:68,0
DA:69,0
DA:70,0
DA:73,0
DA:74,0
DA:75,0
DA:78,5
DA:79,5
DA:80,5
DA:81,5
DA:82,5
DA:83,1
DA:84,5
DA:89,4
DA:90,5
DA:93,3
DA:94,3
DA:95,1
DA:96,3
DA:97,3
DA:101,0
DA:102,0
DA:103,0
DA:104,0
DA:105,0
DA:106,0
DA:107,0
DA:111,0
DA:112,0
DA:113,0
DA:114,0
DA:115,0
DA:116,0
DA:117,0
DA:119,0
DA:123,0
DA:124,0
DA:125,0
DA:126,0
DA:127,0
DA:128,0
DA:129,0
BRF:0
BRH:0
LF:50
LH:18
end_of_record
SF:/Users/jkh/Code/ai/cogni/cogni-core/src/types/stream.rs
FN:111,_RNCNvMNtNtCsagf8dG4onv5_10cogni_core5types6streamNtB4_17StreamAccumulator10tool_calls0B8_
FN:112,_RNCNvMNtNtCsagf8dG4onv5_10cogni_core5types6streamNtB4_17StreamAccumulator10tool_callss_0B8_
FN:111,_RNCNvMNtNtCshQF7Xon2xxd_10cogni_core5types6streamNtB4_17StreamAccumulator10tool_calls0B8_
FN:112,_RNCNvMNtNtCshQF7Xon2xxd_10cogni_core5types6streamNtB4_17StreamAccumulator10tool_callss_0B8_
FN:108,_RNvMNtNtCshQF7Xon2xxd_10cogni_core5types6streamNtB2_17StreamAccumulator10tool_calls
FN:72,_RNvMNtNtCshQF7Xon2xxd_10cogni_core5types6streamNtB2_17StreamAccumulator13process_event
FN:67,_RNvMNtNtCshQF7Xon2xxd_10cogni_core5types6streamNtB2_17StreamAccumulator3new
FN:103,_RNvMNtNtCshQF7Xon2xxd_10cogni_core5types6streamNtB2_17StreamAccumulator7content
FN:108,_RNvMNtNtCsagf8dG4onv5_10cogni_core5types6streamNtB2_17StreamAccumulator10tool_calls
FN:72,_RNvMNtNtCsagf8dG4onv5_10cogni_core5types6streamNtB2_17StreamAccumulator13process_event
FN:67,_RNvMNtNtCsagf8dG4onv5_10cogni_core5types6streamNtB2_17StreamAccumulator3new
FN:103,_RNvMNtNtCsagf8dG4onv5_10cogni_core5types6streamNtB2_17StreamAccumulator7content
FNDA:4,_RNCNvMNtNtCsagf8dG4onv5_10cogni_core5types6streamNtB4_17StreamAccumulator10tool_calls0B8_
FNDA:3,_RNCNvMNtNtCsagf8dG4onv5_10cogni_core5types6streamNtB4_17StreamAccumulator10tool_callss_0B8_
FNDA:0,_RNCNvMNtNtCshQF7Xon2xxd_10cogni_core5types6streamNtB4_17StreamAccumulator10tool_calls0B8_
FNDA:0,_RNCNvMNtNtCshQF7Xon2xxd_10cogni_core5types6streamNtB4_17StreamAccumulator10tool_callss_0B8_
FNDA:0,_RNvMNtNtCshQF7Xon2xxd_10cogni_core5types6streamNtB2_17StreamAccumulator10tool_calls
FNDA:0,_RNvMNtNtCshQF7Xon2xxd_10cogni_core5types6streamNtB2_17StreamAccumulator13process_event
FNDA:0,_RNvMNtNtCshQF7Xon2xxd_10cogni_core5types6streamNtB2_17StreamAccumulator3new
FNDA:0,_RNvMNtNtCshQF7Xon2xxd_10cogni_core5types6streamNtB2_17StreamAccumulator7content
FNDA:3,_RNvMNtNtCsagf8dG4onv5_10cogni_core5types6streamNtB2_17StreamAccumulator10tool_calls
FNDA:52,_RNvMNtNtCsagf8dG4onv5_10cogni_core5types6streamNtB2_17StreamAccumulator13process_event
FNDA:3,_RNvMNtNtCsagf8dG4onv5_10cogni_core5types6streamNtB2_17StreamAccumulator3new
FNDA:3,_RNvMNtNtCsagf8dG4onv5_10cogni_core5types6streamNtB2_17StreamAccumulator7content
FNF:6
FNH:6
DA:67,3
DA:68,3
DA:69,3
DA:72,52
DA:73,52
DA:74,0
DA:75,0
DA:76,0
DA:77,51
DA:79,55
DA:80,4
DA:81,4
DA:83,51
DA:84,51
DA:85,3
DA:86,48
DA:87,51
DA:88,3
DA:89,48
DA:90,51
DA:91,51
DA:92,51
DA:94,1
DA:95,1
DA:96,1
DA:97,0
DA:99,52
DA:100,52
DA:103,3
DA:104,3
DA:105,3
DA:108,3
DA:109,3
DA:110,3
DA:111,4
DA:112,3
DA:113,3
DA:114,3
DA:115,3
DA:116,3
DA:117,3
DA:118,3
BRF:0
BRH:0
LF:45
LH:41
end_of_record
SF:/Users/jkh/Code/ai/cogni/cogni-core/src/types/structured.rs
FN:21,_RNvYpNtNtNtCsagf8dG4onv5_10cogni_core5types10structured16StructuredOutput8examplesB9_
FN:21,_RNvYNtNvNtNtNtCshQF7Xon2xxd_10cogni_core5types10structured5testss_39test_structured_output_default_examples13MinimalStructNtB8_16StructuredOutput8examplesBc_
FN:148,_RINvXNvNtNtNtCshQF7Xon2xxd_10cogni_core5types10structured5testss_39test_structured_output_default_examplesNtB3_13MinimalStructNtNtCs1l8fxWxookH_5serde3ser9Serialize9serializepEBb_
FN:157,_RINvXs_NvNtNtNtCshQF7Xon2xxd_10cogni_core5types10structured5testss_39test_structured_output_default_examplesNtB5_13MinimalStructNtNtCs1l8fxWxookH_5serde2de11Deserialize11deserializepEBd_
FN:166,_RNvXs0_NvNtNtNtCshQF7Xon2xxd_10cogni_core5types10structured5testss_39test_structured_output_default_examplesNtB5_13MinimalStructNtB9_16StructuredOutput6schema
FN:176,_RNvNtNtNtCshQF7Xon2xxd_10cogni_core5types10structured5testss_26test_response_format_clone
FN:186,_RNvNtNtNtCshQF7Xon2xxd_10cogni_core5types10structured5testss_26test_response_format_debug
FN:83,_RNvNtNtNtCshQF7Xon2xxd_10cogni_core5types10structured5testss_28test_response_format_default
FN:128,_RNvNtNtNtCshQF7Xon2xxd_10cogni_core5types10structured5testss_28test_structured_output_trait
FN:89,_RNvNtNtNtCshQF7Xon2xxd_10cogni_core5types10structured5testss_32test_response_format_json_schema
FN:112,_RNvNtNtNtCshQF7Xon2xxd_10cogni_core5types10structured5testss_34test_response_format_serialization
FN:144,_RNvNtNtNtCshQF7Xon2xxd_10cogni_core5types10structured5testss_39test_structured_output_default_examples
FN:54,_RNvXNtNtNtCshQF7Xon2xxd_10cogni_core5types10structured5testsNtB2_10TestStructNtB4_16StructuredOutput6schema
FN:66,_RNvXNtNtNtCshQF7Xon2xxd_10cogni_core5types10structured5testsNtB2_10TestStructNtB4_16StructuredOutput8examples
FNDA:0,_RNvYpNtNtNtCsagf8dG4onv5_10cogni_core5types10structured16StructuredOutput8examplesB9_
FNDA:1,_RNvYNtNvNtNtNtCshQF7Xon2xxd_10cogni_core5types10structured5testss_39test_structured_output_default_examples13MinimalStructNtB8_16StructuredOutput8examplesBc_
FNDA:0,_RINvXNvNtNtNtCshQF7Xon2xxd_10cogni_core5types10structured5testss_39test_structured_output_default_examplesNtB3_13MinimalStructNtNtCs1l8fxWxookH_5serde3ser9Serialize9serializepEBb_
FNDA:0,_RINvXs_NvNtNtNtCshQF7Xon2xxd_10cogni_core5types10structured5testss_39test_structured_output_default_examplesNtB5_13MinimalStructNtNtCs1l8fxWxookH_5serde2de11Deserialize11deserializepEBd_
FNDA:0,_RNvXs0_NvNtNtNtCshQF7Xon2xxd_10cogni_core5types10structured5testss_39test_structured_output_default_examplesNtB5_13MinimalStructNtB9_16StructuredOutput6schema
FNDA:1,_RNvNtNtNtCshQF7Xon2xxd_10cogni_core5types10structured5testss_26test_response_format_clone
FNDA:1,_RNvNtNtNtCshQF7Xon2xxd_10cogni_core5types10structured5testss_26test_response_format_debug
FNDA:1,_RNvNtNtNtCshQF7Xon2xxd_10cogni_core5types10structured5testss_28test_response_format_default
FNDA:1,_RNvNtNtNtCshQF7Xon2xxd_10cogni_core5types10structured5testss_28test_structured_output_trait
FNDA:1,_RNvNtNtNtCshQF7Xon2xxd_10cogni_core5types10structured5testss_32test_response_format_json_schema
FNDA:1,_RNvNtNtNtCshQF7Xon2xxd_10cogni_core5types10structured5testss_34test_response_format_serialization
FNDA:1,_RNvNtNtNtCshQF7Xon2xxd_10cogni_core5types10structured5testss_39test_structured_output_default_examples
FNDA:1,_RNvXNtNtNtCshQF7Xon2xxd_10cogni_core5types10structured5testsNtB2_10TestStructNtB4_16StructuredOutput6schema
FNDA:1,_RNvXNtNtNtCshQF7Xon2xxd_10cogni_core5types10structured5testsNtB2_10TestStructNtB4_16StructuredOutput8examples
FNF:13
FNH:10
DA:21,1
DA:22,1
DA:23,1
DA:54,1
DA:55,1
DA:56,1
DA:57,1
DA:58,1
DA:59,1
DA:60,1
DA:61,1
DA:62,1
DA:63,1
DA:64,1
DA:66,1
DA:67,1
DA:68,1
DA:69,1
DA:70,1
DA:71,1
DA:72,1
DA:73,1
DA:74,1
DA:75,1
DA:76,1
DA:77,1
DA:78,1
DA:79,1
DA:83,1
DA:84,1
DA:85,1
DA:86,1
DA:89,1
DA:90,1
DA:91,1
DA:92,1
DA:93,1
DA:94,1
DA:95,1
DA:96,1
DA:97,1
DA:98,1
DA:99,1
DA:100,1
DA:101,1
DA:102,1
DA:103,1
DA:104,1
DA:105,1
DA:107,0
DA:109,1
DA:112,1
DA:113,1
DA:114,1
DA:115,1
DA:116,1
DA:118,1
DA:119,1
DA:120,1
DA:121,1
DA:122,1
DA:123,1
DA:124,1
DA:125,1
DA:128,1
DA:129,1
DA:130,1
DA:131,1
DA:132,1
DA:133,1
DA:134,1
DA:135,1
DA:137,1
DA:138,1
DA:139,1
DA:140,1
DA:141,1
DA:144,1
DA:148,0
DA:149,0
DA:150,0
DA:151,0
DA:152,0
DA:153,0
DA:157,0
DA:158,0
DA:159,0
DA:160,0
DA:161,0
DA:162,0
DA:166,0
DA:167,0
DA:168,0
DA:171,1
DA:172,1
DA:173,1
DA:176,1
DA:177,1
DA:178,1
DA:179,1
DA:180,1
DA:181,1
DA:182,1
DA:183,1
DA:186,1
DA:187,1
DA:188,1
DA:189,1
DA:191,1
DA:192,1
DA:193,1
DA:194,1
DA:195,1
DA:196,1
DA:197,1
DA:198,1
BRF:0
BRH:0
LF:116
LH:100
end_of_record
SF:/Users/jkh/Code/ai/cogni/cogni-core/src/types/tool.rs
FN:75,_RINvMs_NtNtCsagf8dG4onv5_10cogni_core5types4toolNtB5_10ToolResult5errorppEB9_
FN:66,_RINvMs_NtNtCsagf8dG4onv5_10cogni_core5types4toolNtB5_10ToolResult7successppEB9_
FN:37,_RNvXNtNtCshQF7Xon2xxd_10cogni_core5types4toolNtB2_10ToolChoiceNtNtCsfvfooZQ3Axs_4core7default7Default7default
FN:180,_RNvNtNtNtCshQF7Xon2xxd_10cogni_core5types4tool5testss_15test_tool_clone
FN:90,_RNvNtNtNtCshQF7Xon2xxd_10cogni_core5types4tool5testss_18test_tool_creation
FN:210,_RNvNtNtNtCshQF7Xon2xxd_10cogni_core5types4tool5testss_20test_tool_call_clone
FN:195,_RNvNtNtNtCshQF7Xon2xxd_10cogni_core5types4tool5testss_22test_tool_choice_clone
FN:222,_RNvNtNtNtCshQF7Xon2xxd_10cogni_core5types4tool5testss_22test_tool_result_clone
FN:171,_RNvNtNtNtCshQF7Xon2xxd_10cogni_core5types4tool5testss_22test_tool_result_error
FN:149,_RNvNtNtNtCshQF7Xon2xxd_10cogni_core5types4tool5testss_23test_tool_call_creation
FN:143,_RNvNtNtNtCshQF7Xon2xxd_10cogni_core5types4tool5testss_24test_tool_choice_default
FN:162,_RNvNtNtNtCshQF7Xon2xxd_10cogni_core5types4tool5testss_24test_tool_result_success
FN:125,_RNvNtNtNtCshQF7Xon2xxd_10cogni_core5types4tool5testss_25test_tool_choice_variants
FN:229,_RNvNtNtNtCshQF7Xon2xxd_10cogni_core5types4tool5testss_26test_debug_implementations
FN:115,_RNvNtNtNtCshQF7Xon2xxd_10cogni_core5types4tool5testss_29test_function_without_returns
FN:75,_RINvMs_NtNtCshQF7Xon2xxd_10cogni_core5types4toolNtB5_10ToolResult5errorReB17_EB9_
FN:66,_RINvMs_NtNtCshQF7Xon2xxd_10cogni_core5types4toolNtB5_10ToolResult7successReB19_EB9_
FNDA:0,_RINvMs_NtNtCsagf8dG4onv5_10cogni_core5types4toolNtB5_10ToolResult5errorppEB9_
FNDA:0,_RINvMs_NtNtCsagf8dG4onv5_10cogni_core5types4toolNtB5_10ToolResult7successppEB9_
FNDA:1,_RNvXNtNtCshQF7Xon2xxd_10cogni_core5types4toolNtB2_10ToolChoiceNtNtCsfvfooZQ3Axs_4core7default7Default7default
FNDA:1,_RNvNtNtNtCshQF7Xon2xxd_10cogni_core5types4tool5testss_15test_tool_clone
FNDA:1,_RNvNtNtNtCshQF7Xon2xxd_10cogni_core5types4tool5testss_18test_tool_creation
FNDA:1,_RNvNtNtNtCshQF7Xon2xxd_10cogni_core5types4tool5testss_20test_tool_call_clone
FNDA:1,_RNvNtNtNtCshQF7Xon2xxd_10cogni_core5types4tool5testss_22test_tool_choice_clone
FNDA:1,_RNvNtNtNtCshQF7Xon2xxd_10cogni_core5types4tool5testss_22test_tool_result_clone
FNDA:1,_RNvNtNtNtCshQF7Xon2xxd_10cogni_core5types4tool5testss_22test_tool_result_error
FNDA:1,_RNvNtNtNtCshQF7Xon2xxd_10cogni_core5types4tool5testss_23test_tool_call_creation
FNDA:1,_RNvNtNtNtCshQF7Xon2xxd_10cogni_core5types4tool5testss_24test_tool_choice_default
FNDA:1,_RNvNtNtNtCshQF7Xon2xxd_10cogni_core5types4tool5testss_24test_tool_result_success
FNDA:1,_RNvNtNtNtCshQF7Xon2xxd_10cogni_core5types4tool5testss_25test_tool_choice_variants
FNDA:1,_RNvNtNtNtCshQF7Xon2xxd_10cogni_core5types4tool5testss_26test_debug_implementations
FNDA:1,_RNvNtNtNtCshQF7Xon2xxd_10cogni_core5types4tool5testss_29test_function_without_returns
FNDA:1,_RINvMs_NtNtCshQF7Xon2xxd_10cogni_core5types4toolNtB5_10ToolResult5errorReB17_EB9_
FNDA:3,_RINvMs_NtNtCshQF7Xon2xxd_10cogni_core5types4toolNtB5_10ToolResult7successReB19_EB9_
FNF:15
FNH:15
DA:37,1
DA:38,1
DA:39,1
DA:66,3
DA:67,3
DA:68,3
DA:69,3
DA:70,3
DA:71,3
DA:72,3
DA:75,1
DA:76,1
DA:77,1
DA:78,1
DA:79,1
DA:80,1
DA:81,1
DA:90,1
DA:91,1
DA:92,1
DA:93,1
DA:94,1
DA:95,1
DA:96,1
DA:97,1
DA:98,1
DA:99,1
DA:100,1
DA:101,1
DA:102,1
DA:103,1
DA:104,1
DA:105,1
DA:106,1
DA:107,1
DA:108,1
DA:109,1
DA:110,1
DA:111,1
DA:112,1
DA:115,1
DA:116,1
DA:117,1
DA:118,1
DA:119,1
DA:120,1
DA:121,1
DA:122,1
DA:125,1
DA:126,1
DA:127,1
DA:129,1
DA:130,1
DA:132,1
DA:133,1
DA:135,1
DA:136,1
DA:137,1
DA:138,0
DA:140,1
DA:143,1
DA:144,1
DA:145,1
DA:146,1
DA:149,1
DA:150,1
DA:151,1
DA:152,1
DA:153,1
DA:154,1
DA:155,1
DA:156,1
DA:157,1
DA:158,1
DA:159,1
DA:162,1
DA:163,1
DA:164,1
DA:165,1
DA:166,1
DA:167,1
DA:168,1
DA:171,1
DA:172,1
DA:173,1
DA:174,1
DA:175,1
DA:176,1
DA:177,1
DA:180,1
DA:181,1
DA:182,1
DA:183,1
DA:184,1
DA:185,1
DA:186,1
DA:187,1
DA:188,1
DA:189,1
DA:190,1
DA:191,1
DA:192,1
DA:195,1
DA:196,1
DA:197,1
DA:198,1
DA:199,1
DA:200,1
DA:201,1
DA:203,5
DA:204,4
DA:205,4
DA:207,1
DA:210,1
DA:211,1
DA:212,1
DA:213,1
DA:214,1
DA:215,1
DA:216,1
DA:217,1
DA:218,1
DA:219,1
DA:222,1
DA:223,1
DA:224,1
DA:225,1
DA:226,1
DA:229,1
DA:230,1
DA:231,1
DA:232,1
DA:233,1
DA:234,1
DA:235,1
DA:236,1
DA:237,1
DA:238,1
DA:239,1
DA:241,1
DA:242,1
DA:243,1
DA:245,1
DA:246,1
DA:247,1
DA:248,1
DA:249,1
DA:250,1
DA:251,1
DA:253,1
DA:254,1
DA:255,1
DA:256,1
BRF:0
BRH:0
LF:153
LH:152
end_of_record
SF:/Users/jkh/Code/ai/cogni/cogni-middleware/src/cache.rs
FN:182,_RNCNvMs_NtCs4EghsgDB6uT_16cogni_middleware5cacheNtB6_13ResponseCache13clear_expired0B8_
FN:25,_RNvMNtCs4EghsgDB6uT_16cogni_middleware5cacheNtB2_8CacheKey12from_request
FN:194,_RNvMs0_NtCs4EghsgDB6uT_16cogni_middleware5cacheNtB5_10CacheLayer3new
FN:179,_RNvMs_NtCs4EghsgDB6uT_16cogni_middleware5cacheNtB4_13ResponseCache13clear_expired
FN:123,_RNvMs_NtCs4EghsgDB6uT_16cogni_middleware5cacheNtB4_13ResponseCache3get
FN:114,_RNvMs_NtCs4EghsgDB6uT_16cogni_middleware5cacheNtB4_13ResponseCache3new
FN:144,_RNvMs_NtCs4EghsgDB6uT_16cogni_middleware5cacheNtB4_13ResponseCache3put
FN:174,_RNvMs_NtCs4EghsgDB6uT_16cogni_middleware5cacheNtB4_13ResponseCache6remove
FN:182,_RNCNvMs_NtCs489t2QWteFi_16cogni_middleware5cacheNtB6_13ResponseCache13clear_expired0B8_
FN:239,_RNCNvXs2_NtCs489t2QWteFi_16cogni_middleware5cacheINtB7_12CacheServiceNtNCNvNtB7_5testss_36test_cache_service_error_propagation012ErrorServiceEINtB9_7ServiceNtNtNtCsagf8dG4onv5_10cogni_core5types7request7RequestE4call0B9_
FN:239,_RNCNvXs2_NtCs489t2QWteFi_16cogni_middleware5cacheINtB7_12CacheServiceNtNtB7_5tests11MockServiceEINtB9_7ServiceNtNtNtCsagf8dG4onv5_10cogni_core5types7request7RequestE4call0B9_
FN:204,_RNvXs1_NtCs489t2QWteFi_16cogni_middleware5cacheNtB5_10CacheLayerINtB7_5LayerNtNCNvNtB5_5testss_36test_cache_service_error_propagation012ErrorServiceE5layerB7_
FN:204,_RNvXs1_NtCs489t2QWteFi_16cogni_middleware5cacheNtB5_10CacheLayerINtB7_5LayerNtNtB5_5tests11MockServiceE5layerB7_
FN:228,_RNvXs2_NtCs489t2QWteFi_16cogni_middleware5cacheINtB5_12CacheServiceNtNCNvNtB5_5testss_36test_cache_service_error_propagation012ErrorServiceEINtB7_7ServiceNtNtNtCsagf8dG4onv5_10cogni_core5types7request7RequestE4callB7_
FN:228,_RNvXs2_NtCs489t2QWteFi_16cogni_middleware5cacheINtB5_12CacheServiceNtNtB5_5tests11MockServiceEINtB7_7ServiceNtNtNtCsagf8dG4onv5_10cogni_core5types7request7RequestE4callB7_
FN:289,_RNvNtNtCs489t2QWteFi_16cogni_middleware5cache5tests19create_test_request
FN:296,_RNvNtNtCs489t2QWteFi_16cogni_middleware5cache5tests20create_test_response
FN:557,_RNvNtNtCs489t2QWteFi_16cogni_middleware5cache5testss_22test_cache_layer_clone
FN:305,_RNvNtNtCs489t2QWteFi_16cogni_middleware5cache5testss_25test_cache_key_generation
FN:381,_RNvNtNtCs489t2QWteFi_16cogni_middleware5cache5testss_25test_response_cache_basic
FN:321,_RNvNtNtCs489t2QWteFi_16cogni_middleware5cache5testss_30test_cache_key_with_parameters
FN:398,_RNvNtNtCs489t2QWteFi_16cogni_middleware5cache5testss_32test_response_cache_lru_eviction
FN:447,_RNvNtNtCs489t2QWteFi_16cogni_middleware5cache5testss_33test_response_cache_clear_expired
FN:429,_RNvNtNtCs489t2QWteFi_16cogni_middleware5cache5testss_34test_response_cache_ttl_expiration
FN:469,_RNvNtNtCs489t2QWteFi_16cogni_middleware5cache5testss_35test_cache_service_caches_responses
FN:521,_RNvNtNtCs489t2QWteFi_16cogni_middleware5cache5testss_36test_cache_service_error_propagation
FN:493,_RNvNtNtCs489t2QWteFi_16cogni_middleware5cache5testss_37test_cache_service_different_requests
FN:342,_RNvNtNtCs489t2QWteFi_16cogni_middleware5cache5testss_43test_cache_key_with_different_content_types
FN:530,_RNvXNCNvNtNtCs489t2QWteFi_16cogni_middleware5cache5testss_36test_cache_service_error_propagation0NtB2_12ErrorServiceINtBa_7ServiceNtNtNtCsagf8dG4onv5_10cogni_core5types7request7RequestE4call
FN:282,_RNvXNtNtCs489t2QWteFi_16cogni_middleware5cache5testsNtB2_11MockServiceINtB6_7ServiceNtNtNtCsagf8dG4onv5_10cogni_core5types7request7RequestE4call
FN:25,_RNvMNtCs489t2QWteFi_16cogni_middleware5cacheNtB2_8CacheKey12from_request
FN:194,_RNvMs0_NtCs489t2QWteFi_16cogni_middleware5cacheNtB5_10CacheLayer3new
FN:179,_RNvMs_NtCs489t2QWteFi_16cogni_middleware5cacheNtB4_13ResponseCache13clear_expired
FN:123,_RNvMs_NtCs489t2QWteFi_16cogni_middleware5cacheNtB4_13ResponseCache3get
FN:114,_RNvMs_NtCs489t2QWteFi_16cogni_middleware5cacheNtB4_13ResponseCache3new
FN:144,_RNvMs_NtCs489t2QWteFi_16cogni_middleware5cacheNtB4_13ResponseCache3put
FN:174,_RNvMs_NtCs489t2QWteFi_16cogni_middleware5cacheNtB4_13ResponseCache6remove
FN:557,_RNCNvNtNtCs489t2QWteFi_16cogni_middleware5cache5testss_22test_cache_layer_clone0B7_
FN:381,_RNCNvNtNtCs489t2QWteFi_16cogni_middleware5cache5testss_25test_response_cache_basic0B7_
FN:398,_RNCNvNtNtCs489t2QWteFi_16cogni_middleware5cache5testss_32test_response_cache_lru_eviction0B7_
FN:447,_RNCNvNtNtCs489t2QWteFi_16cogni_middleware5cache5testss_33test_response_cache_clear_expired0B7_
FN:429,_RNCNvNtNtCs489t2QWteFi_16cogni_middleware5cache5testss_34test_response_cache_ttl_expiration0B7_
FN:469,_RNCNvNtNtCs489t2QWteFi_16cogni_middleware5cache5testss_35test_cache_service_caches_responses0B7_
FN:521,_RNCNvNtNtCs489t2QWteFi_16cogni_middleware5cache5testss_36test_cache_service_error_propagation0B7_
FN:493,_RNCNvNtNtCs489t2QWteFi_16cogni_middleware5cache5testss_37test_cache_service_different_requests0B7_
FN:531,_RNCNvXNCNvNtNtCs489t2QWteFi_16cogni_middleware5cache5testss_36test_cache_service_error_propagation0NtB4_12ErrorServiceINtBc_7ServiceNtNtNtCsagf8dG4onv5_10cogni_core5types7request7RequestE4call0Bc_
FN:285,_RNCNvXNtNtCs489t2QWteFi_16cogni_middleware5cache5testsNtB4_11MockServiceINtB8_7ServiceNtNtNtCsagf8dG4onv5_10cogni_core5types7request7RequestE4call0B8_
FNDA:0,_RNCNvMs_NtCs4EghsgDB6uT_16cogni_middleware5cacheNtB6_13ResponseCache13clear_expired0B8_
FNDA:0,_RNvMNtCs4EghsgDB6uT_16cogni_middleware5cacheNtB2_8CacheKey12from_request
FNDA:0,_RNvMs0_NtCs4EghsgDB6uT_16cogni_middleware5cacheNtB5_10CacheLayer3new
FNDA:0,_RNvMs_NtCs4EghsgDB6uT_16cogni_middleware5cacheNtB4_13ResponseCache13clear_expired
FNDA:0,_RNvMs_NtCs4EghsgDB6uT_16cogni_middleware5cacheNtB4_13ResponseCache3get
FNDA:0,_RNvMs_NtCs4EghsgDB6uT_16cogni_middleware5cacheNtB4_13ResponseCache3new
FNDA:0,_RNvMs_NtCs4EghsgDB6uT_16cogni_middleware5cacheNtB4_13ResponseCache3put
FNDA:0,_RNvMs_NtCs4EghsgDB6uT_16cogni_middleware5cacheNtB4_13ResponseCache6remove
FNDA:3,_RNCNvMs_NtCs489t2QWteFi_16cogni_middleware5cacheNtB6_13ResponseCache13clear_expired0B8_
FNDA:1,_RNCNvXs2_NtCs489t2QWteFi_16cogni_middleware5cacheINtB7_12CacheServiceNtNCNvNtB7_5testss_36test_cache_service_error_propagation012ErrorServiceEINtB9_7ServiceNtNtNtCsagf8dG4onv5_10cogni_core5types7request7RequestE4call0B9_
FNDA:8,_RNCNvXs2_NtCs489t2QWteFi_16cogni_middleware5cacheINtB7_12CacheServiceNtNtB7_5tests11MockServiceEINtB9_7ServiceNtNtNtCsagf8dG4onv5_10cogni_core5types7request7RequestE4call0B9_
FNDA:1,_RNvXs1_NtCs489t2QWteFi_16cogni_middleware5cacheNtB5_10CacheLayerINtB7_5LayerNtNCNvNtB5_5testss_36test_cache_service_error_propagation012ErrorServiceE5layerB7_
FNDA:4,_RNvXs1_NtCs489t2QWteFi_16cogni_middleware5cacheNtB5_10CacheLayerINtB7_5LayerNtNtB5_5tests11MockServiceE5layerB7_
FNDA:1,_RNvXs2_NtCs489t2QWteFi_16cogni_middleware5cacheINtB5_12CacheServiceNtNCNvNtB5_5testss_36test_cache_service_error_propagation012ErrorServiceEINtB7_7ServiceNtNtNtCsagf8dG4onv5_10cogni_core5types7request7RequestE4callB7_
FNDA:8,_RNvXs2_NtCs489t2QWteFi_16cogni_middleware5cacheINtB5_12CacheServiceNtNtB5_5tests11MockServiceEINtB7_7ServiceNtNtNtCsagf8dG4onv5_10cogni_core5types7request7RequestE4callB7_
FNDA:12,_RNvNtNtCs489t2QWteFi_16cogni_middleware5cache5tests19create_test_request
FNDA:13,_RNvNtNtCs489t2QWteFi_16cogni_middleware5cache5tests20create_test_response
FNDA:1,_RNvNtNtCs489t2QWteFi_16cogni_middleware5cache5testss_22test_cache_layer_clone
FNDA:1,_RNvNtNtCs489t2QWteFi_16cogni_middleware5cache5testss_25test_cache_key_generation
FNDA:1,_RNvNtNtCs489t2QWteFi_16cogni_middleware5cache5testss_25test_response_cache_basic
FNDA:1,_RNvNtNtCs489t2QWteFi_16cogni_middleware5cache5testss_30test_cache_key_with_parameters
FNDA:1,_RNvNtNtCs489t2QWteFi_16cogni_middleware5cache5testss_32test_response_cache_lru_eviction
FNDA:1,_RNvNtNtCs489t2QWteFi_16cogni_middleware5cache5testss_33test_response_cache_clear_expired
FNDA:1,_RNvNtNtCs489t2QWteFi_16cogni_middleware5cache5testss_34test_response_cache_ttl_expiration
FNDA:1,_RNvNtNtCs489t2QWteFi_16cogni_middleware5cache5testss_35test_cache_service_caches_responses
FNDA:1,_RNvNtNtCs489t2QWteFi_16cogni_middleware5cache5testss_36test_cache_service_error_propagation
FNDA:1,_RNvNtNtCs489t2QWteFi_16cogni_middleware5cache5testss_37test_cache_service_different_requests
FNDA:1,_RNvNtNtCs489t2QWteFi_16cogni_middleware5cache5testss_43test_cache_key_with_different_content_types
FNDA:1,_RNvXNCNvNtNtCs489t2QWteFi_16cogni_middleware5cache5testss_36test_cache_service_error_propagation0NtB2_12ErrorServiceINtBa_7ServiceNtNtNtCsagf8dG4onv5_10cogni_core5types7request7RequestE4call
FNDA:4,_RNvXNtNtCs489t2QWteFi_16cogni_middleware5cache5testsNtB2_11MockServiceINtB6_7ServiceNtNtNtCsagf8dG4onv5_10cogni_core5types7request7RequestE4call
FNDA:18,_RNvMNtCs489t2QWteFi_16cogni_middleware5cacheNtB2_8CacheKey12from_request
FNDA:4,_RNvMs0_NtCs489t2QWteFi_16cogni_middleware5cacheNtB5_10CacheLayer3new
FNDA:1,_RNvMs_NtCs489t2QWteFi_16cogni_middleware5cacheNtB4_13ResponseCache13clear_expired
FNDA:21,_RNvMs_NtCs489t2QWteFi_16cogni_middleware5cacheNtB4_13ResponseCache3get
FNDA:8,_RNvMs_NtCs489t2QWteFi_16cogni_middleware5cacheNtB4_13ResponseCache3new
FNDA:13,_RNvMs_NtCs489t2QWteFi_16cogni_middleware5cacheNtB4_13ResponseCache3put
FNDA:1,_RNvMs_NtCs489t2QWteFi_16cogni_middleware5cacheNtB4_13ResponseCache6remove
FNDA:1,_RNCNvNtNtCs489t2QWteFi_16cogni_middleware5cache5testss_22test_cache_layer_clone0B7_
FNDA:1,_RNCNvNtNtCs489t2QWteFi_16cogni_middleware5cache5testss_25test_response_cache_basic0B7_
FNDA:1,_RNCNvNtNtCs489t2QWteFi_16cogni_middleware5cache5testss_32test_response_cache_lru_eviction0B7_
FNDA:1,_RNCNvNtNtCs489t2QWteFi_16cogni_middleware5cache5testss_33test_response_cache_clear_expired0B7_
FNDA:1,_RNCNvNtNtCs489t2QWteFi_16cogni_middleware5cache5testss_34test_response_cache_ttl_expiration0B7_
FNDA:1,_RNCNvNtNtCs489t2QWteFi_16cogni_middleware5cache5testss_35test_cache_service_caches_responses0B7_
FNDA:1,_RNCNvNtNtCs489t2QWteFi_16cogni_middleware5cache5testss_36test_cache_service_error_propagation0B7_
FNDA:1,_RNCNvNtNtCs489t2QWteFi_16cogni_middleware5cache5testss_37test_cache_service_different_requests0B7_
FNDA:1,_RNCNvXNCNvNtNtCs489t2QWteFi_16cogni_middleware5cache5testss_36test_cache_service_error_propagation0NtB4_12ErrorServiceINtBc_7ServiceNtNtNtCsagf8dG4onv5_10cogni_core5types7request7RequestE4call0Bc_
FNDA:4,_RNCNvXNtNtCs489t2QWteFi_16cogni_middleware5cache5testsNtB4_11MockServiceINtB8_7ServiceNtNtNtCsagf8dG4onv5_10cogni_core5types7request7RequestE4call0B8_
FNF:36
FNH:36
DA:25,18
DA:26,18
DA:27,18
DA:28,18
DA:29,18
DA:30,18
DA:33,36
DA:35,18
DA:36,0
DA:37,18
DA:38,0
DA:39,0
DA:40,0
DA:42,18
DA:43,18
DA:44,18
DA:45,16
DA:46,16
DA:47,16
DA:48,16
DA:49,1
DA:50,1
DA:51,1
DA:52,1
DA:53,1
DA:55,1
DA:56,1
DA:57,1
DA:58,1
DA:59,0
DA:60,0
DA:61,0
DA:62,0
DA:64,18
DA:68,18
DA:69,2
DA:70,2
DA:71,2
DA:72,16
DA:75,18
DA:76,1
DA:77,1
DA:78,1
DA:79,17
DA:82,18
DA:83,0
DA:84,0
DA:85,0
DA:86,0
DA:88,18
DA:89,18
DA:90,18
DA:114,8
DA:115,8
DA:116,8
DA:117,8
DA:118,8
DA:119,8
DA:120,8
DA:123,21
DA:124,21
DA:126,12
DA:127,1
DA:128,1
DA:129,11
DA:130,11
DA:131,11
DA:132,11
DA:133,11
DA:134,11
DA:135,11
DA:136,11
DA:138,9
DA:139,9
DA:141,21
DA:144,13
DA:145,13
DA:146,13
DA:149,14
DA:150,1
DA:151,1
DA:152,0
DA:156,13
DA:157,13
DA:158,13
DA:159,13
DA:160,13
DA:161,13
DA:162,13
DA:163,13
DA:164,13
DA:165,13
DA:166,13
DA:168,2
DA:169,2
DA:171,13
DA:174,1
DA:175,1
DA:176,1
DA:179,1
DA:180,1
DA:181,1
DA:182,3
DA:183,3
DA:184,3
DA:185,2
DA:186,1
DA:187,3
DA:188,3
DA:189,1
DA:194,4
DA:195,4
DA:196,4
DA:197,4
DA:198,4
DA:204,5
DA:205,5
DA:206,5
DA:207,5
DA:208,5
DA:209,5
DA:228,9
DA:229,9
DA:230,9
DA:231,9
DA:232,9
DA:233,9
DA:234,9
DA:235,9
DA:236,9
DA:237,9
DA:238,9
DA:239,9
DA:241,9
DA:242,4
DA:243,5
DA:246,5
DA:249,4
DA:250,4
DA:251,4
DA:252,9
DA:253,9
DA:282,4
DA:283,4
DA:284,4
DA:285,4
DA:286,4
DA:289,12
DA:290,12
DA:291,12
DA:292,12
DA:293,12
DA:294,12
DA:296,13
DA:297,13
DA:298,13
DA:299,13
DA:300,13
DA:301,13
DA:302,13
DA:305,1
DA:306,1
DA:307,1
DA:308,1
DA:309,1
DA:310,1
DA:311,1
DA:312,1
DA:313,1
DA:314,1
DA:315,1
DA:317,1
DA:318,1
DA:321,1
DA:322,1
DA:323,1
DA:324,1
DA:325,1
DA:326,1
DA:327,1
DA:328,1
DA:329,1
DA:330,1
DA:331,1
DA:332,1
DA:333,1
DA:334,1
DA:335,1
DA:336,1
DA:338,1
DA:339,1
DA:342,1
DA:343,1
DA:344,1
DA:345,1
DA:346,1
DA:347,1
DA:348,1
DA:349,1
DA:350,1
DA:351,1
DA:352,1
DA:353,1
DA:354,1
DA:355,1
DA:356,1
DA:357,1
DA:358,1
DA:359,1
DA:360,1
DA:361,1
DA:362,1
DA:363,1
DA:364,1
DA:365,1
DA:366,1
DA:367,1
DA:368,1
DA:369,1
DA:370,1
DA:371,1
DA:372,1
DA:373,1
DA:374,1
DA:375,1
DA:376,1
DA:377,1
DA:378,1
DA:381,1
DA:382,1
DA:383,1
DA:384,1
DA:385,1
DA:386,1
DA:387,1
DA:388,1
DA:389,1
DA:390,1
DA:391,1
DA:392,1
DA:393,1
DA:394,1
DA:395,1
DA:398,1
DA:399,1
DA:400,1
DA:401,1
DA:402,4
DA:403,3
DA:404,3
DA:405,3
DA:406,3
DA:407,1
DA:408,1
DA:409,1
DA:410,1
DA:411,1
DA:412,1
DA:413,1
DA:414,1
DA:415,1
DA:416,1
DA:417,1
DA:418,1
DA:419,1
DA:420,1
DA:421,1
DA:422,1
DA:423,1
DA:424,1
DA:425,1
DA:426,1
DA:429,1
DA:430,1
DA:431,1
DA:432,1
DA:433,1
DA:434,1
DA:435,1
DA:436,1
DA:437,1
DA:438,1
DA:439,1
DA:440,1
DA:441,1
DA:442,1
DA:443,1
DA:444,1
DA:447,1
DA:448,1
DA:449,1
DA:450,1
DA:451,4
DA:452,3
DA:453,3
DA:454,3
DA:455,3
DA:456,2
DA:457,1
DA:458,1
DA:459,1
DA:460,1
DA:461,1
DA:462,1
DA:463,1
DA:464,1
DA:465,1
DA:466,1
DA:469,1
DA:470,1
DA:471,1
DA:472,1
DA:473,1
DA:474,1
DA:475,1
DA:476,1
DA:477,1
DA:478,1
DA:479,1
DA:480,1
DA:481,1
DA:482,1
DA:483,1
DA:484,1
DA:485,1
DA:486,1
DA:487,1
DA:488,1
DA:489,1
DA:490,1
DA:493,1
DA:494,1
DA:495,1
DA:496,1
DA:497,1
DA:498,1
DA:499,1
DA:500,1
DA:501,1
DA:502,1
DA:503,1
DA:504,1
DA:505,1
DA:506,1
DA:507,1
DA:508,1
DA:509,1
DA:510,1
DA:511,1
DA:512,1
DA:513,1
DA:514,1
DA:515,1
DA:516,1
DA:517,1
DA:518,1
DA:521,1
DA:522,1
DA:523,1
DA:524,1
DA:525,1
DA:526,1
DA:527,1
DA:528,1
DA:529,1
DA:530,1
DA:531,1
DA:532,1
DA:533,1
DA:534,1
DA:535,1
DA:536,1
DA:537,1
DA:538,1
DA:539,1
DA:540,1
DA:541,1
DA:542,1
DA:543,1
DA:544,1
DA:545,1
DA:546,1
DA:547,1
DA:548,1
DA:549,1
DA:550,1
DA:551,1
DA:552,1
DA:553,1
DA:554,1
DA:557,1
DA:558,1
DA:559,1
DA:560,1
DA:561,1
DA:562,1
DA:563,1
DA:564,1
DA:565,1
DA:566,1
DA:567,1
DA:568,1
DA:569,1
DA:570,1
DA:571,1
DA:572,1
DA:573,1
DA:574,1
DA:575,1
DA:576,1
DA:577,1
DA:578,1
DA:579,1
DA:580,1
DA:581,1
DA:582,1
DA:583,1
DA:584,1
DA:585,1
DA:586,1
DA:587,1
BRF:0
BRH:0
LF:567
LH:553
end_of_record
SF:/Users/jkh/Code/ai/cogni/cogni-middleware/src/lib.rs
FN:131,_RNCNvXs2_Cs4EghsgDB6uT_16cogni_middlewareINtB7_15ProviderServiceNtNtNtCshZjyUOIHxJx_12cogni_client10middleware5tests12MockProviderEINtB7_7ServiceNtNtNtCsagf8dG4onv5_10cogni_core5types7request7RequestE4call0B16_
FN:116,_RNvMs1_Cs4EghsgDB6uT_16cogni_middlewareINtB5_15ProviderServiceNtNtNtCshZjyUOIHxJx_12cogni_client10middleware5tests12MockProviderE3newB14_
FN:129,_RNvXs2_Cs4EghsgDB6uT_16cogni_middlewareINtB5_15ProviderServiceNtNtNtCshZjyUOIHxJx_12cogni_client10middleware5tests12MockProviderEINtB5_7ServiceNtNtNtCsagf8dG4onv5_10cogni_core5types7request7RequestE4callB14_
FN:197,_RNvMs7_Cs489t2QWteFi_16cogni_middlewareINtB5_14ServiceBuilderNtB5_8IdentityE3new
FN:220,_RNvXs9_Cs489t2QWteFi_16cogni_middlewareINtB5_14ServiceBuilderNtB5_8IdentityENtNtCsfvfooZQ3Axs_4core7default7Default7default
FN:244,_RNCNCNvXNtCs489t2QWteFi_16cogni_middleware5testsNtB6_11EchoServiceINtB8_7ServiceNtNtNtCsagf8dG4onv5_10cogni_core5types7request7RequestE4call00B8_
FN:484,_RNCNvNtCs489t2QWteFi_16cogni_middleware5testss_20test_service_wrapper0B5_
FN:267,_RNCNvNtCs489t2QWteFi_16cogni_middleware5testss_21test_box_service_call0B5_
FN:310,_RNCNvNtCs489t2QWteFi_16cogni_middleware5testss_26test_provider_service_call0B5_
FN:240,_RNCNvXNtCs489t2QWteFi_16cogni_middleware5testsNtB4_11EchoServiceINtB6_7ServiceNtNtNtCsagf8dG4onv5_10cogni_core5types7request7RequestE4call0B6_
FN:318,_RNCNvXs_NCNvNtCs489t2QWteFi_16cogni_middleware5testss_26test_provider_service_call0NtB6_12MockProviderNtNtCsagf8dG4onv5_10cogni_core8provider8Provider7request0Bc_
FN:387,_RNvXNvNtCs489t2QWteFi_16cogni_middleware5testss_16test_stack_layerNtB2_11DoubleLayerINtB6_5LayerNtB4_11EchoServiceE5layerB6_
FN:435,_RNvXNvNtCs489t2QWteFi_16cogni_middleware5testss_31test_service_builder_with_layerNtB2_11PrefixLayerINtB6_5LayerINtB2_13PrefixServiceNtB4_11EchoServiceEE5layerB6_
FN:435,_RNvXNvNtCs489t2QWteFi_16cogni_middleware5testss_31test_service_builder_with_layerNtB2_11PrefixLayerINtB6_5LayerNtB4_11EchoServiceE5layerB6_
FN:138,_RNvYNtNvNtCs489t2QWteFi_16cogni_middleware5testss_30test_provider_ext_into_service12MockProviderNtB8_11ProviderExt12into_serviceB8_
FN:383,_RNvNtCs489t2QWteFi_16cogni_middleware5testss_16test_stack_layer
FN:372,_RNvNtCs489t2QWteFi_16cogni_middleware5testss_19test_identity_layer
FN:421,_RNvNtCs489t2QWteFi_16cogni_middleware5testss_20test_service_builder
FN:484,_RNvNtCs489t2QWteFi_16cogni_middleware5testss_20test_service_wrapper
FN:267,_RNvNtCs489t2QWteFi_16cogni_middleware5testss_21test_box_service_call
FN:260,_RNvNtCs489t2QWteFi_16cogni_middleware5testss_25test_box_service_creation
FN:310,_RNvNtCs489t2QWteFi_16cogni_middleware5testss_26test_provider_service_call
FN:477,_RNvNtCs489t2QWteFi_16cogni_middleware5testss_28test_service_builder_default
FN:347,_RNvNtCs489t2QWteFi_16cogni_middleware5testss_30test_provider_ext_into_service
FN:281,_RNvNtCs489t2QWteFi_16cogni_middleware5testss_30test_provider_service_creation
FN:431,_RNvNtCs489t2QWteFi_16cogni_middleware5testss_31test_service_builder_with_layer
FN:239,_RNvXNtCs489t2QWteFi_16cogni_middleware5testsNtB2_11EchoServiceINtB4_7ServiceNtNtNtCsagf8dG4onv5_10cogni_core5types7request7RequestE4call
FN:324,_RNvXs_NCNvNtCs489t2QWteFi_16cogni_middleware5testss_26test_provider_service_call0NtB4_12MockProviderNtNtCsagf8dG4onv5_10cogni_core8provider8Provider7request
FN:143,_RINvYpNtCs489t2QWteFi_16cogni_middleware11ProviderExt5layerpEB6_
FN:407,_RNCNvXININvNtCs489t2QWteFi_16cogni_middleware5testss_16test_stack_layers_0pEINtB7_13DoubleServicepEINtBb_7ServiceNtNtNtCsagf8dG4onv5_10cogni_core5types7request7RequestE4call0Bb_
FN:460,_RNCNvXININvNtCs489t2QWteFi_16cogni_middleware5testss_31test_service_builder_with_layers_0pEINtB7_13PrefixServicepEINtBb_7ServiceNtNtNtCsagf8dG4onv5_10cogni_core5types7request7RequestE4call0Bb_
FN:329,_RNCNvXs_NCNvNtCs489t2QWteFi_16cogni_middleware5testss_26test_provider_service_call0NtB6_12MockProviderNtNtCsagf8dG4onv5_10cogni_core8provider8Provider6stream0Bc_
FN:362,_RNCNvXs_NvNtCs489t2QWteFi_16cogni_middleware5testss_30test_provider_ext_into_serviceNtB6_12MockProviderNtNtCsagf8dG4onv5_10cogni_core8provider8Provider6stream0Ba_
FN:355,_RNCNvXs_NvNtCs489t2QWteFi_16cogni_middleware5testss_30test_provider_ext_into_serviceNtB6_12MockProviderNtNtCsagf8dG4onv5_10cogni_core8provider8Provider7request0Ba_
FN:300,_RNCNvXs_NvNtCs489t2QWteFi_16cogni_middleware5testss_30test_provider_service_creationNtB6_12MockProviderNtNtCsagf8dG4onv5_10cogni_core8provider8Provider6stream0Ba_
FN:289,_RNCNvXs_NvNtCs489t2QWteFi_16cogni_middleware5testss_30test_provider_service_creationNtB6_12MockProviderNtNtCsagf8dG4onv5_10cogni_core8provider8Provider7request0Ba_
FN:405,_RNvXININvNtCs489t2QWteFi_16cogni_middleware5testss_16test_stack_layers_0pEINtB5_13DoubleServicepEINtB9_7ServiceNtNtNtCsagf8dG4onv5_10cogni_core5types7request7RequestE4callB9_
FN:457,_RNvXININvNtCs489t2QWteFi_16cogni_middleware5testss_31test_service_builder_with_layers_0pEINtB5_13PrefixServicepEINtB9_7ServiceNtNtNtCsagf8dG4onv5_10cogni_core5types7request7RequestE4callB9_
FN:331,_RNvXs_NCNvNtCs489t2QWteFi_16cogni_middleware5testss_26test_provider_service_call0NtB4_12MockProviderNtNtCsagf8dG4onv5_10cogni_core8provider8Provider6stream
FN:364,_RNvXs_NvNtCs489t2QWteFi_16cogni_middleware5testss_30test_provider_ext_into_serviceNtB4_12MockProviderNtNtCsagf8dG4onv5_10cogni_core8provider8Provider6stream
FN:357,_RNvXs_NvNtCs489t2QWteFi_16cogni_middleware5testss_30test_provider_ext_into_serviceNtB4_12MockProviderNtNtCsagf8dG4onv5_10cogni_core8provider8Provider7request
FN:302,_RNvXs_NvNtCs489t2QWteFi_16cogni_middleware5testss_30test_provider_service_creationNtB4_12MockProviderNtNtCsagf8dG4onv5_10cogni_core8provider8Provider6stream
FN:295,_RNvXs_NvNtCs489t2QWteFi_16cogni_middleware5testss_30test_provider_service_creationNtB4_12MockProviderNtNtCsagf8dG4onv5_10cogni_core8provider8Provider7request
FN:65,_RINvMCs489t2QWteFi_16cogni_middlewareINtB3_10BoxServiceNtNtNtCsagf8dG4onv5_10cogni_core5types7request7RequestNtNtBV_8response8ResponseNtNtBX_5error5ErrorE3newNtNtB3_5tests11EchoServiceEB3_
FN:211,_RINvMs8_Cs489t2QWteFi_16cogni_middlewareINtB6_14ServiceBuilderINtB6_5StackIBZ_NtB6_8IdentityNtNvNtB6_5testss_31test_service_builder_with_layer11PrefixLayerEB1s_EE7serviceNtB1w_11EchoServiceEB6_
FN:204,_RINvMs8_Cs489t2QWteFi_16cogni_middlewareINtB6_14ServiceBuilderINtB6_5StackNtB6_8IdentityNtNvNtB6_5testss_31test_service_builder_with_layer11PrefixLayerEE5layerB1o_EB6_
FN:204,_RINvMs8_Cs489t2QWteFi_16cogni_middlewareINtB6_14ServiceBuilderNtB6_8IdentityE5layerNtNvNtB6_5testss_31test_service_builder_with_layer11PrefixLayerEB6_
FN:211,_RINvMs8_Cs489t2QWteFi_16cogni_middlewareINtB6_14ServiceBuilderNtB6_8IdentityE7serviceNtNtB6_5tests11EchoServiceEB6_
FN:131,_RNCNvXs2_Cs489t2QWteFi_16cogni_middlewareINtB7_15ProviderServiceNtNCNvNtB7_5testss_26test_provider_service_call012MockProviderEINtB7_7ServiceNtNtNtCsagf8dG4onv5_10cogni_core5types7request7RequestE4call0B7_
FN:116,_RNvMs1_Cs489t2QWteFi_16cogni_middlewareINtB5_15ProviderServiceNtNCNvNtB5_5testss_26test_provider_service_call012MockProviderE3newB5_
FN:116,_RNvMs1_Cs489t2QWteFi_16cogni_middlewareINtB5_15ProviderServiceNtNvNtB5_5testss_30test_provider_ext_into_service12MockProviderE3newB5_
FN:116,_RNvMs1_Cs489t2QWteFi_16cogni_middlewareINtB5_15ProviderServiceNtNvNtB5_5testss_30test_provider_service_creation12MockProviderE3newB5_
FN:161,_RNvMs4_Cs489t2QWteFi_16cogni_middlewareINtB5_5StackIBC_NtB5_8IdentityNtNvNtB5_5testss_31test_service_builder_with_layer11PrefixLayerEB15_E3newB5_
FN:161,_RNvMs4_Cs489t2QWteFi_16cogni_middlewareINtB5_5StackNtB5_8IdentityNtNvNtB5_5testss_16test_stack_layer11DoubleLayerE3newB5_
FN:161,_RNvMs4_Cs489t2QWteFi_16cogni_middlewareINtB5_5StackNtB5_8IdentityNtNvNtB5_5testss_31test_service_builder_with_layer11PrefixLayerE3newB5_
FN:103,_RNvXs0_Cs489t2QWteFi_16cogni_middlewareINtB5_10BoxServiceNtNtNtCsagf8dG4onv5_10cogni_core5types7request7RequestNtNtBX_8response8ResponseNtNtBZ_5error5ErrorEINtB5_7ServiceBT_E4callB5_
FN:129,_RNvXs2_Cs489t2QWteFi_16cogni_middlewareINtB5_15ProviderServiceNtNCNvNtB5_5testss_26test_provider_service_call012MockProviderEINtB5_7ServiceNtNtNtCsagf8dG4onv5_10cogni_core5types7request7RequestE4callB5_
FN:173,_RNvXs5_Cs489t2QWteFi_16cogni_middlewareINtB5_5StackIBC_NtB5_8IdentityNtNvNtB5_5testss_31test_service_builder_with_layer11PrefixLayerEB15_EINtB5_5LayerNtB19_11EchoServiceE5layerB5_
FN:173,_RNvXs5_Cs489t2QWteFi_16cogni_middlewareINtB5_5StackNtB5_8IdentityNtNvNtB5_5testss_16test_stack_layer11DoubleLayerEINtB5_5LayerNtB15_11EchoServiceE5layerB5_
FN:173,_RNvXs5_Cs489t2QWteFi_16cogni_middlewareINtB5_5StackNtB5_8IdentityNtNvNtB5_5testss_31test_service_builder_with_layer11PrefixLayerEINtB5_5LayerNtB15_11EchoServiceE5layerB5_
FN:185,_RNvXs6_Cs489t2QWteFi_16cogni_middlewareNtB5_8IdentityINtB5_5LayerNtNtB5_5tests11EchoServiceE5layerB5_
FN:90,_RNvXs_Cs489t2QWteFi_16cogni_middlewareINtB4_14ServiceWrapperNtNtB4_5tests11EchoServiceEINtB4_7ServiceNtNtNtCsagf8dG4onv5_10cogni_core5types7request7RequestE4callB4_
FNDA:1,_RNCNvXs2_Cs4EghsgDB6uT_16cogni_middlewareINtB7_15ProviderServiceNtNtNtCshZjyUOIHxJx_12cogni_client10middleware5tests12MockProviderEINtB7_7ServiceNtNtNtCsagf8dG4onv5_10cogni_core5types7request7RequestE4call0B16_
FNDA:1,_RNvMs1_Cs4EghsgDB6uT_16cogni_middlewareINtB5_15ProviderServiceNtNtNtCshZjyUOIHxJx_12cogni_client10middleware5tests12MockProviderE3newB14_
FNDA:1,_RNvXs2_Cs4EghsgDB6uT_16cogni_middlewareINtB5_15ProviderServiceNtNtNtCshZjyUOIHxJx_12cogni_client10middleware5tests12MockProviderEINtB5_7ServiceNtNtNtCsagf8dG4onv5_10cogni_core5types7request7RequestE4callB14_
FNDA:3,_RNvMs7_Cs489t2QWteFi_16cogni_middlewareINtB5_14ServiceBuilderNtB5_8IdentityE3new
FNDA:1,_RNvXs9_Cs489t2QWteFi_16cogni_middlewareINtB5_14ServiceBuilderNtB5_8IdentityENtNtCsfvfooZQ3Axs_4core7default7Default7default
FNDA:5,_RNCNCNvXNtCs489t2QWteFi_16cogni_middleware5testsNtB6_11EchoServiceINtB8_7ServiceNtNtNtCsagf8dG4onv5_10cogni_core5types7request7RequestE4call00B8_
FNDA:1,_RNCNvNtCs489t2QWteFi_16cogni_middleware5testss_20test_service_wrapper0B5_
FNDA:1,_RNCNvNtCs489t2QWteFi_16cogni_middleware5testss_21test_box_service_call0B5_
FNDA:1,_RNCNvNtCs489t2QWteFi_16cogni_middleware5testss_26test_provider_service_call0B5_
FNDA:5,_RNCNvXNtCs489t2QWteFi_16cogni_middleware5testsNtB4_11EchoServiceINtB6_7ServiceNtNtNtCsagf8dG4onv5_10cogni_core5types7request7RequestE4call0B6_
FNDA:1,_RNCNvXs_NCNvNtCs489t2QWteFi_16cogni_middleware5testss_26test_provider_service_call0NtB6_12MockProviderNtNtCsagf8dG4onv5_10cogni_core8provider8Provider7request0Bc_
FNDA:1,_RNvXNvNtCs489t2QWteFi_16cogni_middleware5testss_16test_stack_layerNtB2_11DoubleLayerINtB6_5LayerNtB4_11EchoServiceE5layerB6_
FNDA:1,_RNvXNvNtCs489t2QWteFi_16cogni_middleware5testss_31test_service_builder_with_layerNtB2_11PrefixLayerINtB6_5LayerINtB2_13PrefixServiceNtB4_11EchoServiceEE5layerB6_
FNDA:1,_RNvXNvNtCs489t2QWteFi_16cogni_middleware5testss_31test_service_builder_with_layerNtB2_11PrefixLayerINtB6_5LayerNtB4_11EchoServiceE5layerB6_
FNDA:1,_RNvYNtNvNtCs489t2QWteFi_16cogni_middleware5testss_30test_provider_ext_into_service12MockProviderNtB8_11ProviderExt12into_serviceB8_
FNDA:1,_RNvNtCs489t2QWteFi_16cogni_middleware5testss_16test_stack_layer
FNDA:1,_RNvNtCs489t2QWteFi_16cogni_middleware5testss_19test_identity_layer
FNDA:1,_RNvNtCs489t2QWteFi_16cogni_middleware5testss_20test_service_builder
FNDA:1,_RNvNtCs489t2QWteFi_16cogni_middleware5testss_20test_service_wrapper
FNDA:1,_RNvNtCs489t2QWteFi_16cogni_middleware5testss_21test_box_service_call
FNDA:1,_RNvNtCs489t2QWteFi_16cogni_middleware5testss_25test_box_service_creation
FNDA:1,_RNvNtCs489t2QWteFi_16cogni_middleware5testss_26test_provider_service_call
FNDA:1,_RNvNtCs489t2QWteFi_16cogni_middleware5testss_28test_service_builder_default
FNDA:1,_RNvNtCs489t2QWteFi_16cogni_middleware5testss_30test_provider_ext_into_service
FNDA:1,_RNvNtCs489t2QWteFi_16cogni_middleware5testss_30test_provider_service_creation
FNDA:1,_RNvNtCs489t2QWteFi_16cogni_middleware5testss_31test_service_builder_with_layer
FNDA:5,_RNvXNtCs489t2QWteFi_16cogni_middleware5testsNtB2_11EchoServiceINtB4_7ServiceNtNtNtCsagf8dG4onv5_10cogni_core5types7request7RequestE4call
FNDA:1,_RNvXs_NCNvNtCs489t2QWteFi_16cogni_middleware5testss_26test_provider_service_call0NtB4_12MockProviderNtNtCsagf8dG4onv5_10cogni_core8provider8Provider7request
FNDA:0,_RINvYpNtCs489t2QWteFi_16cogni_middleware11ProviderExt5layerpEB6_
FNDA:0,_RNCNvXININvNtCs489t2QWteFi_16cogni_middleware5testss_16test_stack_layers_0pEINtB7_13DoubleServicepEINtBb_7ServiceNtNtNtCsagf8dG4onv5_10cogni_core5types7request7RequestE4call0Bb_
FNDA:0,_RNCNvXININvNtCs489t2QWteFi_16cogni_middleware5testss_31test_service_builder_with_layers_0pEINtB7_13PrefixServicepEINtBb_7ServiceNtNtNtCsagf8dG4onv5_10cogni_core5types7request7RequestE4call0Bb_
FNDA:0,_RNCNvXs_NCNvNtCs489t2QWteFi_16cogni_middleware5testss_26test_provider_service_call0NtB6_12MockProviderNtNtCsagf8dG4onv5_10cogni_core8provider8Provider6stream0Bc_
FNDA:0,_RNCNvXs_NvNtCs489t2QWteFi_16cogni_middleware5testss_30test_provider_ext_into_serviceNtB6_12MockProviderNtNtCsagf8dG4onv5_10cogni_core8provider8Provider6stream0Ba_
FNDA:0,_RNCNvXs_NvNtCs489t2QWteFi_16cogni_middleware5testss_30test_provider_ext_into_serviceNtB6_12MockProviderNtNtCsagf8dG4onv5_10cogni_core8provider8Provider7request0Ba_
FNDA:0,_RNCNvXs_NvNtCs489t2QWteFi_16cogni_middleware5testss_30test_provider_service_creationNtB6_12MockProviderNtNtCsagf8dG4onv5_10cogni_core8provider8Provider6stream0Ba_
FNDA:0,_RNCNvXs_NvNtCs489t2QWteFi_16cogni_middleware5testss_30test_provider_service_creationNtB6_12MockProviderNtNtCsagf8dG4onv5_10cogni_core8provider8Provider7request0Ba_
FNDA:0,_RNvXININvNtCs489t2QWteFi_16cogni_middleware5testss_16test_stack_layers_0pEINtB5_13DoubleServicepEINtB9_7ServiceNtNtNtCsagf8dG4onv5_10cogni_core5types7request7RequestE4callB9_
FNDA:0,_RNvXININvNtCs489t2QWteFi_16cogni_middleware5testss_31test_service_builder_with_layers_0pEINtB5_13PrefixServicepEINtB9_7ServiceNtNtNtCsagf8dG4onv5_10cogni_core5types7request7RequestE4callB9_
FNDA:0,_RNvXs_NCNvNtCs489t2QWteFi_16cogni_middleware5testss_26test_provider_service_call0NtB4_12MockProviderNtNtCsagf8dG4onv5_10cogni_core8provider8Provider6stream
FNDA:0,_RNvXs_NvNtCs489t2QWteFi_16cogni_middleware5testss_30test_provider_ext_into_serviceNtB4_12MockProviderNtNtCsagf8dG4onv5_10cogni_core8provider8Provider6stream
FNDA:0,_RNvXs_NvNtCs489t2QWteFi_16cogni_middleware5testss_30test_provider_ext_into_serviceNtB4_12MockProviderNtNtCsagf8dG4onv5_10cogni_core8provider8Provider7request
FNDA:0,_RNvXs_NvNtCs489t2QWteFi_16cogni_middleware5testss_30test_provider_service_creationNtB4_12MockProviderNtNtCsagf8dG4onv5_10cogni_core8provider8Provider6stream
FNDA:0,_RNvXs_NvNtCs489t2QWteFi_16cogni_middleware5testss_30test_provider_service_creationNtB4_12MockProviderNtNtCsagf8dG4onv5_10cogni_core8provider8Provider7request
FNDA:2,_RINvMCs489t2QWteFi_16cogni_middlewareINtB3_10BoxServiceNtNtNtCsagf8dG4onv5_10cogni_core5types7request7RequestNtNtBV_8response8ResponseNtNtBX_5error5ErrorE3newNtNtB3_5tests11EchoServiceEB3_
FNDA:1,_RINvMs8_Cs489t2QWteFi_16cogni_middlewareINtB6_14ServiceBuilderINtB6_5StackIBZ_NtB6_8IdentityNtNvNtB6_5testss_31test_service_builder_with_layer11PrefixLayerEB1s_EE7serviceNtB1w_11EchoServiceEB6_
FNDA:1,_RINvMs8_Cs489t2QWteFi_16cogni_middlewareINtB6_14ServiceBuilderINtB6_5StackNtB6_8IdentityNtNvNtB6_5testss_31test_service_builder_with_layer11PrefixLayerEE5layerB1o_EB6_
FNDA:1,_RINvMs8_Cs489t2QWteFi_16cogni_middlewareINtB6_14ServiceBuilderNtB6_8IdentityE5layerNtNvNtB6_5testss_31test_service_builder_with_layer11PrefixLayerEB6_
FNDA:2,_RINvMs8_Cs489t2QWteFi_16cogni_middlewareINtB6_14ServiceBuilderNtB6_8IdentityE7serviceNtNtB6_5tests11EchoServiceEB6_
FNDA:1,_RNCNvXs2_Cs489t2QWteFi_16cogni_middlewareINtB7_15ProviderServiceNtNCNvNtB7_5testss_26test_provider_service_call012MockProviderEINtB7_7ServiceNtNtNtCsagf8dG4onv5_10cogni_core5types7request7RequestE4call0B7_
FNDA:1,_RNvMs1_Cs489t2QWteFi_16cogni_middlewareINtB5_15ProviderServiceNtNCNvNtB5_5testss_26test_provider_service_call012MockProviderE3newB5_
FNDA:1,_RNvMs1_Cs489t2QWteFi_16cogni_middlewareINtB5_15ProviderServiceNtNvNtB5_5testss_30test_provider_ext_into_service12MockProviderE3newB5_
FNDA:1,_RNvMs1_Cs489t2QWteFi_16cogni_middlewareINtB5_15ProviderServiceNtNvNtB5_5testss_30test_provider_service_creation12MockProviderE3newB5_
FNDA:1,_RNvMs4_Cs489t2QWteFi_16cogni_middlewareINtB5_5StackIBC_NtB5_8IdentityNtNvNtB5_5testss_31test_service_builder_with_layer11PrefixLayerEB15_E3newB5_
FNDA:1,_RNvMs4_Cs489t2QWteFi_16cogni_middlewareINtB5_5StackNtB5_8IdentityNtNvNtB5_5testss_16test_stack_layer11DoubleLayerE3newB5_
FNDA:1,_RNvMs4_Cs489t2QWteFi_16cogni_middlewareINtB5_5StackNtB5_8IdentityNtNvNtB5_5testss_31test_service_builder_with_layer11PrefixLayerE3newB5_
FNDA:1,_RNvXs0_Cs489t2QWteFi_16cogni_middlewareINtB5_10BoxServiceNtNtNtCsagf8dG4onv5_10cogni_core5types7request7RequestNtNtBX_8response8ResponseNtNtBZ_5error5ErrorEINtB5_7ServiceBT_E4callB5_
FNDA:1,_RNvXs2_Cs489t2QWteFi_16cogni_middlewareINtB5_15ProviderServiceNtNCNvNtB5_5testss_26test_provider_service_call012MockProviderEINtB5_7ServiceNtNtNtCsagf8dG4onv5_10cogni_core5types7request7RequestE4callB5_
FNDA:1,_RNvXs5_Cs489t2QWteFi_16cogni_middlewareINtB5_5StackIBC_NtB5_8IdentityNtNvNtB5_5testss_31test_service_builder_with_layer11PrefixLayerEB15_EINtB5_5LayerNtB19_11EchoServiceE5layerB5_
FNDA:1,_RNvXs5_Cs489t2QWteFi_16cogni_middlewareINtB5_5StackNtB5_8IdentityNtNvNtB5_5testss_16test_stack_layer11DoubleLayerEINtB5_5LayerNtB15_11EchoServiceE5layerB5_
FNDA:1,_RNvXs5_Cs489t2QWteFi_16cogni_middlewareINtB5_5StackNtB5_8IdentityNtNvNtB5_5testss_31test_service_builder_with_layer11PrefixLayerEINtB5_5LayerNtB15_11EchoServiceE5layerB5_
FNDA:5,_RNvXs6_Cs489t2QWteFi_16cogni_middlewareNtB5_8IdentityINtB5_5LayerNtNtB5_5tests11EchoServiceE5layerB5_
FNDA:2,_RNvXs_Cs489t2QWteFi_16cogni_middlewareINtB4_14ServiceWrapperNtNtB4_5tests11EchoServiceEINtB4_7ServiceNtNtNtCsagf8dG4onv5_10cogni_core5types7request7RequestE4callB4_
FNF:50
FNH:35
DA:65,2
DA:66,2
DA:67,2
DA:68,2
DA:69,2
DA:70,2
DA:71,2
DA:72,2
DA:73,2
DA:90,2
DA:91,2
DA:92,2
DA:103,1
DA:104,1
DA:105,1
DA:116,4
DA:117,4
DA:118,4
DA:129,2
DA:130,2
DA:131,2
DA:132,2
DA:138,1
DA:139,1
DA:140,1
DA:143,0
DA:144,0
DA:145,0
DA:146,0
DA:147,0
DA:148,0
DA:161,3
DA:162,3
DA:163,3
DA:173,3
DA:174,3
DA:175,3
DA:176,3
DA:185,5
DA:186,5
DA:187,5
DA:197,3
DA:198,3
DA:199,3
DA:204,2
DA:205,2
DA:206,2
DA:207,2
DA:208,2
DA:211,3
DA:212,3
DA:213,3
DA:214,3
DA:215,3
DA:216,3
DA:220,1
DA:221,1
DA:222,1
DA:239,5
DA:240,5
DA:241,5
DA:242,5
DA:243,5
DA:244,5
DA:245,5
DA:246,0
DA:247,5
DA:248,5
DA:249,5
DA:250,5
DA:251,5
DA:252,5
DA:253,5
DA:254,5
DA:255,5
DA:256,5
DA:260,1
DA:261,1
DA:262,1
DA:263,1
DA:264,1
DA:267,1
DA:268,1
DA:269,1
DA:270,1
DA:271,1
DA:272,1
DA:273,1
DA:274,1
DA:275,1
DA:276,1
DA:277,1
DA:278,1
DA:281,1
DA:289,0
DA:290,0
DA:291,0
DA:292,0
DA:293,0
DA:294,0
DA:295,0
DA:300,0
DA:301,0
DA:302,0
DA:305,1
DA:306,1
DA:307,1
DA:310,1
DA:311,1
DA:312,1
DA:313,1
DA:314,1
DA:315,1
DA:316,1
DA:317,1
DA:318,1
DA:319,1
DA:320,1
DA:321,1
DA:322,1
DA:323,1
DA:324,2
DA:325,1
DA:326,1
DA:327,1
DA:328,1
DA:329,1
DA:330,1
DA:331,1
DA:332,1
DA:333,1
DA:334,1
DA:335,1
DA:336,1
DA:337,1
DA:338,1
DA:339,1
DA:340,1
DA:341,1
DA:342,1
DA:343,1
DA:344,1
DA:347,1
DA:355,0
DA:356,0
DA:357,0
DA:362,0
DA:363,0
DA:364,0
DA:367,1
DA:368,1
DA:369,1
DA:372,1
DA:373,1
DA:374,1
DA:375,1
DA:376,1
DA:377,1
DA:378,1
DA:379,1
DA:380,1
DA:383,1
DA:387,1
DA:388,1
DA:389,1
DA:405,0
DA:406,0
DA:407,0
DA:408,0
DA:409,0
DA:410,0
DA:411,0
DA:412,0
DA:415,1
DA:416,1
DA:417,1
DA:418,1
DA:421,1
DA:422,1
DA:423,1
DA:424,1
DA:425,1
DA:426,1
DA:427,1
DA:428,1
DA:431,1
DA:435,2
DA:436,2
DA:437,2
DA:438,2
DA:439,2
DA:440,2
DA:457,0
DA:458,0
DA:459,0
DA:460,0
DA:461,0
DA:462,0
DA:463,0
DA:464,0
DA:465,0
DA:468,1
DA:469,1
DA:470,1
DA:471,1
DA:472,1
DA:473,1
DA:474,1
DA:477,1
DA:478,1
DA:479,1
DA:480,1
DA:481,1
DA:484,1
DA:485,1
DA:486,1
DA:487,1
DA:488,1
DA:489,1
DA:490,1
DA:491,1
DA:492,1
DA:493,1
DA:494,1
DA:495,1
BRF:0
BRH:0
LF:280
LH:228
end_of_record
SF:/Users/jkh/Code/ai/cogni/cogni-middleware/src/logging.rs
FN:265,_RNvNtNtCs489t2QWteFi_16cogni_middleware7logging5tests19create_test_request
FN:273,_RNvNtNtCs489t2QWteFi_16cogni_middleware7logging5tests20create_test_response
FN:307,_RNvNtNtCs489t2QWteFi_16cogni_middleware7logging5testss_22test_log_level_default
FN:511,_RNvNtNtCs489t2QWteFi_16cogni_middleware7logging5testss_24test_logging_layer_clone
FN:292,_RNvNtNtCs489t2QWteFi_16cogni_middleware7logging5testss_27test_logging_layer_creation
FN:494,_RNvNtNtCs489t2QWteFi_16cogni_middleware7logging5testss_29test_logging_service_duration
FN:337,_RNvNtNtCs489t2QWteFi_16cogni_middleware7logging5testss_31test_logging_service_info_level
FN:432,_RNvNtNtCs489t2QWteFi_16cogni_middleware7logging5testss_31test_logging_service_with_tools
FN:314,_RNvNtNtCs489t2QWteFi_16cogni_middleware7logging5testss_32test_logging_service_debug_level
FN:358,_RNvNtNtCs489t2QWteFi_16cogni_middleware7logging5testss_33test_logging_service_with_content
FN:473,_RNvNtNtCs489t2QWteFi_16cogni_middleware7logging5testss_35test_logging_service_usage_tracking
FN:397,_RNvNtNtCs489t2QWteFi_16cogni_middleware7logging5testss_38test_logging_service_error_propagation
FN:378,_RNvNtNtCs489t2QWteFi_16cogni_middleware7logging5testss_39test_logging_service_trace_with_content
FN:522,_RNvNtNtCs489t2QWteFi_16cogni_middleware7logging5testss_44test_logging_service_different_content_types
FN:493,_RNvNvNtNtCs489t2QWteFi_16cogni_middleware7logging5testss_29test_logging_service_duration12logs_contain
FN:336,_RNvNvNtNtCs489t2QWteFi_16cogni_middleware7logging5testss_31test_logging_service_info_level12logs_contain
FN:431,_RNvNvNtNtCs489t2QWteFi_16cogni_middleware7logging5testss_31test_logging_service_with_tools12logs_contain
FN:313,_RNvNvNtNtCs489t2QWteFi_16cogni_middleware7logging5testss_32test_logging_service_debug_level12logs_contain
FN:357,_RNvNvNtNtCs489t2QWteFi_16cogni_middleware7logging5testss_33test_logging_service_with_content12logs_contain
FN:472,_RNvNvNtNtCs489t2QWteFi_16cogni_middleware7logging5testss_35test_logging_service_usage_tracking12logs_contain
FN:377,_RNvNvNtNtCs489t2QWteFi_16cogni_middleware7logging5testss_39test_logging_service_trace_with_content12logs_contain
FN:521,_RNvNvNtNtCs489t2QWteFi_16cogni_middleware7logging5testss_44test_logging_service_different_content_types12logs_contain
FN:406,_RNvXNCNvNtNtCs489t2QWteFi_16cogni_middleware7logging5testss_38test_logging_service_error_propagation0NtB2_12ErrorServiceINtBa_7ServiceNtNtNtCsagf8dG4onv5_10cogni_core5types7request7RequestE4call
FN:254,_RNvXNtNtCs489t2QWteFi_16cogni_middleware7logging5testsNtB2_11MockServiceINtB6_7ServiceNtNtNtCsagf8dG4onv5_10cogni_core5types7request7RequestE4call
FN:39,_RNvMNtCs489t2QWteFi_16cogni_middleware7loggingNtB2_12LoggingLayer10with_level
FN:47,_RNvMNtCs489t2QWteFi_16cogni_middleware7loggingNtB2_12LoggingLayer12with_content
FN:34,_RNvMNtCs489t2QWteFi_16cogni_middleware7loggingNtB2_12LoggingLayer3new
FN:133,_RNCNvXs0_NtCs489t2QWteFi_16cogni_middleware7loggingINtB7_14LoggingServiceNtNCNvNtB7_5testss_38test_logging_service_error_propagation012ErrorServiceEINtB9_7ServiceNtNtNtCsagf8dG4onv5_10cogni_core5types7request7RequestE4call0B9_
FN:133,_RNCNvXs0_NtCs489t2QWteFi_16cogni_middleware7loggingINtB7_14LoggingServiceNtNtB7_5tests11MockServiceEINtB9_7ServiceNtNtNtCsagf8dG4onv5_10cogni_core5types7request7RequestE4call0B9_
FN:82,_RNvXs0_NtCs489t2QWteFi_16cogni_middleware7loggingINtB5_14LoggingServiceNtNCNvNtB5_5testss_38test_logging_service_error_propagation012ErrorServiceEINtB7_7ServiceNtNtNtCsagf8dG4onv5_10cogni_core5types7request7RequestE4callB7_
FN:82,_RNvXs0_NtCs489t2QWteFi_16cogni_middleware7loggingINtB5_14LoggingServiceNtNtB5_5tests11MockServiceEINtB7_7ServiceNtNtNtCsagf8dG4onv5_10cogni_core5types7request7RequestE4callB7_
FN:56,_RNvXs_NtCs489t2QWteFi_16cogni_middleware7loggingNtB4_12LoggingLayerINtB6_5LayerNtNCNvNtB4_5testss_38test_logging_service_error_propagation012ErrorServiceE5layerB6_
FN:56,_RNvXs_NtCs489t2QWteFi_16cogni_middleware7loggingNtB4_12LoggingLayerINtB6_5LayerNtNtB4_5tests11MockServiceE5layerB6_
FN:494,_RNCNvNtNtCs489t2QWteFi_16cogni_middleware7logging5testss_29test_logging_service_durations_0B7_
FN:337,_RNCNvNtNtCs489t2QWteFi_16cogni_middleware7logging5testss_31test_logging_service_info_levels_0B7_
FN:432,_RNCNvNtNtCs489t2QWteFi_16cogni_middleware7logging5testss_31test_logging_service_with_toolss_0B7_
FN:314,_RNCNvNtNtCs489t2QWteFi_16cogni_middleware7logging5testss_32test_logging_service_debug_levels_0B7_
FN:358,_RNCNvNtNtCs489t2QWteFi_16cogni_middleware7logging5testss_33test_logging_service_with_contents_0B7_
FN:473,_RNCNvNtNtCs489t2QWteFi_16cogni_middleware7logging5testss_35test_logging_service_usage_trackings_0B7_
FN:397,_RNCNvNtNtCs489t2QWteFi_16cogni_middleware7logging5testss_38test_logging_service_error_propagation0B7_
FN:378,_RNCNvNtNtCs489t2QWteFi_16cogni_middleware7logging5testss_39test_logging_service_trace_with_contents_0B7_
FN:522,_RNCNvNtNtCs489t2QWteFi_16cogni_middleware7logging5testss_44test_logging_service_different_content_typess_0B7_
FN:407,_RNCNvXNCNvNtNtCs489t2QWteFi_16cogni_middleware7logging5testss_38test_logging_service_error_propagation0NtB4_12ErrorServiceINtBc_7ServiceNtNtNtCsagf8dG4onv5_10cogni_core5types7request7RequestE4call0Bc_
FN:257,_RNCNvXNtNtCs489t2QWteFi_16cogni_middleware7logging5testsNtB4_11MockServiceINtB8_7ServiceNtNtNtCsagf8dG4onv5_10cogni_core5types7request7RequestE4call0B8_
FN:191,_RNvXs1_NtCs489t2QWteFi_16cogni_middleware7loggingNtB5_13LoggingStreamNtNtCs7Q3stxvKTHU_12futures_core6stream6Stream9poll_next
FNDA:8,_RNvNtNtCs489t2QWteFi_16cogni_middleware7logging5tests19create_test_request
FNDA:8,_RNvNtNtCs489t2QWteFi_16cogni_middleware7logging5tests20create_test_response
FNDA:1,_RNvNtNtCs489t2QWteFi_16cogni_middleware7logging5testss_22test_log_level_default
FNDA:1,_RNvNtNtCs489t2QWteFi_16cogni_middleware7logging5testss_24test_logging_layer_clone
FNDA:1,_RNvNtNtCs489t2QWteFi_16cogni_middleware7logging5testss_27test_logging_layer_creation
FNDA:1,_RNvNtNtCs489t2QWteFi_16cogni_middleware7logging5testss_29test_logging_service_duration
FNDA:1,_RNvNtNtCs489t2QWteFi_16cogni_middleware7logging5testss_31test_logging_service_info_level
FNDA:1,_RNvNtNtCs489t2QWteFi_16cogni_middleware7logging5testss_31test_logging_service_with_tools
FNDA:1,_RNvNtNtCs489t2QWteFi_16cogni_middleware7logging5testss_32test_logging_service_debug_level
FNDA:1,_RNvNtNtCs489t2QWteFi_16cogni_middleware7logging5testss_33test_logging_service_with_content
FNDA:1,_RNvNtNtCs489t2QWteFi_16cogni_middleware7logging5testss_35test_logging_service_usage_tracking
FNDA:1,_RNvNtNtCs489t2QWteFi_16cogni_middleware7logging5testss_38test_logging_service_error_propagation
FNDA:1,_RNvNtNtCs489t2QWteFi_16cogni_middleware7logging5testss_39test_logging_service_trace_with_content
FNDA:1,_RNvNtNtCs489t2QWteFi_16cogni_middleware7logging5testss_44test_logging_service_different_content_types
FNDA:1,_RNvNvNtNtCs489t2QWteFi_16cogni_middleware7logging5testss_29test_logging_service_duration12logs_contain
FNDA:2,_RNvNvNtNtCs489t2QWteFi_16cogni_middleware7logging5testss_31test_logging_service_info_level12logs_contain
FNDA:4,_RNvNvNtNtCs489t2QWteFi_16cogni_middleware7logging5testss_31test_logging_service_with_tools12logs_contain
FNDA:4,_RNvNvNtNtCs489t2QWteFi_16cogni_middleware7logging5testss_32test_logging_service_debug_level12logs_contain
FNDA:3,_RNvNvNtNtCs489t2QWteFi_16cogni_middleware7logging5testss_33test_logging_service_with_content12logs_contain
FNDA:4,_RNvNvNtNtCs489t2QWteFi_16cogni_middleware7logging5testss_35test_logging_service_usage_tracking12logs_contain
FNDA:3,_RNvNvNtNtCs489t2QWteFi_16cogni_middleware7logging5testss_39test_logging_service_trace_with_content12logs_contain
FNDA:3,_RNvNvNtNtCs489t2QWteFi_16cogni_middleware7logging5testss_44test_logging_service_different_content_types12logs_contain
FNDA:1,_RNvXNCNvNtNtCs489t2QWteFi_16cogni_middleware7logging5testss_38test_logging_service_error_propagation0NtB2_12ErrorServiceINtBa_7ServiceNtNtNtCsagf8dG4onv5_10cogni_core5types7request7RequestE4call
FNDA:8,_RNvXNtNtCs489t2QWteFi_16cogni_middleware7logging5testsNtB2_11MockServiceINtB6_7ServiceNtNtNtCsagf8dG4onv5_10cogni_core5types7request7RequestE4call
FNDA:10,_RNvMNtCs489t2QWteFi_16cogni_middleware7loggingNtB2_12LoggingLayer10with_level
FNDA:6,_RNvMNtCs489t2QWteFi_16cogni_middleware7loggingNtB2_12LoggingLayer12with_content
FNDA:3,_RNvMNtCs489t2QWteFi_16cogni_middleware7loggingNtB2_12LoggingLayer3new
FNDA:1,_RNCNvXs0_NtCs489t2QWteFi_16cogni_middleware7loggingINtB7_14LoggingServiceNtNCNvNtB7_5testss_38test_logging_service_error_propagation012ErrorServiceEINtB9_7ServiceNtNtNtCsagf8dG4onv5_10cogni_core5types7request7RequestE4call0B9_
FNDA:8,_RNCNvXs0_NtCs489t2QWteFi_16cogni_middleware7loggingINtB7_14LoggingServiceNtNtB7_5tests11MockServiceEINtB9_7ServiceNtNtNtCsagf8dG4onv5_10cogni_core5types7request7RequestE4call0B9_
FNDA:1,_RNvXs0_NtCs489t2QWteFi_16cogni_middleware7loggingINtB5_14LoggingServiceNtNCNvNtB5_5testss_38test_logging_service_error_propagation012ErrorServiceEINtB7_7ServiceNtNtNtCsagf8dG4onv5_10cogni_core5types7request7RequestE4callB7_
FNDA:8,_RNvXs0_NtCs489t2QWteFi_16cogni_middleware7loggingINtB5_14LoggingServiceNtNtB5_5tests11MockServiceEINtB7_7ServiceNtNtNtCsagf8dG4onv5_10cogni_core5types7request7RequestE4callB7_
FNDA:1,_RNvXs_NtCs489t2QWteFi_16cogni_middleware7loggingNtB4_12LoggingLayerINtB6_5LayerNtNCNvNtB4_5testss_38test_logging_service_error_propagation012ErrorServiceE5layerB6_
FNDA:8,_RNvXs_NtCs489t2QWteFi_16cogni_middleware7loggingNtB4_12LoggingLayerINtB6_5LayerNtNtB4_5tests11MockServiceE5layerB6_
FNDA:1,_RNCNvNtNtCs489t2QWteFi_16cogni_middleware7logging5testss_29test_logging_service_durations_0B7_
FNDA:1,_RNCNvNtNtCs489t2QWteFi_16cogni_middleware7logging5testss_31test_logging_service_info_levels_0B7_
FNDA:1,_RNCNvNtNtCs489t2QWteFi_16cogni_middleware7logging5testss_31test_logging_service_with_toolss_0B7_
FNDA:1,_RNCNvNtNtCs489t2QWteFi_16cogni_middleware7logging5testss_32test_logging_service_debug_levels_0B7_
FNDA:1,_RNCNvNtNtCs489t2QWteFi_16cogni_middleware7logging5testss_33test_logging_service_with_contents_0B7_
FNDA:1,_RNCNvNtNtCs489t2QWteFi_16cogni_middleware7logging5testss_35test_logging_service_usage_trackings_0B7_
FNDA:1,_RNCNvNtNtCs489t2QWteFi_16cogni_middleware7logging5testss_38test_logging_service_error_propagation0B7_
FNDA:1,_RNCNvNtNtCs489t2QWteFi_16cogni_middleware7logging5testss_39test_logging_service_trace_with_contents_0B7_
FNDA:1,_RNCNvNtNtCs489t2QWteFi_16cogni_middleware7logging5testss_44test_logging_service_different_content_typess_0B7_
FNDA:1,_RNCNvXNCNvNtNtCs489t2QWteFi_16cogni_middleware7logging5testss_38test_logging_service_error_propagation0NtB4_12ErrorServiceINtBc_7ServiceNtNtNtCsagf8dG4onv5_10cogni_core5types7request7RequestE4call0Bc_
FNDA:8,_RNCNvXNtNtCs489t2QWteFi_16cogni_middleware7logging5testsNtB4_11MockServiceINtB8_7ServiceNtNtNtCsagf8dG4onv5_10cogni_core5types7request7RequestE4call0B8_
FNDA:0,_RNvXs1_NtCs489t2QWteFi_16cogni_middleware7loggingNtB5_13LoggingStreamNtNtCs7Q3stxvKTHU_12futures_core6stream6Stream9poll_next
FNF:42
FNH:41
DA:34,3
DA:35,3
DA:36,3
DA:39,10
DA:40,10
DA:41,10
DA:42,10
DA:43,10
DA:44,10
DA:47,6
DA:48,6
DA:49,6
DA:50,6
DA:56,9
DA:57,9
DA:58,9
DA:59,9
DA:60,9
DA:61,9
DA:62,9
DA:82,9
DA:83,9
DA:84,9
DA:85,2
DA:86,2
DA:87,2
DA:88,2
DA:89,2
DA:91,6
DA:92,5
DA:93,5
DA:94,5
DA:95,5
DA:97,1
DA:98,1
DA:99,1
DA:100,1
DA:104,9
DA:105,9
DA:106,9
DA:109,9
DA:110,6
DA:111,1
DA:112,1
DA:113,1
DA:115,9
DA:118,9
DA:119,4
DA:120,4
DA:121,0
DA:122,5
DA:124,5
DA:127,9
DA:128,9
DA:129,9
DA:130,9
DA:131,9
DA:132,9
DA:133,9
DA:134,9
DA:135,8
DA:136,8
DA:137,8
DA:138,8
DA:139,2
DA:140,2
DA:141,2
DA:142,2
DA:143,2
DA:144,2
DA:145,2
DA:146,2
DA:148,5
DA:149,5
DA:150,5
DA:151,5
DA:152,5
DA:153,5
DA:155,1
DA:156,1
DA:157,1
DA:158,1
DA:159,1
DA:163,8
DA:164,2
DA:166,2
DA:167,1
DA:171,1
DA:174,6
DA:176,8
DA:177,9
DA:178,9
DA:191,0
DA:192,0
DA:193,0
DA:194,0
DA:195,0
DA:196,0
DA:197,0
DA:199,0
DA:200,0
DA:202,0
DA:203,0
DA:204,0
DA:205,0
DA:208,0
DA:209,0
DA:210,0
DA:211,0
DA:212,0
DA:213,0
DA:217,0
DA:218,0
DA:221,0
DA:222,0
DA:224,0
DA:226,0
DA:254,8
DA:255,8
DA:256,8
DA:257,8
DA:258,8
DA:259,8
DA:260,8
DA:261,8
DA:262,8
DA:265,8
DA:266,8
DA:267,8
DA:268,8
DA:269,8
DA:270,8
DA:271,8
DA:273,8
DA:274,8
DA:275,8
DA:276,8
DA:277,8
DA:278,8
DA:279,8
DA:280,8
DA:281,8
DA:282,8
DA:283,8
DA:284,8
DA:285,8
DA:286,8
DA:287,8
DA:288,8
DA:289,8
DA:292,1
DA:293,1
DA:294,1
DA:295,1
DA:297,1
DA:298,1
DA:299,1
DA:301,1
DA:302,1
DA:303,1
DA:304,1
DA:307,1
DA:308,1
DA:309,1
DA:310,1
DA:313,4
DA:314,1
DA:315,1
DA:316,1
DA:317,1
DA:318,1
DA:319,1
DA:320,1
DA:321,1
DA:322,1
DA:323,1
DA:324,1
DA:325,1
DA:326,1
DA:329,1
DA:330,1
DA:331,1
DA:332,1
DA:333,1
DA:336,2
DA:337,1
DA:338,1
DA:339,1
DA:340,1
DA:341,1
DA:342,1
DA:343,1
DA:344,1
DA:345,1
DA:346,1
DA:347,1
DA:348,1
DA:349,1
DA:352,1
DA:353,1
DA:354,1
DA:357,3
DA:358,1
DA:359,1
DA:360,1
DA:361,1
DA:362,1
DA:363,1
DA:364,1
DA:365,1
DA:366,1
DA:367,1
DA:368,1
DA:369,1
DA:370,1
DA:371,1
DA:372,1
DA:373,1
DA:374,1
DA:377,3
DA:378,1
DA:379,1
DA:380,1
DA:381,1
DA:382,1
DA:383,1
DA:384,1
DA:385,1
DA:386,1
DA:387,1
DA:388,1
DA:389,1
DA:390,1
DA:391,1
DA:392,1
DA:393,1
DA:394,1
DA:397,1
DA:398,1
DA:399,1
DA:400,1
DA:401,1
DA:402,1
DA:403,1
DA:404,1
DA:405,1
DA:406,1
DA:407,1
DA:408,1
DA:409,1
DA:410,1
DA:411,1
DA:412,1
DA:413,1
DA:414,1
DA:415,1
DA:416,1
DA:417,1
DA:418,1
DA:419,1
DA:420,1
DA:421,1
DA:422,1
DA:423,1
DA:424,1
DA:425,1
DA:426,1
DA:427,1
DA:428,1
DA:431,4
DA:432,1
DA:435,1
DA:436,1
DA:437,1
DA:438,1
DA:439,1
DA:440,1
DA:441,1
DA:442,1
DA:443,1
DA:444,1
DA:445,1
DA:446,1
DA:447,1
DA:448,1
DA:449,1
DA:450,1
DA:451,1
DA:452,1
DA:453,1
DA:454,1
DA:455,1
DA:456,1
DA:457,1
DA:458,1
DA:459,1
DA:460,1
DA:462,1
DA:463,1
DA:464,1
DA:465,1
DA:466,1
DA:467,1
DA:468,1
DA:469,1
DA:472,4
DA:473,1
DA:474,1
DA:475,1
DA:476,1
DA:477,1
DA:478,1
DA:479,1
DA:480,1
DA:481,1
DA:482,1
DA:483,1
DA:484,1
DA:485,1
DA:486,1
DA:487,1
DA:488,1
DA:489,1
DA:490,1
DA:493,1
DA:494,1
DA:495,1
DA:496,1
DA:497,1
DA:498,1
DA:499,1
DA:500,1
DA:501,1
DA:502,1
DA:503,1
DA:504,1
DA:505,1
DA:506,1
DA:507,1
DA:508,1
DA:511,1
DA:512,1
DA:513,1
DA:514,1
DA:515,1
DA:516,1
DA:517,1
DA:521,3
DA:522,1
DA:525,1
DA:526,1
DA:527,1
DA:528,1
DA:529,1
DA:530,1
DA:531,1
DA:532,1
DA:533,1
DA:534,1
DA:535,1
DA:536,1
DA:537,1
DA:538,1
DA:539,1
DA:540,1
DA:541,1
DA:542,1
DA:543,1
DA:544,1
DA:545,1
DA:546,1
DA:547,1
DA:548,1
DA:549,1
DA:550,1
DA:551,1
DA:552,1
DA:553,1
DA:554,1
DA:555,1
DA:556,1
DA:557,1
DA:558,1
DA:559,1
DA:560,1
DA:561,1
DA:562,1
DA:563,1
DA:564,1
DA:565,1
DA:566,1
DA:567,1
DA:568,1
DA:569,1
DA:570,1
DA:571,1
BRF:0
BRH:0
LF:436
LH:409
end_of_record
SF:/Users/jkh/Code/ai/cogni/cogni-middleware/src/rate_limit.rs
FN:401,_RNCNCNvNtNtCs489t2QWteFi_16cogni_middleware10rate_limit5testss_34test_rate_limit_service_concurrent00B9_
FN:338,_RNCNvNtNtCs489t2QWteFi_16cogni_middleware10rate_limit5testss_29test_rate_limit_service_basic0B7_
FN:250,_RNCNvNtNtCs489t2QWteFi_16cogni_middleware10rate_limit5testss_29test_token_bucket_try_acquire0B7_
FN:385,_RNCNvNtNtCs489t2QWteFi_16cogni_middleware10rate_limit5testss_34test_rate_limit_service_concurrent0B7_
FN:359,_RNCNvNtNtCs489t2QWteFi_16cogni_middleware10rate_limit5testss_34test_rate_limit_service_throttling0B7_
FN:465,_RNCNvNtNtCs489t2QWteFi_16cogni_middleware10rate_limit5testss_34test_rate_limit_with_custom_bucket0B7_
FN:269,_RNCNvNtNtCs489t2QWteFi_16cogni_middleware10rate_limit5testss_35test_token_bucket_acquire_with_wait0B7_
FN:422,_RNCNvNtNtCs489t2QWteFi_16cogni_middleware10rate_limit5testss_41test_rate_limit_service_error_propagation0B7_
FN:432,_RNCNvXNCNvNtNtCs489t2QWteFi_16cogni_middleware10rate_limit5testss_41test_rate_limit_service_error_propagation0NtB4_12ErrorServiceINtBc_7ServiceNtNtNtCsagf8dG4onv5_10cogni_core5types7request7RequestE4call0Bc_
FN:215,_RNCNvXNtNtCs489t2QWteFi_16cogni_middleware10rate_limit5testsNtB4_11MockServiceINtB8_7ServiceNtNtNtCsagf8dG4onv5_10cogni_core5types7request7RequestE4call0B8_
FN:49,_RNvMNtCs489t2QWteFi_16cogni_middleware10rate_limitNtB2_11TokenBucket11try_acquire
FN:95,_RNvMNtCs489t2QWteFi_16cogni_middleware10rate_limitNtB2_11TokenBucket18clean_old_requests
FN:107,_RNvMNtCs489t2QWteFi_16cogni_middleware10rate_limitNtB2_11TokenBucket18requests_in_window
FN:37,_RNvMNtCs489t2QWteFi_16cogni_middleware10rate_limitNtB2_11TokenBucket3new
FN:85,_RNvMNtCs489t2QWteFi_16cogni_middleware10rate_limitNtB2_11TokenBucket6refill
FN:63,_RNvMNtCs489t2QWteFi_16cogni_middleware10rate_limitNtB2_11TokenBucket7acquire
FN:127,_RNvMs_NtCs489t2QWteFi_16cogni_middleware10rate_limitNtB4_14RateLimitLayer17with_token_bucket
FN:114,_RNvMs_NtCs489t2QWteFi_16cogni_middleware10rate_limitNtB4_14RateLimitLayer3new
FN:49,_RNCNvMNtCs489t2QWteFi_16cogni_middleware10rate_limitNtB4_11TokenBucket11try_acquire0B6_
FN:63,_RNCNvMNtCs489t2QWteFi_16cogni_middleware10rate_limitNtB4_11TokenBucket7acquire0B6_
FN:167,_RNCNvXs1_NtCs489t2QWteFi_16cogni_middleware10rate_limitINtB7_16RateLimitServiceNtNCNvNtB7_5testss_41test_rate_limit_service_error_propagation012ErrorServiceEINtB9_7ServiceNtNtNtCsagf8dG4onv5_10cogni_core5types7request7RequestE4call0B9_
FN:167,_RNCNvXs1_NtCs489t2QWteFi_16cogni_middleware10rate_limitINtB7_16RateLimitServiceNtNtB7_5tests11MockServiceEINtB9_7ServiceNtNtNtCsagf8dG4onv5_10cogni_core5types7request7RequestE4call0B9_
FN:139,_RNvXs0_NtCs489t2QWteFi_16cogni_middleware10rate_limitNtB5_14RateLimitLayerINtB7_5LayerNtNCNvNtB5_5testss_41test_rate_limit_service_error_propagation012ErrorServiceE5layerB7_
FN:139,_RNvXs0_NtCs489t2QWteFi_16cogni_middleware10rate_limitNtB5_14RateLimitLayerINtB7_5LayerNtNtB5_5tests11MockServiceE5layerB7_
FN:163,_RNvXs1_NtCs489t2QWteFi_16cogni_middleware10rate_limitINtB5_16RateLimitServiceNtNCNvNtB5_5testss_41test_rate_limit_service_error_propagation012ErrorServiceEINtB7_7ServiceNtNtNtCsagf8dG4onv5_10cogni_core5types7request7RequestE4callB7_
FN:163,_RNvXs1_NtCs489t2QWteFi_16cogni_middleware10rate_limitINtB5_16RateLimitServiceNtNtB5_5tests11MockServiceEINtB7_7ServiceNtNtNtCsagf8dG4onv5_10cogni_core5types7request7RequestE4callB7_
FN:224,_RNvNtNtCs489t2QWteFi_16cogni_middleware10rate_limit5tests19create_test_request
FN:231,_RNvNtNtCs489t2QWteFi_16cogni_middleware10rate_limit5tests20create_test_response
FN:286,_RNvNtNtCs489t2QWteFi_16cogni_middleware10rate_limit5testss_24test_token_bucket_refill
FN:240,_RNvNtNtCs489t2QWteFi_16cogni_middleware10rate_limit5testss_26test_token_bucket_creation
FN:456,_RNvNtNtCs489t2QWteFi_16cogni_middleware10rate_limit5testss_27test_rate_limit_layer_clone
FN:338,_RNvNtNtCs489t2QWteFi_16cogni_middleware10rate_limit5testss_29test_rate_limit_service_basic
FN:250,_RNvNtNtCs489t2QWteFi_16cogni_middleware10rate_limit5testss_29test_token_bucket_try_acquire
FN:329,_RNvNtNtCs489t2QWteFi_16cogni_middleware10rate_limit5testss_30test_rate_limit_layer_creation
FN:385,_RNvNtNtCs489t2QWteFi_16cogni_middleware10rate_limit5testss_34test_rate_limit_service_concurrent
FN:359,_RNvNtNtCs489t2QWteFi_16cogni_middleware10rate_limit5testss_34test_rate_limit_service_throttling
FN:465,_RNvNtNtCs489t2QWteFi_16cogni_middleware10rate_limit5testss_34test_rate_limit_with_custom_bucket
FN:269,_RNvNtNtCs489t2QWteFi_16cogni_middleware10rate_limit5testss_35test_token_bucket_acquire_with_wait
FN:311,_RNvNtNtCs489t2QWteFi_16cogni_middleware10rate_limit5testss_36test_token_bucket_clean_old_requests
FN:422,_RNvNtNtCs489t2QWteFi_16cogni_middleware10rate_limit5testss_41test_rate_limit_service_error_propagation
FN:431,_RNvXNCNvNtNtCs489t2QWteFi_16cogni_middleware10rate_limit5testss_41test_rate_limit_service_error_propagation0NtB2_12ErrorServiceINtBa_7ServiceNtNtNtCsagf8dG4onv5_10cogni_core5types7request7RequestE4call
FN:210,_RNvXNtNtCs489t2QWteFi_16cogni_middleware10rate_limit5testsNtB2_11MockServiceINtB6_7ServiceNtNtNtCsagf8dG4onv5_10cogni_core5types7request7RequestE4call
FNDA:10,_RNCNCNvNtNtCs489t2QWteFi_16cogni_middleware10rate_limit5testss_34test_rate_limit_service_concurrent00B9_
FNDA:1,_RNCNvNtNtCs489t2QWteFi_16cogni_middleware10rate_limit5testss_29test_rate_limit_service_basic0B7_
FNDA:1,_RNCNvNtNtCs489t2QWteFi_16cogni_middleware10rate_limit5testss_29test_token_bucket_try_acquire0B7_
FNDA:1,_RNCNvNtNtCs489t2QWteFi_16cogni_middleware10rate_limit5testss_34test_rate_limit_service_concurrent0B7_
FNDA:1,_RNCNvNtNtCs489t2QWteFi_16cogni_middleware10rate_limit5testss_34test_rate_limit_service_throttling0B7_
FNDA:1,_RNCNvNtNtCs489t2QWteFi_16cogni_middleware10rate_limit5testss_34test_rate_limit_with_custom_bucket0B7_
FNDA:1,_RNCNvNtNtCs489t2QWteFi_16cogni_middleware10rate_limit5testss_35test_token_bucket_acquire_with_wait0B7_
FNDA:1,_RNCNvNtNtCs489t2QWteFi_16cogni_middleware10rate_limit5testss_41test_rate_limit_service_error_propagation0B7_
FNDA:1,_RNCNvXNCNvNtNtCs489t2QWteFi_16cogni_middleware10rate_limit5testss_41test_rate_limit_service_error_propagation0NtB4_12ErrorServiceINtBc_7ServiceNtNtNtCsagf8dG4onv5_10cogni_core5types7request7RequestE4call0Bc_
FNDA:25,_RNCNvXNtNtCs489t2QWteFi_16cogni_middleware10rate_limit5testsNtB4_11MockServiceINtB8_7ServiceNtNtNtCsagf8dG4onv5_10cogni_core5types7request7RequestE4call0B8_
FNDA:43,_RNvMNtCs489t2QWteFi_16cogni_middleware10rate_limitNtB2_11TokenBucket11try_acquire
FNDA:44,_RNvMNtCs489t2QWteFi_16cogni_middleware10rate_limitNtB2_11TokenBucket18clean_old_requests
FNDA:27,_RNvMNtCs489t2QWteFi_16cogni_middleware10rate_limitNtB2_11TokenBucket18requests_in_window
FNDA:13,_RNvMNtCs489t2QWteFi_16cogni_middleware10rate_limitNtB2_11TokenBucket3new
FNDA:45,_RNvMNtCs489t2QWteFi_16cogni_middleware10rate_limitNtB2_11TokenBucket6refill
FNDA:27,_RNvMNtCs489t2QWteFi_16cogni_middleware10rate_limitNtB2_11TokenBucket7acquire
FNDA:2,_RNvMs_NtCs489t2QWteFi_16cogni_middleware10rate_limitNtB4_14RateLimitLayer17with_token_bucket
FNDA:6,_RNvMs_NtCs489t2QWteFi_16cogni_middleware10rate_limitNtB4_14RateLimitLayer3new
FNDA:43,_RNCNvMNtCs489t2QWteFi_16cogni_middleware10rate_limitNtB4_11TokenBucket11try_acquire0B6_
FNDA:27,_RNCNvMNtCs489t2QWteFi_16cogni_middleware10rate_limitNtB4_11TokenBucket7acquire0B6_
FNDA:1,_RNCNvXs1_NtCs489t2QWteFi_16cogni_middleware10rate_limitINtB7_16RateLimitServiceNtNCNvNtB7_5testss_41test_rate_limit_service_error_propagation012ErrorServiceEINtB9_7ServiceNtNtNtCsagf8dG4onv5_10cogni_core5types7request7RequestE4call0B9_
FNDA:25,_RNCNvXs1_NtCs489t2QWteFi_16cogni_middleware10rate_limitINtB7_16RateLimitServiceNtNtB7_5tests11MockServiceEINtB9_7ServiceNtNtNtCsagf8dG4onv5_10cogni_core5types7request7RequestE4call0B9_
FNDA:1,_RNvXs0_NtCs489t2QWteFi_16cogni_middleware10rate_limitNtB5_14RateLimitLayerINtB7_5LayerNtNCNvNtB5_5testss_41test_rate_limit_service_error_propagation012ErrorServiceE5layerB7_
FNDA:4,_RNvXs0_NtCs489t2QWteFi_16cogni_middleware10rate_limitNtB5_14RateLimitLayerINtB7_5LayerNtNtB5_5tests11MockServiceE5layerB7_
FNDA:1,_RNvXs1_NtCs489t2QWteFi_16cogni_middleware10rate_limitINtB5_16RateLimitServiceNtNCNvNtB5_5testss_41test_rate_limit_service_error_propagation012ErrorServiceEINtB7_7ServiceNtNtNtCsagf8dG4onv5_10cogni_core5types7request7RequestE4callB7_
FNDA:25,_RNvXs1_NtCs489t2QWteFi_16cogni_middleware10rate_limitINtB5_16RateLimitServiceNtNtB5_5tests11MockServiceEINtB7_7ServiceNtNtNtCsagf8dG4onv5_10cogni_core5types7request7RequestE4callB7_
FNDA:26,_RNvNtNtCs489t2QWteFi_16cogni_middleware10rate_limit5tests19create_test_request
FNDA:4,_RNvNtNtCs489t2QWteFi_16cogni_middleware10rate_limit5tests20create_test_response
FNDA:1,_RNvNtNtCs489t2QWteFi_16cogni_middleware10rate_limit5testss_24test_token_bucket_refill
FNDA:1,_RNvNtNtCs489t2QWteFi_16cogni_middleware10rate_limit5testss_26test_token_bucket_creation
FNDA:1,_RNvNtNtCs489t2QWteFi_16cogni_middleware10rate_limit5testss_27test_rate_limit_layer_clone
FNDA:1,_RNvNtNtCs489t2QWteFi_16cogni_middleware10rate_limit5testss_29test_rate_limit_service_basic
FNDA:1,_RNvNtNtCs489t2QWteFi_16cogni_middleware10rate_limit5testss_29test_token_bucket_try_acquire
FNDA:1,_RNvNtNtCs489t2QWteFi_16cogni_middleware10rate_limit5testss_30test_rate_limit_layer_creation
FNDA:1,_RNvNtNtCs489t2QWteFi_16cogni_middleware10rate_limit5testss_34test_rate_limit_service_concurrent
FNDA:1,_RNvNtNtCs489t2QWteFi_16cogni_middleware10rate_limit5testss_34test_rate_limit_service_throttling
FNDA:1,_RNvNtNtCs489t2QWteFi_16cogni_middleware10rate_limit5testss_34test_rate_limit_with_custom_bucket
FNDA:1,_RNvNtNtCs489t2QWteFi_16cogni_middleware10rate_limit5testss_35test_token_bucket_acquire_with_wait
FNDA:1,_RNvNtNtCs489t2QWteFi_16cogni_middleware10rate_limit5testss_36test_token_bucket_clean_old_requests
FNDA:1,_RNvNtNtCs489t2QWteFi_16cogni_middleware10rate_limit5testss_41test_rate_limit_service_error_propagation
FNDA:1,_RNvXNCNvNtNtCs489t2QWteFi_16cogni_middleware10rate_limit5testss_41test_rate_limit_service_error_propagation0NtB2_12ErrorServiceINtBa_7ServiceNtNtNtCsagf8dG4onv5_10cogni_core5types7request7RequestE4call
FNDA:25,_RNvXNtNtCs489t2QWteFi_16cogni_middleware10rate_limit5testsNtB2_11MockServiceINtB6_7ServiceNtNtNtCsagf8dG4onv5_10cogni_core5types7request7RequestE4call
FNF:39
FNH:39
DA:37,13
DA:38,13
DA:39,13
DA:40,13
DA:41,13
DA:42,13
DA:43,13
DA:44,13
DA:45,13
DA:46,13
DA:49,43
DA:50,43
DA:51,43
DA:52,43
DA:53,43
DA:54,32
DA:55,32
DA:56,32
DA:58,11
DA:60,43
DA:63,27
DA:65,37
DA:66,27
DA:67,10
DA:68,10
DA:69,10
DA:70,10
DA:71,10
DA:72,10
DA:73,10
DA:74,10
DA:75,7
DA:76,7
DA:77,7
DA:80,10
DA:82,27
DA:85,45
DA:86,45
DA:87,45
DA:88,45
DA:89,45
DA:90,45
DA:91,45
DA:92,45
DA:95,44
DA:96,44
DA:97,52
DA:98,44
DA:99,8
DA:100,8
DA:101,36
DA:104,44
DA:107,27
DA:108,27
DA:109,27
DA:114,6
DA:115,6
DA:116,6
DA:117,6
DA:118,6
DA:119,6
DA:120,6
DA:121,6
DA:122,6
DA:123,6
DA:124,6
DA:127,2
DA:128,2
DA:129,2
DA:130,2
DA:131,2
DA:132,2
DA:133,2
DA:139,5
DA:140,5
DA:141,5
DA:142,5
DA:143,5
DA:144,5
DA:163,26
DA:164,26
DA:165,26
DA:166,26
DA:167,26
DA:168,26
DA:169,26
DA:171,26
DA:172,26
DA:174,14
DA:178,26
DA:179,26
DA:180,26
DA:210,25
DA:211,25
DA:212,25
DA:213,25
DA:214,25
DA:215,25
DA:216,25
DA:217,10
DA:218,15
DA:219,25
DA:220,25
DA:221,25
DA:224,26
DA:225,26
DA:226,26
DA:227,26
DA:228,26
DA:229,26
DA:231,4
DA:232,4
DA:233,4
DA:234,4
DA:235,4
DA:236,4
DA:237,4
DA:240,1
DA:241,1
DA:242,1
DA:243,1
DA:244,1
DA:245,1
DA:246,1
DA:247,1
DA:250,1
DA:251,1
DA:252,1
DA:253,1
DA:254,1
DA:255,1
DA:256,1
DA:257,1
DA:258,1
DA:259,1
DA:260,1
DA:261,1
DA:262,1
DA:263,1
DA:264,1
DA:265,1
DA:266,1
DA:269,1
DA:270,1
DA:271,1
DA:272,1
DA:273,1
DA:274,1
DA:275,1
DA:276,1
DA:277,1
DA:278,1
DA:279,1
DA:280,1
DA:281,1
DA:282,1
DA:283,1
DA:286,1
DA:287,1
DA:288,1
DA:289,1
DA:290,1
DA:291,1
DA:292,1
DA:293,1
DA:294,1
DA:295,1
DA:296,1
DA:297,1
DA:300,1
DA:301,1
DA:302,1
DA:303,1
DA:304,1
DA:305,1
DA:306,1
DA:307,1
DA:308,1
DA:311,1
DA:312,1
DA:313,1
DA:314,1
DA:315,1
DA:316,1
DA:317,1
DA:318,1
DA:319,1
DA:320,1
DA:321,1
DA:322,1
DA:323,1
DA:324,1
DA:325,1
DA:326,1
DA:329,1
DA:330,1
DA:331,1
DA:332,1
DA:333,1
DA:334,1
DA:335,1
DA:338,1
DA:339,1
DA:340,1
DA:341,1
DA:342,1
DA:343,1
DA:344,1
DA:345,1
DA:346,1
DA:347,1
DA:348,1
DA:349,6
DA:350,5
DA:351,5
DA:352,5
DA:353,1
DA:354,1
DA:355,1
DA:356,1
DA:359,1
DA:360,1
DA:361,1
DA:362,1
DA:363,1
DA:364,1
DA:365,1
DA:366,1
DA:367,1
DA:368,1
DA:369,1
DA:370,1
DA:371,1
DA:372,1
DA:373,5
DA:374,4
DA:375,4
DA:376,1
DA:377,1
DA:378,1
DA:379,1
DA:380,1
DA:381,1
DA:382,1
DA:385,1
DA:386,1
DA:387,1
DA:388,1
DA:389,1
DA:390,1
DA:391,1
DA:392,1
DA:393,1
DA:394,1
DA:395,1
DA:396,1
DA:397,1
DA:398,1
DA:399,11
DA:400,10
DA:401,10
DA:402,10
DA:403,10
DA:404,10
DA:405,10
DA:406,10
DA:407,10
DA:408,1
DA:409,1
DA:410,11
DA:411,10
DA:412,1
DA:413,1
DA:414,1
DA:415,1
DA:416,1
DA:417,1
DA:418,1
DA:419,1
DA:422,1
DA:423,1
DA:424,1
DA:425,1
DA:426,1
DA:427,1
DA:428,1
DA:429,1
DA:430,1
DA:431,1
DA:432,1
DA:433,1
DA:434,1
DA:435,1
DA:436,1
DA:437,1
DA:438,1
DA:439,1
DA:440,1
DA:441,1
DA:442,1
DA:443,1
DA:444,1
DA:445,1
DA:446,1
DA:447,1
DA:448,1
DA:449,1
DA:450,1
DA:451,1
DA:452,1
DA:453,1
DA:456,1
DA:457,1
DA:458,1
DA:459,1
DA:460,1
DA:461,1
DA:462,1
DA:465,1
DA:466,1
DA:467,1
DA:468,1
DA:469,1
DA:470,1
DA:471,1
DA:472,1
DA:473,1
DA:474,1
DA:475,1
DA:476,1
DA:477,1
DA:478,1
DA:479,7
DA:480,6
DA:481,6
DA:482,1
DA:483,1
DA:484,1
DA:485,1
DA:486,1
DA:487,1
DA:488,1
DA:489,1
DA:490,1
BRF:0
BRH:0
LF:476
LH:475
end_of_record
SF:/Users/jkh/Code/ai/cogni/cogni-middleware/src/retry.rs
FN:89,_RNCNvXs2_NtCs489t2QWteFi_16cogni_middleware5retryINtB7_12RetryServiceNtNtB7_5tests11MockServiceEINtB9_7ServiceNtNtNtCsagf8dG4onv5_10cogni_core5types7request7RequestE4call0B9_
FN:141,_RNvMs3_NtCs489t2QWteFi_16cogni_middleware5retryINtB5_12RetryServiceNtNtB5_5tests11MockServiceE12should_retryB7_
FN:156,_RNvMs3_NtCs489t2QWteFi_16cogni_middleware5retryINtB5_12RetryServiceNtNtB5_5tests11MockServiceE17calculate_backoffB7_
FN:61,_RNvXs1_NtCs489t2QWteFi_16cogni_middleware5retryNtB5_10RetryLayerINtB7_5LayerNtNtB5_5tests11MockServiceE5layerB7_
FN:85,_RNvXs2_NtCs489t2QWteFi_16cogni_middleware5retryINtB5_12RetryServiceNtNtB5_5tests11MockServiceEINtB7_7ServiceNtNtNtCsagf8dG4onv5_10cogni_core5types7request7RequestE4callB7_
FN:53,_RNvXs0_NtCs489t2QWteFi_16cogni_middleware5retryNtB5_10RetryLayerNtNtCsfvfooZQ3Axs_4core7default7Default7default
FN:240,_RNvNtNtCs489t2QWteFi_16cogni_middleware5retry5tests19create_test_request
FN:247,_RNvNtNtCs489t2QWteFi_16cogni_middleware5retry5tests20create_test_response
FN:483,_RNvNtNtCs489t2QWteFi_16cogni_middleware5retry5testss_17test_should_retry
FN:427,_RNvNtNtCs489t2QWteFi_16cogni_middleware5retry5testss_22test_calculate_backoff
FN:539,_RNvNtNtCs489t2QWteFi_16cogni_middleware5retry5testss_22test_retry_layer_clone
FN:368,_RNvNtNtCs489t2QWteFi_16cogni_middleware5retry5testss_24test_retry_timeout_error
FN:453,_RNvNtNtCs489t2QWteFi_16cogni_middleware5retry5testss_25test_retry_backoff_timing
FN:256,_RNvNtNtCs489t2QWteFi_16cogni_middleware5retry5testss_25test_retry_config_default
FN:265,_RNvNtNtCs489t2QWteFi_16cogni_middleware5retry5testss_25test_retry_layer_creation
FN:343,_RNvNtNtCs489t2QWteFi_16cogni_middleware5retry5testss_30test_retry_non_retryable_error
FN:319,_RNvNtNtCs489t2QWteFi_16cogni_middleware5retry5testss_32test_retry_max_attempts_exceeded
FN:300,_RNvNtNtCs489t2QWteFi_16cogni_middleware5retry5testss_33test_retry_success_after_failures
FN:281,_RNvNtNtCs489t2QWteFi_16cogni_middleware5retry5testss_35test_retry_success_on_first_attempt
FN:388,_RNvNtNtCs489t2QWteFi_16cogni_middleware5retry5testss_42test_retry_provider_error_with_retry_after
FN:407,_RNvNtNtCs489t2QWteFi_16cogni_middleware5retry5testss_45test_retry_provider_error_without_retry_after
FN:202,_RNvXNtNtCs489t2QWteFi_16cogni_middleware5retry5testsNtB2_11MockServiceINtB6_7ServiceNtNtNtCsagf8dG4onv5_10cogni_core5types7request7RequestE4call
FN:368,_RNCNvNtNtCs489t2QWteFi_16cogni_middleware5retry5testss_24test_retry_timeout_error0B7_
FN:453,_RNCNvNtNtCs489t2QWteFi_16cogni_middleware5retry5testss_25test_retry_backoff_timing0B7_
FN:343,_RNCNvNtNtCs489t2QWteFi_16cogni_middleware5retry5testss_30test_retry_non_retryable_error0B7_
FN:319,_RNCNvNtNtCs489t2QWteFi_16cogni_middleware5retry5testss_32test_retry_max_attempts_exceeded0B7_
FN:300,_RNCNvNtNtCs489t2QWteFi_16cogni_middleware5retry5testss_33test_retry_success_after_failures0B7_
FN:281,_RNCNvNtNtCs489t2QWteFi_16cogni_middleware5retry5testss_35test_retry_success_on_first_attempt0B7_
FN:388,_RNCNvNtNtCs489t2QWteFi_16cogni_middleware5retry5testss_42test_retry_provider_error_with_retry_after0B7_
FN:407,_RNCNvNtNtCs489t2QWteFi_16cogni_middleware5retry5testss_45test_retry_provider_error_without_retry_after0B7_
FN:208,_RNCNvXNtNtCs489t2QWteFi_16cogni_middleware5retry5testsNtB4_11MockServiceINtB8_7ServiceNtNtNtCsagf8dG4onv5_10cogni_core5types7request7RequestE4call0B8_
FN:47,_RNvMs_NtCs489t2QWteFi_16cogni_middleware5retryNtB4_10RetryLayer11with_config
FN:40,_RNvMs_NtCs489t2QWteFi_16cogni_middleware5retryNtB4_10RetryLayer3new
FN:28,_RNvXNtCs489t2QWteFi_16cogni_middleware5retryNtB2_11RetryConfigNtNtCsfvfooZQ3Axs_4core7default7Default7default
FNDA:8,_RNCNvXs2_NtCs489t2QWteFi_16cogni_middleware5retryINtB7_12RetryServiceNtNtB7_5tests11MockServiceEINtB9_7ServiceNtNtNtCsagf8dG4onv5_10cogni_core5types7request7RequestE4call0B9_
FNDA:21,_RNvMs3_NtCs489t2QWteFi_16cogni_middleware5retryINtB5_12RetryServiceNtNtB5_5tests11MockServiceE12should_retryB7_
FNDA:13,_RNvMs3_NtCs489t2QWteFi_16cogni_middleware5retryINtB5_12RetryServiceNtNtB5_5tests11MockServiceE17calculate_backoffB7_
FNDA:8,_RNvXs1_NtCs489t2QWteFi_16cogni_middleware5retryNtB5_10RetryLayerINtB7_5LayerNtNtB5_5tests11MockServiceE5layerB7_
FNDA:8,_RNvXs2_NtCs489t2QWteFi_16cogni_middleware5retryINtB5_12RetryServiceNtNtB5_5tests11MockServiceEINtB7_7ServiceNtNtNtCsagf8dG4onv5_10cogni_core5types7request7RequestE4callB7_
FNDA:0,_RNvXs0_NtCs489t2QWteFi_16cogni_middleware5retryNtB5_10RetryLayerNtNtCsfvfooZQ3Axs_4core7default7Default7default
FNDA:8,_RNvNtNtCs489t2QWteFi_16cogni_middleware5retry5tests19create_test_request
FNDA:8,_RNvNtNtCs489t2QWteFi_16cogni_middleware5retry5tests20create_test_response
FNDA:1,_RNvNtNtCs489t2QWteFi_16cogni_middleware5retry5testss_17test_should_retry
FNDA:1,_RNvNtNtCs489t2QWteFi_16cogni_middleware5retry5testss_22test_calculate_backoff
FNDA:1,_RNvNtNtCs489t2QWteFi_16cogni_middleware5retry5testss_22test_retry_layer_clone
FNDA:1,_RNvNtNtCs489t2QWteFi_16cogni_middleware5retry5testss_24test_retry_timeout_error
FNDA:1,_RNvNtNtCs489t2QWteFi_16cogni_middleware5retry5testss_25test_retry_backoff_timing
FNDA:1,_RNvNtNtCs489t2QWteFi_16cogni_middleware5retry5testss_25test_retry_config_default
FNDA:1,_RNvNtNtCs489t2QWteFi_16cogni_middleware5retry5testss_25test_retry_layer_creation
FNDA:1,_RNvNtNtCs489t2QWteFi_16cogni_middleware5retry5testss_30test_retry_non_retryable_error
FNDA:1,_RNvNtNtCs489t2QWteFi_16cogni_middleware5retry5testss_32test_retry_max_attempts_exceeded
FNDA:1,_RNvNtNtCs489t2QWteFi_16cogni_middleware5retry5testss_33test_retry_success_after_failures
FNDA:1,_RNvNtNtCs489t2QWteFi_16cogni_middleware5retry5testss_35test_retry_success_on_first_attempt
FNDA:1,_RNvNtNtCs489t2QWteFi_16cogni_middleware5retry5testss_42test_retry_provider_error_with_retry_after
FNDA:1,_RNvNtNtCs489t2QWteFi_16cogni_middleware5retry5testss_45test_retry_provider_error_without_retry_after
FNDA:17,_RNvXNtNtCs489t2QWteFi_16cogni_middleware5retry5testsNtB2_11MockServiceINtB6_7ServiceNtNtNtCsagf8dG4onv5_10cogni_core5types7request7RequestE4call
FNDA:1,_RNCNvNtNtCs489t2QWteFi_16cogni_middleware5retry5testss_24test_retry_timeout_error0B7_
FNDA:1,_RNCNvNtNtCs489t2QWteFi_16cogni_middleware5retry5testss_25test_retry_backoff_timing0B7_
FNDA:1,_RNCNvNtNtCs489t2QWteFi_16cogni_middleware5retry5testss_30test_retry_non_retryable_error0B7_
FNDA:1,_RNCNvNtNtCs489t2QWteFi_16cogni_middleware5retry5testss_32test_retry_max_attempts_exceeded0B7_
FNDA:1,_RNCNvNtNtCs489t2QWteFi_16cogni_middleware5retry5testss_33test_retry_success_after_failures0B7_
FNDA:1,_RNCNvNtNtCs489t2QWteFi_16cogni_middleware5retry5testss_35test_retry_success_on_first_attempt0B7_
FNDA:1,_RNCNvNtNtCs489t2QWteFi_16cogni_middleware5retry5testss_42test_retry_provider_error_with_retry_after0B7_
FNDA:1,_RNCNvNtNtCs489t2QWteFi_16cogni_middleware5retry5testss_45test_retry_provider_error_without_retry_after0B7_
FNDA:17,_RNCNvXNtNtCs489t2QWteFi_16cogni_middleware5retry5testsNtB4_11MockServiceINtB8_7ServiceNtNtNtCsagf8dG4onv5_10cogni_core5types7request7RequestE4call0B8_
FNDA:3,_RNvMs_NtCs489t2QWteFi_16cogni_middleware5retryNtB4_10RetryLayer11with_config
FNDA:8,_RNvMs_NtCs489t2QWteFi_16cogni_middleware5retryNtB4_10RetryLayer3new
FNDA:9,_RNvXNtCs489t2QWteFi_16cogni_middleware5retryNtB2_11RetryConfigNtNtCsfvfooZQ3Axs_4core7default7Default7default
FNF:34
FNH:33
DA:28,9
DA:29,9
DA:30,9
DA:31,9
DA:32,9
DA:33,9
DA:34,9
DA:35,9
DA:40,8
DA:41,8
DA:42,8
DA:43,8
DA:44,8
DA:47,3
DA:48,3
DA:49,3
DA:53,0
DA:54,0
DA:55,0
DA:61,8
DA:62,8
DA:63,8
DA:64,8
DA:65,8
DA:66,8
DA:85,8
DA:86,8
DA:87,8
DA:88,8
DA:89,8
DA:90,8
DA:91,8
DA:94,17
DA:95,17
DA:96,5
DA:97,5
DA:98,4
DA:99,1
DA:100,5
DA:102,12
DA:103,12
DA:104,12
DA:105,12
DA:106,2
DA:108,2
DA:110,2
DA:111,10
DA:112,10
DA:113,10
DA:114,1
DA:117,1
DA:119,1
DA:120,9
DA:121,9
DA:122,9
DA:123,9
DA:125,8
DA:126,8
DA:127,8
DA:130,9
DA:131,9
DA:135,8
DA:136,8
DA:141,21
DA:142,21
DA:143,8
DA:144,4
DA:145,3
DA:146,1
DA:147,2
DA:148,1
DA:149,1
DA:150,1
DA:151,0
DA:153,21
DA:156,13
DA:157,13
DA:158,13
DA:159,13
DA:160,13
DA:161,13
DA:162,13
DA:202,17
DA:203,17
DA:204,17
DA:205,17
DA:206,17
DA:207,17
DA:208,17
DA:209,17
DA:210,12
DA:211,7
DA:212,7
DA:213,7
DA:214,7
DA:215,2
DA:216,1
DA:218,0
DA:220,1
DA:221,1
DA:222,1
DA:223,1
DA:224,1
DA:225,1
DA:226,1
DA:227,1
DA:228,1
DA:229,1
DA:230,1
DA:231,1
DA:234,5
DA:236,17
DA:237,17
DA:240,8
DA:241,8
DA:242,8
DA:243,8
DA:244,8
DA:245,8
DA:247,8
DA:248,8
DA:249,8
DA:250,8
DA:251,8
DA:252,8
DA:253,8
DA:256,1
DA:257,1
DA:258,1
DA:259,1
DA:260,1
DA:261,1
DA:262,1
DA:265,1
DA:266,1
DA:267,1
DA:269,1
DA:270,1
DA:271,1
DA:272,1
DA:273,1
DA:274,1
DA:275,1
DA:276,1
DA:277,1
DA:278,1
DA:281,1
DA:282,1
DA:283,1
DA:284,1
DA:285,1
DA:286,1
DA:287,1
DA:288,1
DA:289,1
DA:290,1
DA:291,1
DA:292,1
DA:293,1
DA:294,1
DA:295,1
DA:296,1
DA:297,1
DA:300,1
DA:301,1
DA:302,1
DA:303,1
DA:304,1
DA:305,1
DA:306,1
DA:307,1
DA:308,1
DA:309,1
DA:310,1
DA:311,1
DA:312,1
DA:313,1
DA:314,1
DA:315,1
DA:316,1
DA:319,1
DA:320,1
DA:321,1
DA:322,1
DA:323,1
DA:324,1
DA:325,1
DA:326,1
DA:327,1
DA:328,1
DA:329,1
DA:330,1
DA:331,1
DA:332,1
DA:333,1
DA:334,1
DA:335,1
DA:336,1
DA:337,1
DA:338,1
DA:339,1
DA:340,1
DA:343,1
DA:344,1
DA:345,1
DA:346,1
DA:347,1
DA:348,1
DA:349,1
DA:350,1
DA:351,1
DA:352,1
DA:353,1
DA:354,1
DA:355,1
DA:356,1
DA:357,1
DA:358,1
DA:359,1
DA:360,1
DA:361,1
DA:362,1
DA:363,1
DA:364,1
DA:365,1
DA:368,1
DA:369,1
DA:370,1
DA:371,1
DA:372,1
DA:373,1
DA:374,1
DA:375,1
DA:376,1
DA:377,1
DA:378,1
DA:379,1
DA:380,1
DA:381,1
DA:382,1
DA:383,1
DA:384,1
DA:385,1
DA:388,1
DA:389,1
DA:390,1
DA:391,1
DA:392,1
DA:393,1
DA:394,1
DA:395,1
DA:396,1
DA:397,1
DA:398,1
DA:399,1
DA:400,1
DA:401,1
DA:402,1
DA:403,1
DA:404,1
DA:407,1
DA:408,1
DA:409,1
DA:410,1
DA:411,1
DA:412,1
DA:413,1
DA:414,1
DA:415,1
DA:416,1
DA:417,1
DA:418,1
DA:419,1
DA:420,1
DA:421,1
DA:422,1
DA:423,1
DA:424,1
DA:427,1
DA:428,1
DA:429,1
DA:430,1
DA:431,1
DA:432,1
DA:433,1
DA:434,1
DA:435,1
DA:436,1
DA:437,1
DA:440,1
DA:441,1
DA:444,1
DA:445,1
DA:448,1
DA:449,1
DA:450,1
DA:453,1
DA:454,1
DA:455,1
DA:456,1
DA:457,1
DA:458,1
DA:459,1
DA:460,1
DA:461,1
DA:462,1
DA:463,1
DA:464,1
DA:465,1
DA:466,1
DA:467,1
DA:468,1
DA:469,1
DA:470,1
DA:471,1
DA:472,1
DA:473,1
DA:474,1
DA:475,1
DA:476,1
DA:477,1
DA:478,1
DA:479,1
DA:480,1
DA:483,1
DA:484,1
DA:485,1
DA:486,1
DA:487,1
DA:488,1
DA:491,1
DA:494,1
DA:495,1
DA:496,1
DA:497,1
DA:498,1
DA:499,1
DA:502,1
DA:503,1
DA:504,1
DA:505,1
DA:506,1
DA:507,1
DA:510,1
DA:511,1
DA:512,1
DA:515,1
DA:516,1
DA:517,1
DA:520,1
DA:521,1
DA:522,1
DA:525,1
DA:526,1
DA:527,1
DA:528,1
DA:529,1
DA:530,1
DA:533,1
DA:534,1
DA:535,1
DA:536,1
DA:539,1
DA:540,1
DA:541,1
DA:542,1
DA:543,1
DA:544,1
DA:545,1
DA:546,1
DA:547,1
DA:548,1
DA:549,1
DA:550,1
DA:551,1
DA:552,1
DA:553,1
DA:554,1
DA:555,1
DA:556,1
BRF:0
BRH:0
LF:525
LH:518
end_of_record
SF:/Users/jkh/Code/ai/cogni/cogni-middleware/src/state.rs
FN:265,_RNCNvNtNtCs489t2QWteFi_16cogni_middleware5state5testss_38test_state_middleware_new_conversation0B7_
FN:318,_RNCNvNtNtCs489t2QWteFi_16cogni_middleware5state5testss_42test_state_middleware_conversation_history0B7_
FN:287,_RNCNvNtNtCs489t2QWteFi_16cogni_middleware5state5testss_42test_state_middleware_with_conversation_id0B7_
FN:265,_RNvNtNtCs489t2QWteFi_16cogni_middleware5state5testss_38test_state_middleware_new_conversation
FN:318,_RNvNtNtCs489t2QWteFi_16cogni_middleware5state5testss_42test_state_middleware_conversation_history
FN:287,_RNvNtNtCs489t2QWteFi_16cogni_middleware5state5testss_42test_state_middleware_with_conversation_id
FN:50,_RNvMs_NtCs489t2QWteFi_16cogni_middleware5stateNtB4_10StateLayer11with_config
FN:129,_RNCNCNvMs1_NtCs489t2QWteFi_16cogni_middleware5stateINtB9_12StateServiceNtNtBb_5tests11EchoServiceE12update_state00Bb_
FN:163,_RNCNCNvMs1_NtCs489t2QWteFi_16cogni_middleware5stateINtB9_12StateServiceNtNtBb_5tests11EchoServiceE12update_state0s0_0Bb_
FN:157,_RNCNCNvMs1_NtCs489t2QWteFi_16cogni_middleware5stateINtB9_12StateServiceNtNtBb_5tests11EchoServiceE12update_state0s_0Bb_
FN:126,_RNCNvMs1_NtCs489t2QWteFi_16cogni_middleware5stateINtB7_12StateServiceNtNtB9_5tests11EchoServiceE12update_state0B9_
FN:81,_RNCNvMs1_NtCs489t2QWteFi_16cogni_middleware5stateINtB7_12StateServiceNtNtB9_5tests11EchoServiceE19get_or_create_state0B9_
FN:116,_RNCNvMs1_NtCs489t2QWteFi_16cogni_middleware5stateINtB7_12StateServiceNtNtB9_5tests11EchoServiceE23extract_conversation_id0B9_
FN:117,_RNCNvMs1_NtCs489t2QWteFi_16cogni_middleware5stateINtB7_12StateServiceNtNtB9_5tests11EchoServiceE23extract_conversation_ids_0B9_
FN:184,_RNCNvXs2_NtCs489t2QWteFi_16cogni_middleware5stateINtB7_12StateServiceNtNtB9_5tests11EchoServiceEINtB9_7ServiceNtNtNtCsagf8dG4onv5_10cogni_core5types7request7RequestE4call0B9_
FN:121,_RNvMs1_NtCs489t2QWteFi_16cogni_middleware5stateINtB5_12StateServiceNtNtB7_5tests11EchoServiceE12update_stateB7_
FN:78,_RNvMs1_NtCs489t2QWteFi_16cogni_middleware5stateINtB5_12StateServiceNtNtB7_5tests11EchoServiceE19get_or_create_stateB7_
FN:111,_RNvMs1_NtCs489t2QWteFi_16cogni_middleware5stateINtB5_12StateServiceNtNtB7_5tests11EchoServiceE23extract_conversation_idB7_
FN:58,_RNvXs0_NtCs489t2QWteFi_16cogni_middleware5stateNtB5_10StateLayerINtB7_5LayerNtNtB7_5tests11EchoServiceE5layerB7_
FN:179,_RNvXs2_NtCs489t2QWteFi_16cogni_middleware5stateINtB5_12StateServiceNtNtB7_5tests11EchoServiceEINtB7_7ServiceNtNtNtCsagf8dG4onv5_10cogni_core5types7request7RequestE4callB7_
FN:247,_RNvXs3_NtCs489t2QWteFi_16cogni_middleware5stateINtB5_12StateServiceNtNtB7_5tests11EchoServiceENtNtCsfvfooZQ3Axs_4core5clone5Clone5cloneB7_
FN:42,_RNvMs_NtCs489t2QWteFi_16cogni_middleware5stateNtB4_10StateLayer3new
FN:24,_RNvXNtCs489t2QWteFi_16cogni_middleware5stateNtB2_11StateConfigNtNtCsfvfooZQ3Axs_4core7default7Default7default
FNDA:1,_RNCNvNtNtCs489t2QWteFi_16cogni_middleware5state5testss_38test_state_middleware_new_conversation0B7_
FNDA:1,_RNCNvNtNtCs489t2QWteFi_16cogni_middleware5state5testss_42test_state_middleware_conversation_history0B7_
FNDA:1,_RNCNvNtNtCs489t2QWteFi_16cogni_middleware5state5testss_42test_state_middleware_with_conversation_id0B7_
FNDA:1,_RNvNtNtCs489t2QWteFi_16cogni_middleware5state5testss_38test_state_middleware_new_conversation
FNDA:1,_RNvNtNtCs489t2QWteFi_16cogni_middleware5state5testss_42test_state_middleware_conversation_history
FNDA:1,_RNvNtNtCs489t2QWteFi_16cogni_middleware5state5testss_42test_state_middleware_with_conversation_id
FNDA:0,_RNvMs_NtCs489t2QWteFi_16cogni_middleware5stateNtB4_10StateLayer11with_config
FNDA:2,_RNCNCNvMs1_NtCs489t2QWteFi_16cogni_middleware5stateINtB9_12StateServiceNtNtBb_5tests11EchoServiceE12update_state00Bb_
FNDA:0,_RNCNCNvMs1_NtCs489t2QWteFi_16cogni_middleware5stateINtB9_12StateServiceNtNtBb_5tests11EchoServiceE12update_state0s0_0Bb_
FNDA:3,_RNCNCNvMs1_NtCs489t2QWteFi_16cogni_middleware5stateINtB9_12StateServiceNtNtBb_5tests11EchoServiceE12update_state0s_0Bb_
FNDA:3,_RNCNvMs1_NtCs489t2QWteFi_16cogni_middleware5stateINtB7_12StateServiceNtNtB9_5tests11EchoServiceE12update_state0B9_
FNDA:3,_RNCNvMs1_NtCs489t2QWteFi_16cogni_middleware5stateINtB7_12StateServiceNtNtB9_5tests11EchoServiceE19get_or_create_state0B9_
FNDA:3,_RNCNvMs1_NtCs489t2QWteFi_16cogni_middleware5stateINtB7_12StateServiceNtNtB9_5tests11EchoServiceE23extract_conversation_id0B9_
FNDA:2,_RNCNvMs1_NtCs489t2QWteFi_16cogni_middleware5stateINtB7_12StateServiceNtNtB9_5tests11EchoServiceE23extract_conversation_ids_0B9_
FNDA:3,_RNCNvXs2_NtCs489t2QWteFi_16cogni_middleware5stateINtB7_12StateServiceNtNtB9_5tests11EchoServiceEINtB9_7ServiceNtNtNtCsagf8dG4onv5_10cogni_core5types7request7RequestE4call0B9_
FNDA:3,_RNvMs1_NtCs489t2QWteFi_16cogni_middleware5stateINtB5_12StateServiceNtNtB7_5tests11EchoServiceE12update_stateB7_
FNDA:3,_RNvMs1_NtCs489t2QWteFi_16cogni_middleware5stateINtB5_12StateServiceNtNtB7_5tests11EchoServiceE19get_or_create_stateB7_
FNDA:3,_RNvMs1_NtCs489t2QWteFi_16cogni_middleware5stateINtB5_12StateServiceNtNtB7_5tests11EchoServiceE23extract_conversation_idB7_
FNDA:3,_RNvXs0_NtCs489t2QWteFi_16cogni_middleware5stateNtB5_10StateLayerINtB7_5LayerNtNtB7_5tests11EchoServiceE5layerB7_
FNDA:3,_RNvXs2_NtCs489t2QWteFi_16cogni_middleware5stateINtB5_12StateServiceNtNtB7_5tests11EchoServiceEINtB7_7ServiceNtNtNtCsagf8dG4onv5_10cogni_core5types7request7RequestE4callB7_
FNDA:3,_RNvXs3_NtCs489t2QWteFi_16cogni_middleware5stateINtB5_12StateServiceNtNtB7_5tests11EchoServiceENtNtCsfvfooZQ3Axs_4core5clone5Clone5cloneB7_
FNDA:3,_RNvMs_NtCs489t2QWteFi_16cogni_middleware5stateNtB4_10StateLayer3new
FNDA:3,_RNvXNtCs489t2QWteFi_16cogni_middleware5stateNtB2_11StateConfigNtNtCsfvfooZQ3Axs_4core7default7Default7default
FNF:23
FNH:21
DA:24,3
DA:25,3
DA:26,3
DA:27,3
DA:28,3
DA:29,3
DA:30,3
DA:42,3
DA:43,3
DA:44,3
DA:45,3
DA:46,3
DA:47,3
DA:50,0
DA:51,0
DA:52,0
DA:58,3
DA:59,3
DA:60,3
DA:61,3
DA:62,3
DA:63,3
DA:64,3
DA:65,3
DA:78,3
DA:79,3
DA:80,3
DA:81,3
DA:82,3
DA:84,2
DA:85,2
DA:86,0
DA:87,2
DA:88,2
DA:89,2
DA:90,2
DA:91,2
DA:92,1
DA:93,1
DA:94,1
DA:95,1
DA:99,1
DA:100,1
DA:101,1
DA:106,1
DA:108,3
DA:111,3
DA:112,3
DA:113,3
DA:114,3
DA:115,3
DA:116,3
DA:117,3
DA:118,3
DA:121,3
DA:122,3
DA:123,3
DA:124,3
DA:125,3
DA:126,3
DA:128,3
DA:129,3
DA:130,3
DA:131,3
DA:132,0
DA:135,3
DA:136,3
DA:137,3
DA:140,3
DA:141,0
DA:142,0
DA:143,3
DA:146,3
DA:147,3
DA:148,3
DA:149,3
DA:150,3
DA:151,3
DA:152,3
DA:153,3
DA:154,3
DA:155,3
DA:156,3
DA:157,3
DA:158,3
DA:160,2
DA:161,2
DA:162,2
DA:163,2
DA:164,1
DA:166,3
DA:167,3
DA:179,3
DA:180,3
DA:181,3
DA:182,3
DA:183,3
DA:184,3
DA:185,3
DA:186,3
DA:187,3
DA:188,3
DA:193,3
DA:196,3
DA:197,3
DA:198,3
DA:199,3
DA:200,1
DA:201,0
DA:202,0
DA:203,0
DA:204,0
DA:205,0
DA:206,0
DA:207,0
DA:208,0
DA:210,1
DA:214,1
DA:215,1
DA:216,1
DA:217,2
DA:220,3
DA:223,3
DA:224,3
DA:225,3
DA:226,3
DA:227,3
DA:228,3
DA:229,3
DA:230,3
DA:231,3
DA:232,3
DA:233,3
DA:234,3
DA:236,3
DA:237,3
DA:240,3
DA:241,3
DA:242,3
DA:247,3
DA:248,3
DA:249,3
DA:250,3
DA:251,3
DA:252,3
DA:253,3
DA:254,3
DA:265,1
DA:266,1
DA:267,1
DA:268,1
DA:269,1
DA:270,1
DA:271,1
DA:272,1
DA:273,1
DA:274,1
DA:275,1
DA:276,1
DA:277,1
DA:278,1
DA:279,1
DA:280,1
DA:281,1
DA:282,1
DA:283,1
DA:284,1
DA:287,1
DA:288,1
DA:289,1
DA:290,1
DA:291,1
DA:292,1
DA:293,1
DA:294,1
DA:295,1
DA:296,1
DA:297,1
DA:298,1
DA:299,1
DA:300,1
DA:301,1
DA:302,1
DA:303,1
DA:304,1
DA:305,1
DA:306,1
DA:307,1
DA:308,1
DA:309,1
DA:310,1
DA:311,1
DA:312,1
DA:313,1
DA:314,1
DA:315,1
DA:318,1
DA:319,1
DA:320,1
DA:321,1
DA:322,1
DA:323,1
DA:324,1
DA:325,1
DA:326,1
DA:327,1
DA:328,1
DA:329,1
DA:330,1
DA:331,1
DA:332,1
DA:333,1
DA:334,1
DA:335,1
DA:336,1
DA:337,1
DA:338,1
DA:339,1
DA:340,1
DA:341,1
DA:342,1
DA:343,1
DA:344,1
DA:345,1
DA:346,1
DA:347,1
DA:348,1
DA:349,1
DA:350,1
DA:351,1
BRF:0
BRH:0
LF:310
LH:294
end_of_record
SF:/Users/jkh/Code/ai/cogni/cogni-providers/src/anthropic/config.rs
FN:15,_RNvXNtNtCsgcJ8I9f45GG_15cogni_providers9anthropic6configNtB2_15AnthropicConfigNtNtCsfvfooZQ3Axs_4core7default7Default7default
FN:15,_RNvXNtNtCs1EirRVmYTZ6_15cogni_providers9anthropic6configNtB2_15AnthropicConfigNtNtCsfvfooZQ3Axs_4core7default7Default7default
FNDA:0,_RNvXNtNtCsgcJ8I9f45GG_15cogni_providers9anthropic6configNtB2_15AnthropicConfigNtNtCsfvfooZQ3Axs_4core7default7Default7default
FNDA:2,_RNvXNtNtCs1EirRVmYTZ6_15cogni_providers9anthropic6configNtB2_15AnthropicConfigNtNtCsfvfooZQ3Axs_4core7default7Default7default
FNF:1
FNH:1
DA:15,2
DA:16,2
DA:17,2
DA:18,2
DA:19,2
DA:20,2
DA:21,2
BRF:0
BRH:0
LF:7
LH:7
end_of_record
SF:/Users/jkh/Code/ai/cogni/cogni-providers/src/anthropic/converter.rs
FN:215,_RNvNtNtCs1EirRVmYTZ6_15cogni_providers9anthropic9converter15convert_content
FN:253,_RNvNtNtCs1EirRVmYTZ6_15cogni_providers9anthropic9converter18extract_tool_calls
FN:241,_RNvNtNtCs1EirRVmYTZ6_15cogni_providers9anthropic9converter20extract_text_content
FN:127,_RNvNtNtCs1EirRVmYTZ6_15cogni_providers9anthropic9converter20to_anthropic_request
FN:230,_RNCNvNtNtCs1EirRVmYTZ6_15cogni_providers9anthropic9converter15convert_content0B7_
FN:257,_RNCNvNtNtCs1EirRVmYTZ6_15cogni_providers9anthropic9converter18extract_tool_calls0B7_
FN:245,_RNCNvNtNtCs1EirRVmYTZ6_15cogni_providers9anthropic9converter20extract_text_content0B7_
FN:179,_RNCNvNtNtCs1EirRVmYTZ6_15cogni_providers9anthropic9converter20to_anthropic_request0B7_
FN:188,_RNCNvNtNtCs1EirRVmYTZ6_15cogni_providers9anthropic9converter20to_anthropic_requests_0B7_
FN:230,_RNCNvNtNtCsgcJ8I9f45GG_15cogni_providers9anthropic9converter15convert_content0B7_
FN:257,_RNCNvNtNtCsgcJ8I9f45GG_15cogni_providers9anthropic9converter18extract_tool_calls0B7_
FN:245,_RNCNvNtNtCsgcJ8I9f45GG_15cogni_providers9anthropic9converter20extract_text_content0B7_
FN:179,_RNCNvNtNtCsgcJ8I9f45GG_15cogni_providers9anthropic9converter20to_anthropic_request0B7_
FN:188,_RNCNvNtNtCsgcJ8I9f45GG_15cogni_providers9anthropic9converter20to_anthropic_requests_0B7_
FN:215,_RNvNtNtCsgcJ8I9f45GG_15cogni_providers9anthropic9converter15convert_content
FN:253,_RNvNtNtCsgcJ8I9f45GG_15cogni_providers9anthropic9converter18extract_tool_calls
FN:241,_RNvNtNtCsgcJ8I9f45GG_15cogni_providers9anthropic9converter20extract_text_content
FN:127,_RNvNtNtCsgcJ8I9f45GG_15cogni_providers9anthropic9converter20to_anthropic_request
FNDA:2,_RNvNtNtCs1EirRVmYTZ6_15cogni_providers9anthropic9converter15convert_content
FNDA:1,_RNvNtNtCs1EirRVmYTZ6_15cogni_providers9anthropic9converter18extract_tool_calls
FNDA:1,_RNvNtNtCs1EirRVmYTZ6_15cogni_providers9anthropic9converter20extract_text_content
FNDA:2,_RNvNtNtCs1EirRVmYTZ6_15cogni_providers9anthropic9converter20to_anthropic_request
FNDA:0,_RNCNvNtNtCs1EirRVmYTZ6_15cogni_providers9anthropic9converter15convert_content0B7_
FNDA:2,_RNCNvNtNtCs1EirRVmYTZ6_15cogni_providers9anthropic9converter18extract_tool_calls0B7_
FNDA:2,_RNCNvNtNtCs1EirRVmYTZ6_15cogni_providers9anthropic9converter20extract_text_content0B7_
FNDA:3,_RNCNvNtNtCs1EirRVmYTZ6_15cogni_providers9anthropic9converter20to_anthropic_request0B7_
FNDA:0,_RNCNvNtNtCs1EirRVmYTZ6_15cogni_providers9anthropic9converter20to_anthropic_requests_0B7_
FNDA:0,_RNCNvNtNtCsgcJ8I9f45GG_15cogni_providers9anthropic9converter15convert_content0B7_
FNDA:0,_RNCNvNtNtCsgcJ8I9f45GG_15cogni_providers9anthropic9converter18extract_tool_calls0B7_
FNDA:0,_RNCNvNtNtCsgcJ8I9f45GG_15cogni_providers9anthropic9converter20extract_text_content0B7_
FNDA:0,_RNCNvNtNtCsgcJ8I9f45GG_15cogni_providers9anthropic9converter20to_anthropic_request0B7_
FNDA:0,_RNCNvNtNtCsgcJ8I9f45GG_15cogni_providers9anthropic9converter20to_anthropic_requests_0B7_
FNDA:0,_RNvNtNtCsgcJ8I9f45GG_15cogni_providers9anthropic9converter15convert_content
FNDA:0,_RNvNtNtCsgcJ8I9f45GG_15cogni_providers9anthropic9converter18extract_tool_calls
FNDA:0,_RNvNtNtCsgcJ8I9f45GG_15cogni_providers9anthropic9converter20extract_text_content
FNDA:0,_RNvNtNtCsgcJ8I9f45GG_15cogni_providers9anthropic9converter20to_anthropic_request
FNF:9
FNH:7
DA:127,2
DA:128,2
DA:129,2
DA:131,4
DA:132,2
DA:135,0
DA:136,0
DA:137,0
DA:139,2
DA:140,2
DA:141,2
DA:142,2
DA:143,2
DA:144,2
DA:145,0
DA:146,0
DA:147,0
DA:148,0
DA:149,0
DA:150,0
DA:153,0
DA:154,0
DA:155,0
DA:156,0
DA:157,0
DA:158,0
DA:159,0
DA:160,0
DA:161,0
DA:162,0
DA:163,0
DA:167,0
DA:172,2
DA:173,0
DA:175,2
DA:176,2
DA:177,2
DA:178,2
DA:179,3
DA:180,3
DA:181,3
DA:182,3
DA:183,3
DA:184,2
DA:185,2
DA:188,2
DA:189,0
DA:190,0
DA:191,0
DA:192,0
DA:193,0
DA:194,0
DA:195,0
DA:196,0
DA:199,0
DA:201,2
DA:202,2
DA:203,2
DA:204,2
DA:205,2
DA:206,2
DA:207,2
DA:208,2
DA:209,2
DA:210,2
DA:211,2
DA:212,2
DA:213,2
DA:215,2
DA:216,2
DA:217,2
DA:220,0
DA:224,0
DA:226,0
DA:227,0
DA:228,0
DA:229,0
DA:230,0
DA:231,0
DA:232,0
DA:233,0
DA:234,0
DA:235,0
DA:236,0
DA:239,2
DA:241,1
DA:242,1
DA:243,1
DA:244,1
DA:245,2
DA:246,1
DA:247,1
DA:248,2
DA:249,1
DA:250,1
DA:251,1
DA:253,1
DA:254,1
DA:255,1
DA:256,1
DA:257,2
DA:258,1
DA:259,1
DA:260,1
DA:261,1
DA:262,1
DA:263,1
DA:264,2
DA:265,1
DA:266,1
BRF:0
BRH:0
LF:120
LH:72
end_of_record
SF:/Users/jkh/Code/ai/cogni/cogni-providers/src/anthropic/parser.rs
FN:32,_RNvNtNtCs1EirRVmYTZ6_15cogni_providers9anthropic6parser11parse_usage
FN:6,_RNvNtNtCs1EirRVmYTZ6_15cogni_providers9anthropic6parser14parse_response
FN:32,_RNvNtNtCsgcJ8I9f45GG_15cogni_providers9anthropic6parser11parse_usage
FN:6,_RNvNtNtCsgcJ8I9f45GG_15cogni_providers9anthropic6parser14parse_response
FNDA:1,_RNvNtNtCs1EirRVmYTZ6_15cogni_providers9anthropic6parser11parse_usage
FNDA:1,_RNvNtNtCs1EirRVmYTZ6_15cogni_providers9anthropic6parser14parse_response
FNDA:0,_RNvNtNtCsgcJ8I9f45GG_15cogni_providers9anthropic6parser11parse_usage
FNDA:0,_RNvNtNtCsgcJ8I9f45GG_15cogni_providers9anthropic6parser14parse_response
FNF:2
FNH:2
DA:6,1
DA:7,1
DA:8,1
DA:9,1
DA:10,1
DA:11,1
DA:12,1
DA:14,0
DA:17,1
DA:18,1
DA:19,1
DA:20,1
DA:21,1
DA:22,1
DA:23,1
DA:24,1
DA:25,1
DA:26,1
DA:27,1
DA:28,1
DA:29,1
DA:30,1
DA:32,1
DA:33,1
DA:34,1
DA:35,1
DA:36,1
DA:37,1
DA:38,1
BRF:0
BRH:0
LF:29
LH:28
end_of_record
SF:/Users/jkh/Code/ai/cogni/cogni-providers/src/anthropic/provider.rs
FN:33,_RINvMNtNtCs1EirRVmYTZ6_15cogni_providers9anthropic8providerNtB3_9Anthropic12with_api_keypEB7_
FN:81,_RNCNCNvXs1_NtNtCs1EirRVmYTZ6_15cogni_providers9anthropic8providerNtB9_9AnthropicNtNtCsagf8dG4onv5_10cogni_core8provider8Provider6stream00Bd_
FN:69,_RNCNvXs1_NtNtCs1EirRVmYTZ6_15cogni_providers9anthropic8providerNtB7_9AnthropicNtNtCsagf8dG4onv5_10cogni_core8provider8Provider6stream0Bb_
FN:46,_RNCNvXs1_NtNtCs1EirRVmYTZ6_15cogni_providers9anthropic8providerNtB7_9AnthropicNtNtCsagf8dG4onv5_10cogni_core8provider8Provider7request0Bb_
FN:33,_RINvMNtNtCsgcJ8I9f45GG_15cogni_providers9anthropic8providerNtB3_9Anthropic12with_api_keypEB7_
FN:81,_RNCNCNvXs1_NtNtCsgcJ8I9f45GG_15cogni_providers9anthropic8providerNtB9_9AnthropicNtNtCsagf8dG4onv5_10cogni_core8provider8Provider6stream00Bd_
FN:69,_RNCNvXs1_NtNtCsgcJ8I9f45GG_15cogni_providers9anthropic8providerNtB7_9AnthropicNtNtCsagf8dG4onv5_10cogni_core8provider8Provider6stream0Bb_
FN:46,_RNCNvXs1_NtNtCsgcJ8I9f45GG_15cogni_providers9anthropic8providerNtB7_9AnthropicNtNtCsagf8dG4onv5_10cogni_core8provider8Provider7request0Bb_
FN:25,_RNvMNtNtCsgcJ8I9f45GG_15cogni_providers9anthropic8providerNtB2_9Anthropic3new
FN:87,_RNvXs1_NtNtCsgcJ8I9f45GG_15cogni_providers9anthropic8providerNtB5_9AnthropicNtNtCsagf8dG4onv5_10cogni_core8provider8Provider6stream
FN:67,_RNvXs1_NtNtCsgcJ8I9f45GG_15cogni_providers9anthropic8providerNtB5_9AnthropicNtNtCsagf8dG4onv5_10cogni_core8provider8Provider7request
FN:33,_RINvMNtNtCs1EirRVmYTZ6_15cogni_providers9anthropic8providerNtB3_9Anthropic12with_api_keyNtNtCse1nGBsou5OW_5alloc6string6StringECskDMj0mycnZW_21tool_integration_test
FN:25,_RNvMNtNtCs1EirRVmYTZ6_15cogni_providers9anthropic8providerNtB2_9Anthropic3new
FN:87,_RNvXs1_NtNtCs1EirRVmYTZ6_15cogni_providers9anthropic8providerNtB5_9AnthropicNtNtCsagf8dG4onv5_10cogni_core8provider8Provider6stream
FN:67,_RNvXs1_NtNtCs1EirRVmYTZ6_15cogni_providers9anthropic8providerNtB5_9AnthropicNtNtCsagf8dG4onv5_10cogni_core8provider8Provider7request
FN:33,_RINvMNtNtCs1EirRVmYTZ6_15cogni_providers9anthropic8providerNtB3_9Anthropic12with_api_keyNtNtCse1nGBsou5OW_5alloc6string6StringECscJLei9umsYl_19tool_streaming_test
FNDA:0,_RINvMNtNtCs1EirRVmYTZ6_15cogni_providers9anthropic8providerNtB3_9Anthropic12with_api_keypEB7_
FNDA:0,_RNCNCNvXs1_NtNtCs1EirRVmYTZ6_15cogni_providers9anthropic8providerNtB9_9AnthropicNtNtCsagf8dG4onv5_10cogni_core8provider8Provider6stream00Bd_
FNDA:1,_RNCNvXs1_NtNtCs1EirRVmYTZ6_15cogni_providers9anthropic8providerNtB7_9AnthropicNtNtCsagf8dG4onv5_10cogni_core8provider8Provider6stream0Bb_
FNDA:1,_RNCNvXs1_NtNtCs1EirRVmYTZ6_15cogni_providers9anthropic8providerNtB7_9AnthropicNtNtCsagf8dG4onv5_10cogni_core8provider8Provider7request0Bb_
FNDA:0,_RINvMNtNtCsgcJ8I9f45GG_15cogni_providers9anthropic8providerNtB3_9Anthropic12with_api_keypEB7_
FNDA:0,_RNCNCNvXs1_NtNtCsgcJ8I9f45GG_15cogni_providers9anthropic8providerNtB9_9AnthropicNtNtCsagf8dG4onv5_10cogni_core8provider8Provider6stream00Bd_
FNDA:0,_RNCNvXs1_NtNtCsgcJ8I9f45GG_15cogni_providers9anthropic8providerNtB7_9AnthropicNtNtCsagf8dG4onv5_10cogni_core8provider8Provider6stream0Bb_
FNDA:0,_RNCNvXs1_NtNtCsgcJ8I9f45GG_15cogni_providers9anthropic8providerNtB7_9AnthropicNtNtCsagf8dG4onv5_10cogni_core8provider8Provider7request0Bb_
FNDA:0,_RNvMNtNtCsgcJ8I9f45GG_15cogni_providers9anthropic8providerNtB2_9Anthropic3new
FNDA:0,_RNvXs1_NtNtCsgcJ8I9f45GG_15cogni_providers9anthropic8providerNtB5_9AnthropicNtNtCsagf8dG4onv5_10cogni_core8provider8Provider6stream
FNDA:0,_RNvXs1_NtNtCsgcJ8I9f45GG_15cogni_providers9anthropic8providerNtB5_9AnthropicNtNtCsagf8dG4onv5_10cogni_core8provider8Provider7request
FNDA:1,_RINvMNtNtCs1EirRVmYTZ6_15cogni_providers9anthropic8providerNtB3_9Anthropic12with_api_keyNtNtCse1nGBsou5OW_5alloc6string6StringECskDMj0mycnZW_21tool_integration_test
FNDA:2,_RNvMNtNtCs1EirRVmYTZ6_15cogni_providers9anthropic8providerNtB2_9Anthropic3new
FNDA:1,_RNvXs1_NtNtCs1EirRVmYTZ6_15cogni_providers9anthropic8providerNtB5_9AnthropicNtNtCsagf8dG4onv5_10cogni_core8provider8Provider6stream
FNDA:1,_RNvXs1_NtNtCs1EirRVmYTZ6_15cogni_providers9anthropic8providerNtB5_9AnthropicNtNtCsagf8dG4onv5_10cogni_core8provider8Provider7request
FNDA:1,_RINvMNtNtCs1EirRVmYTZ6_15cogni_providers9anthropic8providerNtB3_9Anthropic12with_api_keyNtNtCse1nGBsou5OW_5alloc6string6StringECscJLei9umsYl_19tool_streaming_test
FNF:7
FNH:6
DA:25,2
DA:26,2
DA:27,2
DA:28,2
DA:29,2
DA:30,2
DA:33,2
DA:34,2
DA:35,2
DA:36,2
DA:37,2
DA:38,2
DA:39,2
DA:46,1
DA:47,1
DA:48,1
DA:50,1
DA:51,1
DA:52,1
DA:53,1
DA:54,1
DA:55,1
DA:56,1
DA:57,1
DA:58,1
DA:59,1
DA:61,1
DA:63,1
DA:64,1
DA:66,1
DA:67,2
DA:69,1
DA:70,1
DA:71,1
DA:73,1
DA:74,1
DA:75,1
DA:76,1
DA:77,1
DA:78,1
DA:79,1
DA:80,1
DA:81,1
DA:82,0
DA:83,0
DA:84,1
DA:86,1
DA:87,2
BRF:0
BRH:0
LF:52
LH:48
end_of_record
SF:/Users/jkh/Code/ai/cogni/cogni-providers/src/anthropic/stream.rs
FN:37,_RNCNvMNtNtCs1EirRVmYTZ6_15cogni_providers9anthropic6streamNtB4_15AnthropicStream11parse_event0B8_
FN:35,_RNvMNtNtCs1EirRVmYTZ6_15cogni_providers9anthropic6streamNtB2_15AnthropicStream11parse_event
FN:23,_RNvMNtNtCs1EirRVmYTZ6_15cogni_providers9anthropic6streamNtB2_15AnthropicStream3new
FN:125,_RNvXs_NtNtCs1EirRVmYTZ6_15cogni_providers9anthropic6streamNtB4_15AnthropicStreamNtNtCs7Q3stxvKTHU_12futures_core6stream6Stream9poll_next
FN:37,_RNCNvMNtNtCsgcJ8I9f45GG_15cogni_providers9anthropic6streamNtB4_15AnthropicStream11parse_event0B8_
FN:35,_RNvMNtNtCsgcJ8I9f45GG_15cogni_providers9anthropic6streamNtB2_15AnthropicStream11parse_event
FN:23,_RNvMNtNtCsgcJ8I9f45GG_15cogni_providers9anthropic6streamNtB2_15AnthropicStream3new
FN:125,_RNvXs_NtNtCsgcJ8I9f45GG_15cogni_providers9anthropic6streamNtB4_15AnthropicStreamNtNtCs7Q3stxvKTHU_12futures_core6stream6Stream9poll_next
FNDA:0,_RNCNvMNtNtCs1EirRVmYTZ6_15cogni_providers9anthropic6streamNtB4_15AnthropicStream11parse_event0B8_
FNDA:21,_RNvMNtNtCs1EirRVmYTZ6_15cogni_providers9anthropic6streamNtB2_15AnthropicStream11parse_event
FNDA:1,_RNvMNtNtCs1EirRVmYTZ6_15cogni_providers9anthropic6streamNtB2_15AnthropicStream3new
FNDA:40,_RNvXs_NtNtCs1EirRVmYTZ6_15cogni_providers9anthropic6streamNtB4_15AnthropicStreamNtNtCs7Q3stxvKTHU_12futures_core6stream6Stream9poll_next
FNDA:0,_RNCNvMNtNtCsgcJ8I9f45GG_15cogni_providers9anthropic6streamNtB4_15AnthropicStream11parse_event0B8_
FNDA:0,_RNvMNtNtCsgcJ8I9f45GG_15cogni_providers9anthropic6streamNtB2_15AnthropicStream11parse_event
FNDA:0,_RNvMNtNtCsgcJ8I9f45GG_15cogni_providers9anthropic6streamNtB2_15AnthropicStream3new
FNDA:0,_RNvXs_NtNtCsgcJ8I9f45GG_15cogni_providers9anthropic6streamNtB4_15AnthropicStreamNtNtCs7Q3stxvKTHU_12futures_core6stream6Stream9poll_next
FNF:4
FNH:3
DA:23,1
DA:24,1
DA:25,1
DA:26,1
DA:27,1
DA:28,1
DA:29,1
DA:30,1
DA:31,1
DA:32,1
DA:33,1
DA:35,21
DA:36,21
DA:37,21
DA:38,0
DA:39,0
DA:40,21
DA:42,21
DA:43,1
DA:44,1
DA:45,1
DA:46,1
DA:47,1
DA:48,1
DA:49,1
DA:50,1
DA:51,1
DA:52,1
DA:55,2
DA:56,2
DA:57,2
DA:58,2
DA:59,1
DA:60,1
DA:61,1
DA:62,1
DA:63,1
DA:64,1
DA:65,1
DA:66,1
DA:67,1
DA:68,1
DA:69,1
DA:70,1
DA:71,1
DA:73,1
DA:76,13
DA:77,4
DA:78,4
DA:80,9
DA:81,9
DA:82,9
DA:83,9
DA:84,9
DA:85,9
DA:86,9
DA:87,9
DA:88,9
DA:91,2
DA:92,2
DA:93,2
DA:94,1
DA:95,1
DA:96,1
DA:97,1
DA:98,2
DA:100,1
DA:102,1
DA:103,0
DA:104,0
DA:105,0
DA:106,0
DA:107,0
DA:108,0
DA:109,0
DA:110,0
DA:111,0
DA:113,1
DA:116,1
DA:117,1
DA:119,21
DA:125,40
DA:127,46
DA:128,1
DA:129,21
DA:130,21
DA:131,0
DA:132,0
DA:133,0
DA:134,0
DA:135,0
DA:136,0
DA:137,21
DA:138,21
DA:139,21
DA:140,16
DA:141,5
DA:142,0
DA:145,0
DA:146,0
DA:147,0
DA:148,0
DA:149,0
DA:151,0
DA:152,24
DA:155,40
BRF:0
BRH:0
LF:108
LH:82
end_of_record
SF:/Users/jkh/Code/ai/cogni/cogni-providers/src/error.rs
FN:7,_RINvNtCs1EirRVmYTZ6_15cogni_providers5error13to_core_errorppEB4_
FN:21,_RNvNtCs1EirRVmYTZ6_15cogni_providers5error13network_error
FN:29,_RNvNtCs1EirRVmYTZ6_15cogni_providers5error19serialization_error
FN:7,_RINvNtCsgcJ8I9f45GG_15cogni_providers5error13to_core_errorppEB4_
FN:21,_RNvNtCsgcJ8I9f45GG_15cogni_providers5error13network_error
FN:29,_RNvNtCsgcJ8I9f45GG_15cogni_providers5error19serialization_error
FNDA:0,_RINvNtCs1EirRVmYTZ6_15cogni_providers5error13to_core_errorppEB4_
FNDA:0,_RNvNtCs1EirRVmYTZ6_15cogni_providers5error13network_error
FNDA:0,_RNvNtCs1EirRVmYTZ6_15cogni_providers5error19serialization_error
FNDA:0,_RINvNtCsgcJ8I9f45GG_15cogni_providers5error13to_core_errorppEB4_
FNDA:0,_RNvNtCsgcJ8I9f45GG_15cogni_providers5error13network_error
FNDA:0,_RNvNtCsgcJ8I9f45GG_15cogni_providers5error19serialization_error
FNF:3
FNH:0
DA:7,0
DA:8,0
DA:9,0
DA:10,0
DA:11,0
DA:12,0
DA:13,0
DA:14,0
DA:15,0
DA:16,0
DA:17,0
DA:18,0
DA:21,0
DA:22,0
DA:23,0
DA:24,0
DA:25,0
DA:26,0
DA:29,0
DA:30,0
DA:31,0
DA:32,0
DA:33,0
DA:34,0
BRF:0
BRH:0
LF:24
LH:0
end_of_record
SF:/Users/jkh/Code/ai/cogni/cogni-providers/src/http.rs
FN:105,_RNCNvNtCs1EirRVmYTZ6_15cogni_providers4http14create_headers0B5_
FN:75,_RNCNvXs_NtCs1EirRVmYTZ6_15cogni_providers4httpNtB6_13ReqwestClientNtB6_10HttpClient11post_stream0B8_
FN:48,_RNCNvXs_NtCs1EirRVmYTZ6_15cogni_providers4httpNtB6_13ReqwestClientNtB6_10HttpClient4post0B8_
FN:36,_RNvMNtCs1EirRVmYTZ6_15cogni_providers4httpNtB2_13ReqwestClient3new
FN:99,_RNvNtCs1EirRVmYTZ6_15cogni_providers4http14create_headers
FN:95,_RNvXs_NtCs1EirRVmYTZ6_15cogni_providers4httpNtB4_13ReqwestClientNtB4_10HttpClient11post_stream
FN:68,_RNvXs_NtCs1EirRVmYTZ6_15cogni_providers4httpNtB4_13ReqwestClientNtB4_10HttpClient4post
FN:105,_RNCNvNtCsgcJ8I9f45GG_15cogni_providers4http14create_headers0B5_
FN:75,_RNCNvXs_NtCsgcJ8I9f45GG_15cogni_providers4httpNtB6_13ReqwestClientNtB6_10HttpClient11post_stream0B8_
FN:48,_RNCNvXs_NtCsgcJ8I9f45GG_15cogni_providers4httpNtB6_13ReqwestClientNtB6_10HttpClient4post0B8_
FN:36,_RNvMNtCsgcJ8I9f45GG_15cogni_providers4httpNtB2_13ReqwestClient3new
FN:99,_RNvNtCsgcJ8I9f45GG_15cogni_providers4http14create_headers
FN:95,_RNvXs_NtCsgcJ8I9f45GG_15cogni_providers4httpNtB4_13ReqwestClientNtB4_10HttpClient11post_stream
FN:68,_RNvXs_NtCsgcJ8I9f45GG_15cogni_providers4httpNtB4_13ReqwestClientNtB4_10HttpClient4post
FNDA:0,_RNCNvNtCs1EirRVmYTZ6_15cogni_providers4http14create_headers0B5_
FNDA:0,_RNCNvXs_NtCs1EirRVmYTZ6_15cogni_providers4httpNtB6_13ReqwestClientNtB6_10HttpClient11post_stream0B8_
FNDA:5,_RNCNvXs_NtCs1EirRVmYTZ6_15cogni_providers4httpNtB6_13ReqwestClientNtB6_10HttpClient4post0B8_
FNDA:8,_RNvMNtCs1EirRVmYTZ6_15cogni_providers4httpNtB2_13ReqwestClient3new
FNDA:8,_RNvNtCs1EirRVmYTZ6_15cogni_providers4http14create_headers
FNDA:0,_RNvXs_NtCs1EirRVmYTZ6_15cogni_providers4httpNtB4_13ReqwestClientNtB4_10HttpClient11post_stream
FNDA:5,_RNvXs_NtCs1EirRVmYTZ6_15cogni_providers4httpNtB4_13ReqwestClientNtB4_10HttpClient4post
FNDA:0,_RNCNvNtCsgcJ8I9f45GG_15cogni_providers4http14create_headers0B5_
FNDA:0,_RNCNvXs_NtCsgcJ8I9f45GG_15cogni_providers4httpNtB6_13ReqwestClientNtB6_10HttpClient11post_stream0B8_
FNDA:0,_RNCNvXs_NtCsgcJ8I9f45GG_15cogni_providers4httpNtB6_13ReqwestClientNtB6_10HttpClient4post0B8_
FNDA:0,_RNvMNtCsgcJ8I9f45GG_15cogni_providers4httpNtB2_13ReqwestClient3new
FNDA:0,_RNvNtCsgcJ8I9f45GG_15cogni_providers4http14create_headers
FNDA:0,_RNvXs_NtCsgcJ8I9f45GG_15cogni_providers4httpNtB4_13ReqwestClientNtB4_10HttpClient11post_stream
FNDA:0,_RNvXs_NtCsgcJ8I9f45GG_15cogni_providers4httpNtB4_13ReqwestClientNtB4_10HttpClient4post
FNF:7
FNH:4
DA:36,8
DA:37,8
DA:38,8
DA:39,8
DA:40,8
DA:42,8
DA:43,8
DA:48,5
DA:49,5
DA:50,5
DA:51,5
DA:52,5
DA:53,5
DA:54,5
DA:55,5
DA:56,5
DA:58,5
DA:59,0
DA:60,0
DA:61,0
DA:62,0
DA:63,0
DA:64,0
DA:65,5
DA:66,5
DA:67,5
DA:68,10
DA:75,0
DA:76,0
DA:77,0
DA:78,0
DA:79,0
DA:80,0
DA:81,0
DA:82,0
DA:83,0
DA:85,0
DA:86,0
DA:87,0
DA:88,0
DA:89,0
DA:90,0
DA:91,0
DA:92,0
DA:93,0
DA:94,0
DA:95,0
DA:99,8
DA:100,8
DA:101,8
DA:102,8
DA:103,8
DA:104,8
DA:105,8
DA:108,8
DA:110,8
DA:111,0
DA:112,8
DA:114,8
DA:115,8
BRF:0
BRH:0
LF:63
LH:34
end_of_record
SF:/Users/jkh/Code/ai/cogni/cogni-providers/src/ollama/config.rs
FN:13,_RNvXNtNtCsgcJ8I9f45GG_15cogni_providers6ollama6configNtB2_12OllamaConfigNtNtCsfvfooZQ3Axs_4core7default7Default7default
FN:13,_RNvXNtNtCs1EirRVmYTZ6_15cogni_providers6ollama6configNtB2_12OllamaConfigNtNtCsfvfooZQ3Axs_4core7default7Default7default
FNDA:0,_RNvXNtNtCsgcJ8I9f45GG_15cogni_providers6ollama6configNtB2_12OllamaConfigNtNtCsfvfooZQ3Axs_4core7default7Default7default
FNDA:1,_RNvXNtNtCs1EirRVmYTZ6_15cogni_providers6ollama6configNtB2_12OllamaConfigNtNtCsfvfooZQ3Axs_4core7default7Default7default
FNF:1
FNH:1
DA:13,1
DA:14,1
DA:15,1
DA:16,1
DA:17,1
DA:18,1
BRF:0
BRH:0
LF:6
LH:6
end_of_record
SF:/Users/jkh/Code/ai/cogni/cogni-providers/src/ollama/converter.rs
FN:119,_RNvNtNtCs1EirRVmYTZ6_15cogni_providers6ollama9converter17to_ollama_request
FN:200,_RNvNtNtCs1EirRVmYTZ6_15cogni_providers6ollama9converter18extract_tool_calls
FN:196,_RNvNtNtCs1EirRVmYTZ6_15cogni_providers6ollama9converter20extract_text_content
FN:139,_RNCNCNvNtNtCs1EirRVmYTZ6_15cogni_providers6ollama9converter17to_ollama_request00B9_
FN:208,_RNCNCNvNtNtCs1EirRVmYTZ6_15cogni_providers6ollama9converter18extract_tool_calls00B9_
FN:123,_RNCNvNtNtCs1EirRVmYTZ6_15cogni_providers6ollama9converter17to_ollama_request0B7_
FN:181,_RNCNvNtNtCs1EirRVmYTZ6_15cogni_providers6ollama9converter17to_ollama_requests0_0B7_
FN:169,_RNCNvNtNtCs1EirRVmYTZ6_15cogni_providers6ollama9converter17to_ollama_requests_0B7_
FN:204,_RNCNvNtNtCs1EirRVmYTZ6_15cogni_providers6ollama9converter18extract_tool_calls0B7_
FN:139,_RNCNCNvNtNtCsgcJ8I9f45GG_15cogni_providers6ollama9converter17to_ollama_request00B9_
FN:208,_RNCNCNvNtNtCsgcJ8I9f45GG_15cogni_providers6ollama9converter18extract_tool_calls00B9_
FN:123,_RNCNvNtNtCsgcJ8I9f45GG_15cogni_providers6ollama9converter17to_ollama_request0B7_
FN:181,_RNCNvNtNtCsgcJ8I9f45GG_15cogni_providers6ollama9converter17to_ollama_requests0_0B7_
FN:169,_RNCNvNtNtCsgcJ8I9f45GG_15cogni_providers6ollama9converter17to_ollama_requests_0B7_
FN:204,_RNCNvNtNtCsgcJ8I9f45GG_15cogni_providers6ollama9converter18extract_tool_calls0B7_
FN:119,_RNvNtNtCsgcJ8I9f45GG_15cogni_providers6ollama9converter17to_ollama_request
FN:200,_RNvNtNtCsgcJ8I9f45GG_15cogni_providers6ollama9converter18extract_tool_calls
FN:196,_RNvNtNtCsgcJ8I9f45GG_15cogni_providers6ollama9converter20extract_text_content
FNDA:1,_RNvNtNtCs1EirRVmYTZ6_15cogni_providers6ollama9converter17to_ollama_request
FNDA:1,_RNvNtNtCs1EirRVmYTZ6_15cogni_providers6ollama9converter18extract_tool_calls
FNDA:1,_RNvNtNtCs1EirRVmYTZ6_15cogni_providers6ollama9converter20extract_text_content
FNDA:0,_RNCNCNvNtNtCs1EirRVmYTZ6_15cogni_providers6ollama9converter17to_ollama_request00B9_
FNDA:1,_RNCNCNvNtNtCs1EirRVmYTZ6_15cogni_providers6ollama9converter18extract_tool_calls00B9_
FNDA:1,_RNCNvNtNtCs1EirRVmYTZ6_15cogni_providers6ollama9converter17to_ollama_request0B7_
FNDA:0,_RNCNvNtNtCs1EirRVmYTZ6_15cogni_providers6ollama9converter17to_ollama_requests0_0B7_
FNDA:2,_RNCNvNtNtCs1EirRVmYTZ6_15cogni_providers6ollama9converter17to_ollama_requests_0B7_
FNDA:1,_RNCNvNtNtCs1EirRVmYTZ6_15cogni_providers6ollama9converter18extract_tool_calls0B7_
FNDA:0,_RNCNCNvNtNtCsgcJ8I9f45GG_15cogni_providers6ollama9converter17to_ollama_request00B9_
FNDA:0,_RNCNCNvNtNtCsgcJ8I9f45GG_15cogni_providers6ollama9converter18extract_tool_calls00B9_
FNDA:0,_RNCNvNtNtCsgcJ8I9f45GG_15cogni_providers6ollama9converter17to_ollama_request0B7_
FNDA:0,_RNCNvNtNtCsgcJ8I9f45GG_15cogni_providers6ollama9converter17to_ollama_requests0_0B7_
FNDA:0,_RNCNvNtNtCsgcJ8I9f45GG_15cogni_providers6ollama9converter17to_ollama_requests_0B7_
FNDA:0,_RNCNvNtNtCsgcJ8I9f45GG_15cogni_providers6ollama9converter18extract_tool_calls0B7_
FNDA:0,_RNvNtNtCsgcJ8I9f45GG_15cogni_providers6ollama9converter17to_ollama_request
FNDA:0,_RNvNtNtCsgcJ8I9f45GG_15cogni_providers6ollama9converter18extract_tool_calls
FNDA:0,_RNvNtNtCsgcJ8I9f45GG_15cogni_providers6ollama9converter20extract_text_content
FNF:9
FNH:7
DA:119,1
DA:120,1
DA:121,1
DA:122,1
DA:123,1
DA:124,1
DA:125,0
DA:126,1
DA:127,0
DA:128,0
DA:129,0
DA:131,1
DA:133,1
DA:134,1
DA:135,0
DA:136,0
DA:137,0
DA:138,0
DA:139,0
DA:140,0
DA:141,0
DA:142,0
DA:143,0
DA:144,0
DA:147,1
DA:148,1
DA:149,1
DA:150,1
DA:151,1
DA:152,1
DA:153,1
DA:154,1
DA:155,1
DA:156,1
DA:157,1
DA:158,1
DA:159,1
DA:160,1
DA:162,1
DA:163,0
DA:165,1
DA:166,1
DA:167,1
DA:168,1
DA:169,2
DA:170,2
DA:171,2
DA:172,2
DA:173,2
DA:174,2
DA:175,2
DA:176,2
DA:177,1
DA:178,1
DA:181,1
DA:182,0
DA:183,0
DA:184,1
DA:185,1
DA:186,1
DA:187,1
DA:188,1
DA:189,1
DA:190,1
DA:191,1
DA:192,1
DA:193,1
DA:194,1
DA:196,1
DA:197,1
DA:198,1
DA:200,1
DA:201,1
DA:202,1
DA:203,1
DA:204,1
DA:205,1
DA:206,1
DA:207,1
DA:208,1
DA:209,1
DA:210,1
DA:211,1
DA:212,1
DA:213,1
DA:214,1
DA:215,1
DA:216,1
BRF:0
BRH:0
LF:100
LH:79
end_of_record
SF:/Users/jkh/Code/ai/cogni/cogni-providers/src/ollama/parser.rs
FN:6,_RNvNtNtCsgcJ8I9f45GG_15cogni_providers6ollama6parser14parse_response
FN:6,_RNvNtNtCs1EirRVmYTZ6_15cogni_providers6ollama6parser14parse_response
FNDA:0,_RNvNtNtCsgcJ8I9f45GG_15cogni_providers6ollama6parser14parse_response
FNDA:1,_RNvNtNtCs1EirRVmYTZ6_15cogni_providers6ollama6parser14parse_response
FNF:1
FNH:1
DA:6,1
DA:7,1
DA:8,1
DA:9,1
DA:10,1
DA:13,1
DA:14,1
DA:15,1
DA:16,1
DA:17,1
DA:18,1
DA:19,1
DA:20,1
DA:21,1
DA:23,1
DA:24,1
DA:25,1
DA:26,1
DA:27,1
DA:30,1
DA:31,1
DA:32,1
DA:33,1
DA:34,1
DA:35,1
DA:36,1
DA:37,1
DA:38,1
DA:41,1
DA:42,1
DA:43,0
DA:45,0
DA:46,0
DA:48,0
DA:52,1
DA:53,1
DA:54,1
DA:55,1
DA:56,1
DA:57,1
DA:58,1
DA:59,1
BRF:0
BRH:0
LF:42
LH:38
end_of_record
SF:/Users/jkh/Code/ai/cogni/cogni-providers/src/ollama/provider.rs
FN:37,_RINvMNtNtCs1EirRVmYTZ6_15cogni_providers6ollama8providerNtB3_6Ollama13with_base_urlpEB7_
FN:37,_RINvMNtNtCsgcJ8I9f45GG_15cogni_providers6ollama8providerNtB3_6Ollama13with_base_urlpEB7_
FN:70,_RNCNvXs1_NtNtCsgcJ8I9f45GG_15cogni_providers6ollama8providerNtB7_6OllamaNtNtCsagf8dG4onv5_10cogni_core8provider8Provider6stream0Bb_
FN:50,_RNCNvXs1_NtNtCsgcJ8I9f45GG_15cogni_providers6ollama8providerNtB7_6OllamaNtNtCsagf8dG4onv5_10cogni_core8provider8Provider7request0Bb_
FN:24,_RNvMNtNtCsgcJ8I9f45GG_15cogni_providers6ollama8providerNtB2_6Ollama3new
FN:32,_RNvMNtNtCsgcJ8I9f45GG_15cogni_providers6ollama8providerNtB2_6Ollama5local
FN:85,_RNvXs1_NtNtCsgcJ8I9f45GG_15cogni_providers6ollama8providerNtB5_6OllamaNtNtCsagf8dG4onv5_10cogni_core8provider8Provider6stream
FN:68,_RNvXs1_NtNtCsgcJ8I9f45GG_15cogni_providers6ollama8providerNtB5_6OllamaNtNtCsagf8dG4onv5_10cogni_core8provider8Provider7request
FN:24,_RNvMNtNtCs1EirRVmYTZ6_15cogni_providers6ollama8providerNtB2_6Ollama3new
FN:32,_RNvMNtNtCs1EirRVmYTZ6_15cogni_providers6ollama8providerNtB2_6Ollama5local
FN:85,_RNvXs1_NtNtCs1EirRVmYTZ6_15cogni_providers6ollama8providerNtB5_6OllamaNtNtCsagf8dG4onv5_10cogni_core8provider8Provider6stream
FN:68,_RNvXs1_NtNtCs1EirRVmYTZ6_15cogni_providers6ollama8providerNtB5_6OllamaNtNtCsagf8dG4onv5_10cogni_core8provider8Provider7request
FN:70,_RNCNvXs1_NtNtCs1EirRVmYTZ6_15cogni_providers6ollama8providerNtB7_6OllamaNtNtCsagf8dG4onv5_10cogni_core8provider8Provider6stream0Bb_
FN:50,_RNCNvXs1_NtNtCs1EirRVmYTZ6_15cogni_providers6ollama8providerNtB7_6OllamaNtNtCsagf8dG4onv5_10cogni_core8provider8Provider7request0Bb_
FNDA:0,_RINvMNtNtCs1EirRVmYTZ6_15cogni_providers6ollama8providerNtB3_6Ollama13with_base_urlpEB7_
FNDA:0,_RINvMNtNtCsgcJ8I9f45GG_15cogni_providers6ollama8providerNtB3_6Ollama13with_base_urlpEB7_
FNDA:0,_RNCNvXs1_NtNtCsgcJ8I9f45GG_15cogni_providers6ollama8providerNtB7_6OllamaNtNtCsagf8dG4onv5_10cogni_core8provider8Provider6stream0Bb_
FNDA:0,_RNCNvXs1_NtNtCsgcJ8I9f45GG_15cogni_providers6ollama8providerNtB7_6OllamaNtNtCsagf8dG4onv5_10cogni_core8provider8Provider7request0Bb_
FNDA:0,_RNvMNtNtCsgcJ8I9f45GG_15cogni_providers6ollama8providerNtB2_6Ollama3new
FNDA:0,_RNvMNtNtCsgcJ8I9f45GG_15cogni_providers6ollama8providerNtB2_6Ollama5local
FNDA:0,_RNvXs1_NtNtCsgcJ8I9f45GG_15cogni_providers6ollama8providerNtB5_6OllamaNtNtCsagf8dG4onv5_10cogni_core8provider8Provider6stream
FNDA:0,_RNvXs1_NtNtCsgcJ8I9f45GG_15cogni_providers6ollama8providerNtB5_6OllamaNtNtCsagf8dG4onv5_10cogni_core8provider8Provider7request
FNDA:1,_RNvMNtNtCs1EirRVmYTZ6_15cogni_providers6ollama8providerNtB2_6Ollama3new
FNDA:1,_RNvMNtNtCs1EirRVmYTZ6_15cogni_providers6ollama8providerNtB2_6Ollama5local
FNDA:0,_RNvXs1_NtNtCs1EirRVmYTZ6_15cogni_providers6ollama8providerNtB5_6OllamaNtNtCsagf8dG4onv5_10cogni_core8provider8Provider6stream
FNDA:1,_RNvXs1_NtNtCs1EirRVmYTZ6_15cogni_providers6ollama8providerNtB5_6OllamaNtNtCsagf8dG4onv5_10cogni_core8provider8Provider7request
FNDA:0,_RNCNvXs1_NtNtCs1EirRVmYTZ6_15cogni_providers6ollama8providerNtB7_6OllamaNtNtCsagf8dG4onv5_10cogni_core8provider8Provider6stream0Bb_
FNDA:1,_RNCNvXs1_NtNtCs1EirRVmYTZ6_15cogni_providers6ollama8providerNtB7_6OllamaNtNtCsagf8dG4onv5_10cogni_core8provider8Provider7request0Bb_
FNF:7
FNH:4
DA:24,1
DA:25,1
DA:26,1
DA:27,1
DA:28,1
DA:29,1
DA:32,1
DA:33,1
DA:34,1
DA:37,0
DA:38,0
DA:39,0
DA:40,0
DA:41,0
DA:42,0
DA:43,0
DA:50,1
DA:51,1
DA:52,1
DA:54,1
DA:55,1
DA:56,1
DA:57,1
DA:58,1
DA:59,1
DA:60,1
DA:62,1
DA:64,1
DA:65,1
DA:67,1
DA:68,2
DA:70,0
DA:71,0
DA:72,0
DA:74,0
DA:75,0
DA:76,0
DA:77,0
DA:78,0
DA:79,0
DA:80,0
DA:82,0
DA:84,0
DA:85,0
BRF:0
BRH:0
LF:46
LH:25
end_of_record
SF:/Users/jkh/Code/ai/cogni/cogni-providers/src/ollama/stream.rs
FN:34,_RNCNvMNtNtCs1EirRVmYTZ6_15cogni_providers6ollama6streamNtB4_12OllamaStream10parse_line0B8_
FN:98,_RNCNvXs_NtNtCs1EirRVmYTZ6_15cogni_providers6ollama6streamNtB6_12OllamaStreamNtNtCs7Q3stxvKTHU_12futures_core6stream6Stream9poll_next0Ba_
FN:34,_RNCNvMNtNtCsgcJ8I9f45GG_15cogni_providers6ollama6streamNtB4_12OllamaStream10parse_line0B8_
FN:98,_RNCNvXs_NtNtCsgcJ8I9f45GG_15cogni_providers6ollama6streamNtB6_12OllamaStreamNtNtCs7Q3stxvKTHU_12futures_core6stream6Stream9poll_next0Ba_
FN:28,_RNvMNtNtCsgcJ8I9f45GG_15cogni_providers6ollama6streamNtB2_12OllamaStream10parse_line
FN:19,_RNvMNtNtCsgcJ8I9f45GG_15cogni_providers6ollama6streamNtB2_12OllamaStream3new
FN:93,_RNvXs_NtNtCsgcJ8I9f45GG_15cogni_providers6ollama6streamNtB4_12OllamaStreamNtNtCs7Q3stxvKTHU_12futures_core6stream6Stream9poll_next
FN:28,_RNvMNtNtCs1EirRVmYTZ6_15cogni_providers6ollama6streamNtB2_12OllamaStream10parse_line
FN:19,_RNvMNtNtCs1EirRVmYTZ6_15cogni_providers6ollama6streamNtB2_12OllamaStream3new
FN:93,_RNvXs_NtNtCs1EirRVmYTZ6_15cogni_providers6ollama6streamNtB4_12OllamaStreamNtNtCs7Q3stxvKTHU_12futures_core6stream6Stream9poll_next
FNDA:0,_RNCNvMNtNtCs1EirRVmYTZ6_15cogni_providers6ollama6streamNtB4_12OllamaStream10parse_line0B8_
FNDA:0,_RNCNvXs_NtNtCs1EirRVmYTZ6_15cogni_providers6ollama6streamNtB6_12OllamaStreamNtNtCs7Q3stxvKTHU_12futures_core6stream6Stream9poll_next0Ba_
FNDA:0,_RNCNvMNtNtCsgcJ8I9f45GG_15cogni_providers6ollama6streamNtB4_12OllamaStream10parse_line0B8_
FNDA:0,_RNCNvXs_NtNtCsgcJ8I9f45GG_15cogni_providers6ollama6streamNtB6_12OllamaStreamNtNtCs7Q3stxvKTHU_12futures_core6stream6Stream9poll_next0Ba_
FNDA:0,_RNvMNtNtCsgcJ8I9f45GG_15cogni_providers6ollama6streamNtB2_12OllamaStream10parse_line
FNDA:0,_RNvMNtNtCsgcJ8I9f45GG_15cogni_providers6ollama6streamNtB2_12OllamaStream3new
FNDA:0,_RNvXs_NtNtCsgcJ8I9f45GG_15cogni_providers6ollama6streamNtB4_12OllamaStreamNtNtCs7Q3stxvKTHU_12futures_core6stream6Stream9poll_next
FNDA:0,_RNvMNtNtCs1EirRVmYTZ6_15cogni_providers6ollama6streamNtB2_12OllamaStream10parse_line
FNDA:0,_RNvMNtNtCs1EirRVmYTZ6_15cogni_providers6ollama6streamNtB2_12OllamaStream3new
FNDA:0,_RNvXs_NtNtCs1EirRVmYTZ6_15cogni_providers6ollama6streamNtB4_12OllamaStreamNtNtCs7Q3stxvKTHU_12futures_core6stream6Stream9poll_next
FNF:5
FNH:0
DA:19,0
DA:20,0
DA:21,0
DA:22,0
DA:23,0
DA:24,0
DA:25,0
DA:26,0
DA:28,0
DA:29,0
DA:30,0
DA:31,0
DA:33,0
DA:34,0
DA:35,0
DA:36,0
DA:37,0
DA:40,0
DA:41,0
DA:42,0
DA:43,0
DA:44,0
DA:45,0
DA:46,0
DA:47,0
DA:48,0
DA:49,0
DA:50,0
DA:51,0
DA:52,0
DA:53,0
DA:54,0
DA:57,0
DA:59,0
DA:60,0
DA:61,0
DA:62,0
DA:63,0
DA:64,0
DA:65,0
DA:66,0
DA:67,0
DA:68,0
DA:71,0
DA:72,0
DA:73,0
DA:74,0
DA:75,0
DA:76,0
DA:77,0
DA:78,0
DA:79,0
DA:82,0
DA:83,0
DA:84,0
DA:85,0
DA:86,0
DA:87,0
DA:93,0
DA:95,0
DA:96,0
DA:98,0
DA:99,0
DA:100,0
DA:101,0
DA:102,0
DA:105,0
DA:106,0
DA:107,0
DA:108,0
DA:109,0
DA:111,0
DA:112,0
DA:113,0
DA:114,0
DA:118,0
DA:119,0
DA:120,0
DA:121,0
DA:122,0
DA:126,0
DA:127,0
DA:128,0
DA:129,0
DA:130,0
DA:131,0
DA:133,0
DA:134,0
DA:136,0
DA:139,0
BRF:0
BRH:0
LF:94
LH:0
end_of_record
SF:/Users/jkh/Code/ai/cogni/cogni-providers/src/openai/config.rs
FN:16,_RINvMNtNtCs1EirRVmYTZ6_15cogni_providers6openai6configNtB3_12OpenAIConfig3newNtNtCse1nGBsou5OW_5alloc6string6StringECsgyDhXtLpw1x_21agentic_features_test
FN:25,_RINvMNtNtCs1EirRVmYTZ6_15cogni_providers6openai6configNtB3_12OpenAIConfig13with_base_urlpEB7_
FN:31,_RINvMNtNtCs1EirRVmYTZ6_15cogni_providers6openai6configNtB3_12OpenAIConfig17with_organizationpEB7_
FN:16,_RINvMNtNtCs1EirRVmYTZ6_15cogni_providers6openai6configNtB3_12OpenAIConfig3newpEB7_
FN:37,_RNvMNtNtCs1EirRVmYTZ6_15cogni_providers6openai6configNtB2_12OpenAIConfig8chat_url
FN:25,_RINvMNtNtCsgcJ8I9f45GG_15cogni_providers6openai6configNtB3_12OpenAIConfig13with_base_urlpEB7_
FN:31,_RINvMNtNtCsgcJ8I9f45GG_15cogni_providers6openai6configNtB3_12OpenAIConfig17with_organizationpEB7_
FN:16,_RINvMNtNtCsgcJ8I9f45GG_15cogni_providers6openai6configNtB3_12OpenAIConfig3newpEB7_
FN:37,_RNvMNtNtCsgcJ8I9f45GG_15cogni_providers6openai6configNtB2_12OpenAIConfig8chat_url
FN:16,_RINvMNtNtCs1EirRVmYTZ6_15cogni_providers6openai6configNtB3_12OpenAIConfig3newNtNtCse1nGBsou5OW_5alloc6string6StringECsQadenfUz7B_22structured_output_test
FN:16,_RINvMNtNtCs1EirRVmYTZ6_15cogni_providers6openai6configNtB3_12OpenAIConfig3newNtNtCse1nGBsou5OW_5alloc6string6StringECskDMj0mycnZW_21tool_integration_test
FN:16,_RINvMNtNtCs1EirRVmYTZ6_15cogni_providers6openai6configNtB3_12OpenAIConfig3newNtNtCse1nGBsou5OW_5alloc6string6StringECscJLei9umsYl_19tool_streaming_test
FNDA:1,_RINvMNtNtCs1EirRVmYTZ6_15cogni_providers6openai6configNtB3_12OpenAIConfig3newNtNtCse1nGBsou5OW_5alloc6string6StringECsgyDhXtLpw1x_21agentic_features_test
FNDA:0,_RINvMNtNtCs1EirRVmYTZ6_15cogni_providers6openai6configNtB3_12OpenAIConfig13with_base_urlpEB7_
FNDA:0,_RINvMNtNtCs1EirRVmYTZ6_15cogni_providers6openai6configNtB3_12OpenAIConfig17with_organizationpEB7_
FNDA:0,_RINvMNtNtCs1EirRVmYTZ6_15cogni_providers6openai6configNtB3_12OpenAIConfig3newpEB7_
FNDA:8,_RNvMNtNtCs1EirRVmYTZ6_15cogni_providers6openai6configNtB2_12OpenAIConfig8chat_url
FNDA:0,_RINvMNtNtCsgcJ8I9f45GG_15cogni_providers6openai6configNtB3_12OpenAIConfig13with_base_urlpEB7_
FNDA:0,_RINvMNtNtCsgcJ8I9f45GG_15cogni_providers6openai6configNtB3_12OpenAIConfig17with_organizationpEB7_
FNDA:0,_RINvMNtNtCsgcJ8I9f45GG_15cogni_providers6openai6configNtB3_12OpenAIConfig3newpEB7_
FNDA:0,_RNvMNtNtCsgcJ8I9f45GG_15cogni_providers6openai6configNtB2_12OpenAIConfig8chat_url
FNDA:2,_RINvMNtNtCs1EirRVmYTZ6_15cogni_providers6openai6configNtB3_12OpenAIConfig3newNtNtCse1nGBsou5OW_5alloc6string6StringECsQadenfUz7B_22structured_output_test
FNDA:2,_RINvMNtNtCs1EirRVmYTZ6_15cogni_providers6openai6configNtB3_12OpenAIConfig3newNtNtCse1nGBsou5OW_5alloc6string6StringECskDMj0mycnZW_21tool_integration_test
FNDA:3,_RINvMNtNtCs1EirRVmYTZ6_15cogni_providers6openai6configNtB3_12OpenAIConfig3newNtNtCse1nGBsou5OW_5alloc6string6StringECscJLei9umsYl_19tool_streaming_test
FNF:4
FNH:2
DA:16,8
DA:17,8
DA:18,8
DA:19,8
DA:20,8
DA:21,8
DA:22,8
DA:25,0
DA:26,0
DA:27,0
DA:28,0
DA:31,0
DA:32,0
DA:33,0
DA:34,0
DA:37,8
DA:38,8
DA:39,8
BRF:0
BRH:0
LF:18
LH:10
end_of_record
SF:/Users/jkh/Code/ai/cogni/cogni-providers/src/openai/converter.rs
FN:158,_RNvMNtNtCs1EirRVmYTZ6_15cogni_providers6openai9converterNtB2_15OpenAIConverter13convert_tools
FN:122,_RNvMNtNtCs1EirRVmYTZ6_15cogni_providers6openai9converterNtB2_15OpenAIConverter15convert_content
FN:83,_RNvMNtNtCs1EirRVmYTZ6_15cogni_providers6openai9converterNtB2_15OpenAIConverter15convert_message
FN:76,_RNvMNtNtCs1EirRVmYTZ6_15cogni_providers6openai9converterNtB2_15OpenAIConverter16convert_messages
FN:72,_RNvXs1_NtNtCs1EirRVmYTZ6_15cogni_providers6openai9converterNtB5_15OpenAIConverterNtNtB9_6traits16RequestConverter15convert_request
FN:161,_RNCNvMNtNtCs1EirRVmYTZ6_15cogni_providers6openai9converterNtB4_15OpenAIConverter13convert_tools0B8_
FN:103,_RNCNvMNtNtCs1EirRVmYTZ6_15cogni_providers6openai9converterNtB4_15OpenAIConverter15convert_message0B8_
FN:79,_RNCNvMNtNtCs1EirRVmYTZ6_15cogni_providers6openai9converterNtB4_15OpenAIConverter16convert_messages0B8_
FN:14,_RNCNvXs1_NtNtCs1EirRVmYTZ6_15cogni_providers6openai9converterNtB7_15OpenAIConverterNtNtBb_6traits16RequestConverter15convert_request0Bb_
FN:161,_RNCNvMNtNtCsgcJ8I9f45GG_15cogni_providers6openai9converterNtB4_15OpenAIConverter13convert_tools0B8_
FN:103,_RNCNvMNtNtCsgcJ8I9f45GG_15cogni_providers6openai9converterNtB4_15OpenAIConverter15convert_message0B8_
FN:79,_RNCNvMNtNtCsgcJ8I9f45GG_15cogni_providers6openai9converterNtB4_15OpenAIConverter16convert_messages0B8_
FN:14,_RNCNvXs1_NtNtCsgcJ8I9f45GG_15cogni_providers6openai9converterNtB7_15OpenAIConverterNtNtBb_6traits16RequestConverter15convert_request0Bb_
FN:158,_RNvMNtNtCsgcJ8I9f45GG_15cogni_providers6openai9converterNtB2_15OpenAIConverter13convert_tools
FN:122,_RNvMNtNtCsgcJ8I9f45GG_15cogni_providers6openai9converterNtB2_15OpenAIConverter15convert_content
FN:83,_RNvMNtNtCsgcJ8I9f45GG_15cogni_providers6openai9converterNtB2_15OpenAIConverter15convert_message
FN:76,_RNvMNtNtCsgcJ8I9f45GG_15cogni_providers6openai9converterNtB2_15OpenAIConverter16convert_messages
FN:72,_RNvXs1_NtNtCsgcJ8I9f45GG_15cogni_providers6openai9converterNtB5_15OpenAIConverterNtNtB9_6traits16RequestConverter15convert_request
FNDA:5,_RNvMNtNtCs1EirRVmYTZ6_15cogni_providers6openai9converterNtB2_15OpenAIConverter13convert_tools
FNDA:0,_RNvMNtNtCs1EirRVmYTZ6_15cogni_providers6openai9converterNtB2_15OpenAIConverter15convert_content
FNDA:11,_RNvMNtNtCs1EirRVmYTZ6_15cogni_providers6openai9converterNtB2_15OpenAIConverter15convert_message
FNDA:8,_RNvMNtNtCs1EirRVmYTZ6_15cogni_providers6openai9converterNtB2_15OpenAIConverter16convert_messages
FNDA:8,_RNvXs1_NtNtCs1EirRVmYTZ6_15cogni_providers6openai9converterNtB5_15OpenAIConverterNtNtB9_6traits16RequestConverter15convert_request
FNDA:7,_RNCNvMNtNtCs1EirRVmYTZ6_15cogni_providers6openai9converterNtB4_15OpenAIConverter13convert_tools0B8_
FNDA:0,_RNCNvMNtNtCs1EirRVmYTZ6_15cogni_providers6openai9converterNtB4_15OpenAIConverter15convert_message0B8_
FNDA:11,_RNCNvMNtNtCs1EirRVmYTZ6_15cogni_providers6openai9converterNtB4_15OpenAIConverter16convert_messages0B8_
FNDA:8,_RNCNvXs1_NtNtCs1EirRVmYTZ6_15cogni_providers6openai9converterNtB7_15OpenAIConverterNtNtBb_6traits16RequestConverter15convert_request0Bb_
FNDA:0,_RNCNvMNtNtCsgcJ8I9f45GG_15cogni_providers6openai9converterNtB4_15OpenAIConverter13convert_tools0B8_
FNDA:0,_RNCNvMNtNtCsgcJ8I9f45GG_15cogni_providers6openai9converterNtB4_15OpenAIConverter15convert_message0B8_
FNDA:0,_RNCNvMNtNtCsgcJ8I9f45GG_15cogni_providers6openai9converterNtB4_15OpenAIConverter16convert_messages0B8_
FNDA:0,_RNCNvXs1_NtNtCsgcJ8I9f45GG_15cogni_providers6openai9converterNtB7_15OpenAIConverterNtNtBb_6traits16RequestConverter15convert_request0Bb_
FNDA:0,_RNvMNtNtCsgcJ8I9f45GG_15cogni_providers6openai9converterNtB2_15OpenAIConverter13convert_tools
FNDA:0,_RNvMNtNtCsgcJ8I9f45GG_15cogni_providers6openai9converterNtB2_15OpenAIConverter15convert_content
FNDA:0,_RNvMNtNtCsgcJ8I9f45GG_15cogni_providers6openai9converterNtB2_15OpenAIConverter15convert_message
FNDA:0,_RNvMNtNtCsgcJ8I9f45GG_15cogni_providers6openai9converterNtB2_15OpenAIConverter16convert_messages
FNDA:0,_RNvXs1_NtNtCsgcJ8I9f45GG_15cogni_providers6openai9converterNtB5_15OpenAIConverterNtNtB9_6traits16RequestConverter15convert_request
FNF:9
FNH:7
DA:14,8
DA:15,8
DA:16,8
DA:17,8
DA:18,8
DA:22,8
DA:23,5
DA:24,5
DA:25,8
DA:26,0
DA:27,8
DA:28,8
DA:29,0
DA:30,8
DA:31,8
DA:32,0
DA:33,8
DA:34,8
DA:35,0
DA:36,8
DA:37,8
DA:38,0
DA:39,8
DA:40,8
DA:41,0
DA:42,8
DA:43,8
DA:44,0
DA:45,8
DA:48,8
DA:49,5
DA:50,5
DA:53,8
DA:54,2
DA:55,1
DA:56,1
DA:57,1
DA:58,1
DA:59,1
DA:60,1
DA:61,1
DA:62,1
DA:63,1
DA:66,1
DA:69,6
DA:71,8
DA:72,16
DA:76,8
DA:77,8
DA:78,8
DA:79,11
DA:80,8
DA:81,8
DA:83,11
DA:84,11
DA:85,3
DA:86,8
DA:87,0
DA:88,0
DA:89,0
DA:92,11
DA:93,11
DA:94,11
DA:95,11
DA:96,11
DA:97,11
DA:98,11
DA:99,11
DA:100,11
DA:101,0
DA:102,0
DA:103,0
DA:104,0
DA:106,0
DA:107,0
DA:112,11
DA:113,0
DA:114,11
DA:115,11
DA:116,0
DA:117,11
DA:119,11
DA:120,11
DA:122,0
DA:123,0
DA:124,0
DA:125,0
DA:126,0
DA:127,0
DA:128,0
DA:129,0
DA:130,0
DA:131,0
DA:132,0
DA:133,0
DA:134,0
DA:135,0
DA:136,0
DA:137,0
DA:138,0
DA:139,0
DA:140,0
DA:141,0
DA:142,0
DA:144,0
DA:145,0
DA:146,0
DA:149,0
DA:150,0
DA:151,0
DA:152,0
DA:153,0
DA:154,0
DA:156,0
DA:158,5
DA:159,5
DA:160,5
DA:161,7
DA:162,7
DA:163,7
DA:164,7
DA:165,7
DA:166,7
DA:167,7
DA:168,7
DA:169,7
DA:170,7
DA:171,5
DA:172,5
BRF:0
BRH:0
LF:134
LH:84
end_of_record
SF:/Users/jkh/Code/ai/cogni/cogni-providers/src/openai/parser.rs
FN:33,_RNCNCNCNvXs1_NtNtCs1EirRVmYTZ6_15cogni_providers6openai6parserNtBb_12OpenAIParserNtNtBf_6traits14ResponseParser14parse_response000Bf_
FN:30,_RNCNCNvXs1_NtNtCs1EirRVmYTZ6_15cogni_providers6openai6parserNtB9_12OpenAIParserNtNtBd_6traits14ResponseParser14parse_response00Bd_
FN:45,_RNCNCNvXs1_NtNtCs1EirRVmYTZ6_15cogni_providers6openai6parserNtB9_12OpenAIParserNtNtBd_6traits14ResponseParser14parse_response0s_0Bd_
FN:94,_RNCNvXNtNtCs1EirRVmYTZ6_15cogni_providers6openai6parserNtB4_12OpenAIParserNtNtB8_6traits17StreamEventParser11parse_event0B8_
FN:95,_RNCNvXNtNtCs1EirRVmYTZ6_15cogni_providers6openai6parserNtB4_12OpenAIParserNtNtB8_6traits17StreamEventParser11parse_events_0B8_
FN:19,_RNCNvXs1_NtNtCs1EirRVmYTZ6_15cogni_providers6openai6parserNtB7_12OpenAIParserNtNtBb_6traits14ResponseParser14parse_response0Bb_
FN:115,_RNvNtNtCs1EirRVmYTZ6_15cogni_providers6openai6parser19parse_finish_reason
FN:71,_RNvXNtNtCs1EirRVmYTZ6_15cogni_providers6openai6parserNtB2_12OpenAIParserNtNtB6_6traits17StreamEventParser11parse_event
FN:67,_RNvXs1_NtNtCs1EirRVmYTZ6_15cogni_providers6openai6parserNtB5_12OpenAIParserNtNtB9_6traits14ResponseParser14parse_response
FN:33,_RNCNCNCNvXs1_NtNtCsgcJ8I9f45GG_15cogni_providers6openai6parserNtBb_12OpenAIParserNtNtBf_6traits14ResponseParser14parse_response000Bf_
FN:30,_RNCNCNvXs1_NtNtCsgcJ8I9f45GG_15cogni_providers6openai6parserNtB9_12OpenAIParserNtNtBd_6traits14ResponseParser14parse_response00Bd_
FN:45,_RNCNCNvXs1_NtNtCsgcJ8I9f45GG_15cogni_providers6openai6parserNtB9_12OpenAIParserNtNtBd_6traits14ResponseParser14parse_response0s_0Bd_
FN:94,_RNCNvXNtNtCsgcJ8I9f45GG_15cogni_providers6openai6parserNtB4_12OpenAIParserNtNtB8_6traits17StreamEventParser11parse_event0B8_
FN:95,_RNCNvXNtNtCsgcJ8I9f45GG_15cogni_providers6openai6parserNtB4_12OpenAIParserNtNtB8_6traits17StreamEventParser11parse_events_0B8_
FN:19,_RNCNvXs1_NtNtCsgcJ8I9f45GG_15cogni_providers6openai6parserNtB7_12OpenAIParserNtNtBb_6traits14ResponseParser14parse_response0Bb_
FN:115,_RNvNtNtCsgcJ8I9f45GG_15cogni_providers6openai6parser19parse_finish_reason
FN:71,_RNvXNtNtCsgcJ8I9f45GG_15cogni_providers6openai6parserNtB2_12OpenAIParserNtNtB6_6traits17StreamEventParser11parse_event
FN:67,_RNvXs1_NtNtCsgcJ8I9f45GG_15cogni_providers6openai6parserNtB5_12OpenAIParserNtNtB9_6traits14ResponseParser14parse_response
FNDA:2,_RNCNCNCNvXs1_NtNtCs1EirRVmYTZ6_15cogni_providers6openai6parserNtBb_12OpenAIParserNtNtBf_6traits14ResponseParser14parse_response000Bf_
FNDA:2,_RNCNCNvXs1_NtNtCs1EirRVmYTZ6_15cogni_providers6openai6parserNtB9_12OpenAIParserNtNtBd_6traits14ResponseParser14parse_response00Bd_
FNDA:5,_RNCNCNvXs1_NtNtCs1EirRVmYTZ6_15cogni_providers6openai6parserNtB9_12OpenAIParserNtNtBd_6traits14ResponseParser14parse_response0s_0Bd_
FNDA:51,_RNCNvXNtNtCs1EirRVmYTZ6_15cogni_providers6openai6parserNtB4_12OpenAIParserNtNtB8_6traits17StreamEventParser11parse_event0B8_
FNDA:51,_RNCNvXNtNtCs1EirRVmYTZ6_15cogni_providers6openai6parserNtB4_12OpenAIParserNtNtB8_6traits17StreamEventParser11parse_events_0B8_
FNDA:5,_RNCNvXs1_NtNtCs1EirRVmYTZ6_15cogni_providers6openai6parserNtB7_12OpenAIParserNtNtBb_6traits14ResponseParser14parse_response0Bb_
FNDA:5,_RNvNtNtCs1EirRVmYTZ6_15cogni_providers6openai6parser19parse_finish_reason
FNDA:161,_RNvXNtNtCs1EirRVmYTZ6_15cogni_providers6openai6parserNtB2_12OpenAIParserNtNtB6_6traits17StreamEventParser11parse_event
FNDA:5,_RNvXs1_NtNtCs1EirRVmYTZ6_15cogni_providers6openai6parserNtB5_12OpenAIParserNtNtB9_6traits14ResponseParser14parse_response
FNDA:0,_RNCNCNCNvXs1_NtNtCsgcJ8I9f45GG_15cogni_providers6openai6parserNtBb_12OpenAIParserNtNtBf_6traits14ResponseParser14parse_response000Bf_
FNDA:0,_RNCNCNvXs1_NtNtCsgcJ8I9f45GG_15cogni_providers6openai6parserNtB9_12OpenAIParserNtNtBd_6traits14ResponseParser14parse_response00Bd_
FNDA:0,_RNCNCNvXs1_NtNtCsgcJ8I9f45GG_15cogni_providers6openai6parserNtB9_12OpenAIParserNtNtBd_6traits14ResponseParser14parse_response0s_0Bd_
FNDA:0,_RNCNvXNtNtCsgcJ8I9f45GG_15cogni_providers6openai6parserNtB4_12OpenAIParserNtNtB8_6traits17StreamEventParser11parse_event0B8_
FNDA:0,_RNCNvXNtNtCsgcJ8I9f45GG_15cogni_providers6openai6parserNtB4_12OpenAIParserNtNtB8_6traits17StreamEventParser11parse_events_0B8_
FNDA:0,_RNCNvXs1_NtNtCsgcJ8I9f45GG_15cogni_providers6openai6parserNtB7_12OpenAIParserNtNtBb_6traits14ResponseParser14parse_response0Bb_
FNDA:0,_RNvNtNtCsgcJ8I9f45GG_15cogni_providers6openai6parser19parse_finish_reason
FNDA:0,_RNvXNtNtCsgcJ8I9f45GG_15cogni_providers6openai6parserNtB2_12OpenAIParserNtNtB6_6traits17StreamEventParser11parse_event
FNDA:0,_RNvXs1_NtNtCsgcJ8I9f45GG_15cogni_providers6openai6parserNtB5_12OpenAIParserNtNtB9_6traits14ResponseParser14parse_response
FNF:9
FNH:9
DA:19,5
DA:20,5
DA:21,5
DA:23,5
DA:24,5
DA:25,5
DA:26,5
DA:27,5
DA:28,5
DA:29,5
DA:30,5
DA:31,2
DA:32,2
DA:33,2
DA:34,2
DA:35,2
DA:36,2
DA:37,2
DA:38,2
DA:39,5
DA:40,5
DA:41,5
DA:42,5
DA:43,5
DA:44,5
DA:45,5
DA:46,5
DA:47,5
DA:48,5
DA:49,5
DA:50,5
DA:51,5
DA:52,5
DA:53,5
DA:54,5
DA:55,5
DA:56,5
DA:57,5
DA:58,5
DA:60,0
DA:61,0
DA:62,0
DA:63,0
DA:64,0
DA:65,0
DA:67,10
DA:71,161
DA:72,161
DA:73,161
DA:74,3
DA:75,158
DA:77,158
DA:78,158
DA:80,158
DA:82,158
DA:83,104
DA:84,104
DA:85,104
DA:86,54
DA:89,54
DA:90,51
DA:91,51
DA:92,51
DA:93,51
DA:94,51
DA:95,51
DA:96,51
DA:97,0
DA:98,3
DA:99,0
DA:102,3
DA:103,3
DA:104,3
DA:105,3
DA:106,3
DA:107,3
DA:108,0
DA:109,0
DA:111,0
DA:112,161
DA:115,5
DA:116,5
DA:117,5
DA:118,2
DA:119,2
DA:120,0
DA:121,0
DA:123,5
BRF:0
BRH:0
LF:97
LH:84
end_of_record
SF:/Users/jkh/Code/ai/cogni/cogni-providers/src/openai/provider.rs
FN:35,_RINvMNtNtCs1EirRVmYTZ6_15cogni_providers6openai8providerNtB3_6OpenAI12with_api_keyNtNtCse1nGBsou5OW_5alloc6string6StringECsgyDhXtLpw1x_21agentic_features_test
FN:47,_RNvMNtNtCs1EirRVmYTZ6_15cogni_providers6openai8providerNtB2_6OpenAI11with_client
FN:24,_RNvMNtNtCs1EirRVmYTZ6_15cogni_providers6openai8providerNtB2_6OpenAI3new
FN:96,_RNvXs0_NtNtCs1EirRVmYTZ6_15cogni_providers6openai8providerNtB5_6OpenAINtNtCsagf8dG4onv5_10cogni_core8provider8Provider6stream
FN:72,_RNvXs0_NtNtCs1EirRVmYTZ6_15cogni_providers6openai8providerNtB5_6OpenAINtNtCsagf8dG4onv5_10cogni_core8provider8Provider7request
FN:35,_RINvMNtNtCs1EirRVmYTZ6_15cogni_providers6openai8providerNtB3_6OpenAI12with_api_keypEB7_
FN:90,_RNCNCNvXs0_NtNtCs1EirRVmYTZ6_15cogni_providers6openai8providerNtB9_6OpenAINtNtCsagf8dG4onv5_10cogni_core8provider8Provider6stream00Bd_
FN:74,_RNCNvXs0_NtNtCs1EirRVmYTZ6_15cogni_providers6openai8providerNtB7_6OpenAINtNtCsagf8dG4onv5_10cogni_core8provider8Provider6stream0Bb_
FN:61,_RNCNvXs0_NtNtCs1EirRVmYTZ6_15cogni_providers6openai8providerNtB7_6OpenAINtNtCsagf8dG4onv5_10cogni_core8provider8Provider7request0Bb_
FN:35,_RINvMNtNtCsgcJ8I9f45GG_15cogni_providers6openai8providerNtB3_6OpenAI12with_api_keypEB7_
FN:90,_RNCNCNvXs0_NtNtCsgcJ8I9f45GG_15cogni_providers6openai8providerNtB9_6OpenAINtNtCsagf8dG4onv5_10cogni_core8provider8Provider6stream00Bd_
FN:74,_RNCNvXs0_NtNtCsgcJ8I9f45GG_15cogni_providers6openai8providerNtB7_6OpenAINtNtCsagf8dG4onv5_10cogni_core8provider8Provider6stream0Bb_
FN:61,_RNCNvXs0_NtNtCsgcJ8I9f45GG_15cogni_providers6openai8providerNtB7_6OpenAINtNtCsagf8dG4onv5_10cogni_core8provider8Provider7request0Bb_
FN:47,_RNvMNtNtCsgcJ8I9f45GG_15cogni_providers6openai8providerNtB2_6OpenAI11with_client
FN:24,_RNvMNtNtCsgcJ8I9f45GG_15cogni_providers6openai8providerNtB2_6OpenAI3new
FN:96,_RNvXs0_NtNtCsgcJ8I9f45GG_15cogni_providers6openai8providerNtB5_6OpenAINtNtCsagf8dG4onv5_10cogni_core8provider8Provider6stream
FN:72,_RNvXs0_NtNtCsgcJ8I9f45GG_15cogni_providers6openai8providerNtB5_6OpenAINtNtCsagf8dG4onv5_10cogni_core8provider8Provider7request
FN:35,_RINvMNtNtCs1EirRVmYTZ6_15cogni_providers6openai8providerNtB3_6OpenAI12with_api_keyNtNtCse1nGBsou5OW_5alloc6string6StringECsQadenfUz7B_22structured_output_test
FN:35,_RINvMNtNtCs1EirRVmYTZ6_15cogni_providers6openai8providerNtB3_6OpenAI12with_api_keyNtNtCse1nGBsou5OW_5alloc6string6StringECskDMj0mycnZW_21tool_integration_test
FN:35,_RINvMNtNtCs1EirRVmYTZ6_15cogni_providers6openai8providerNtB3_6OpenAI12with_api_keyNtNtCse1nGBsou5OW_5alloc6string6StringECscJLei9umsYl_19tool_streaming_test
FNDA:1,_RINvMNtNtCs1EirRVmYTZ6_15cogni_providers6openai8providerNtB3_6OpenAI12with_api_keyNtNtCse1nGBsou5OW_5alloc6string6StringECsgyDhXtLpw1x_21agentic_features_test
FNDA:0,_RNvMNtNtCs1EirRVmYTZ6_15cogni_providers6openai8providerNtB2_6OpenAI11with_client
FNDA:0,_RNvMNtNtCs1EirRVmYTZ6_15cogni_providers6openai8providerNtB2_6OpenAI3new
FNDA:3,_RNvXs0_NtNtCs1EirRVmYTZ6_15cogni_providers6openai8providerNtB5_6OpenAINtNtCsagf8dG4onv5_10cogni_core8provider8Provider6stream
FNDA:5,_RNvXs0_NtNtCs1EirRVmYTZ6_15cogni_providers6openai8providerNtB5_6OpenAINtNtCsagf8dG4onv5_10cogni_core8provider8Provider7request
FNDA:0,_RINvMNtNtCs1EirRVmYTZ6_15cogni_providers6openai8providerNtB3_6OpenAI12with_api_keypEB7_
FNDA:0,_RNCNCNvXs0_NtNtCs1EirRVmYTZ6_15cogni_providers6openai8providerNtB9_6OpenAINtNtCsagf8dG4onv5_10cogni_core8provider8Provider6stream00Bd_
FNDA:3,_RNCNvXs0_NtNtCs1EirRVmYTZ6_15cogni_providers6openai8providerNtB7_6OpenAINtNtCsagf8dG4onv5_10cogni_core8provider8Provider6stream0Bb_
FNDA:5,_RNCNvXs0_NtNtCs1EirRVmYTZ6_15cogni_providers6openai8providerNtB7_6OpenAINtNtCsagf8dG4onv5_10cogni_core8provider8Provider7request0Bb_
FNDA:0,_RINvMNtNtCsgcJ8I9f45GG_15cogni_providers6openai8providerNtB3_6OpenAI12with_api_keypEB7_
FNDA:0,_RNCNCNvXs0_NtNtCsgcJ8I9f45GG_15cogni_providers6openai8providerNtB9_6OpenAINtNtCsagf8dG4onv5_10cogni_core8provider8Provider6stream00Bd_
FNDA:0,_RNCNvXs0_NtNtCsgcJ8I9f45GG_15cogni_providers6openai8providerNtB7_6OpenAINtNtCsagf8dG4onv5_10cogni_core8provider8Provider6stream0Bb_
FNDA:0,_RNCNvXs0_NtNtCsgcJ8I9f45GG_15cogni_providers6openai8providerNtB7_6OpenAINtNtCsagf8dG4onv5_10cogni_core8provider8Provider7request0Bb_
FNDA:0,_RNvMNtNtCsgcJ8I9f45GG_15cogni_providers6openai8providerNtB2_6OpenAI11with_client
FNDA:0,_RNvMNtNtCsgcJ8I9f45GG_15cogni_providers6openai8providerNtB2_6OpenAI3new
FNDA:0,_RNvXs0_NtNtCsgcJ8I9f45GG_15cogni_providers6openai8providerNtB5_6OpenAINtNtCsagf8dG4onv5_10cogni_core8provider8Provider6stream
FNDA:0,_RNvXs0_NtNtCsgcJ8I9f45GG_15cogni_providers6openai8providerNtB5_6OpenAINtNtCsagf8dG4onv5_10cogni_core8provider8Provider7request
FNDA:2,_RINvMNtNtCs1EirRVmYTZ6_15cogni_providers6openai8providerNtB3_6OpenAI12with_api_keyNtNtCse1nGBsou5OW_5alloc6string6StringECsQadenfUz7B_22structured_output_test
FNDA:2,_RINvMNtNtCs1EirRVmYTZ6_15cogni_providers6openai8providerNtB3_6OpenAI12with_api_keyNtNtCse1nGBsou5OW_5alloc6string6StringECskDMj0mycnZW_21tool_integration_test
FNDA:3,_RINvMNtNtCs1EirRVmYTZ6_15cogni_providers6openai8providerNtB3_6OpenAI12with_api_keyNtNtCse1nGBsou5OW_5alloc6string6StringECscJLei9umsYl_19tool_streaming_test
FNF:8
FNH:5
DA:24,0
DA:25,0
DA:26,0
DA:27,0
DA:28,0
DA:29,0
DA:30,0
DA:31,0
DA:32,0
DA:35,8
DA:36,8
DA:37,8
DA:38,8
DA:39,8
DA:40,8
DA:41,8
DA:42,8
DA:43,8
DA:44,8
DA:47,0
DA:48,0
DA:49,0
DA:50,0
DA:51,0
DA:52,0
DA:53,0
DA:54,0
DA:61,5
DA:62,5
DA:63,5
DA:65,5
DA:66,5
DA:67,5
DA:68,5
DA:69,5
DA:71,5
DA:72,10
DA:74,3
DA:75,3
DA:76,3
DA:78,3
DA:81,3
DA:82,3
DA:85,6
DA:86,6
DA:87,6
DA:90,3
DA:91,0
DA:92,0
DA:93,3
DA:95,3
DA:96,6
BRF:0
BRH:0
LF:56
LH:35
end_of_record
SF:/Users/jkh/Code/ai/cogni/cogni-providers/src/openai/stream.rs
FN:19,_RNvMNtNtCs1EirRVmYTZ6_15cogni_providers6openai6streamNtB2_12OpenAIStream3new
FN:30,_RNvXs_NtNtCs1EirRVmYTZ6_15cogni_providers6openai6streamNtB4_12OpenAIStreamNtNtCs7Q3stxvKTHU_12futures_core6stream6Stream9poll_next
FN:19,_RNvMNtNtCsgcJ8I9f45GG_15cogni_providers6openai6streamNtB2_12OpenAIStream3new
FN:30,_RNvXs_NtNtCsgcJ8I9f45GG_15cogni_providers6openai6streamNtB4_12OpenAIStreamNtNtCs7Q3stxvKTHU_12futures_core6stream6Stream9poll_next
FNDA:3,_RNvMNtNtCs1EirRVmYTZ6_15cogni_providers6openai6streamNtB2_12OpenAIStream3new
FNDA:266,_RNvXs_NtNtCs1EirRVmYTZ6_15cogni_providers6openai6streamNtB4_12OpenAIStreamNtNtCs7Q3stxvKTHU_12futures_core6stream6Stream9poll_next
FNDA:0,_RNvMNtNtCsgcJ8I9f45GG_15cogni_providers6openai6streamNtB2_12OpenAIStream3new
FNDA:0,_RNvXs_NtNtCsgcJ8I9f45GG_15cogni_providers6openai6streamNtB4_12OpenAIStreamNtNtCs7Q3stxvKTHU_12futures_core6stream6Stream9poll_next
FNF:2
FNH:2
DA:19,3
DA:20,3
DA:21,3
DA:22,3
DA:23,3
DA:24,3
DA:30,266
DA:31,266
DA:34,3
DA:35,3
DA:37,161
DA:38,161
DA:39,161
DA:40,161
DA:43,0
DA:44,0
DA:46,0
DA:49,0
DA:50,0
DA:51,0
DA:52,0
DA:53,0
DA:54,102
DA:56,266
BRF:0
BRH:0
LF:24
LH:16
end_of_record
SF:/Users/jkh/Code/ai/cogni/cogni-providers/src/utils.rs
FN:46,_RINvNtCs1EirRVmYTZ6_15cogni_providers5utils16set_stream_fieldpEB4_
FN:30,_RNvNtCs1EirRVmYTZ6_15cogni_providers5utils16to_network_error
FN:7,_RNvNtCs1EirRVmYTZ6_15cogni_providers5utils21check_response_status
FN:38,_RNvNtCs1EirRVmYTZ6_15cogni_providers5utils22to_serialization_error
FN:18,_RNCNCNvNtCs1EirRVmYTZ6_15cogni_providers5utils21check_response_status00B7_
FN:10,_RNCNvNtCs1EirRVmYTZ6_15cogni_providers5utils21check_response_status0B5_
FN:18,_RNCNCNvNtCsgcJ8I9f45GG_15cogni_providers5utils21check_response_status00B7_
FN:10,_RNCNvNtCsgcJ8I9f45GG_15cogni_providers5utils21check_response_status0B5_
FN:30,_RNvNtCsgcJ8I9f45GG_15cogni_providers5utils16to_network_error
FN:7,_RNvNtCsgcJ8I9f45GG_15cogni_providers5utils21check_response_status
FN:46,_RINvNtCsgcJ8I9f45GG_15cogni_providers5utils16set_stream_fieldNtNtB2_5tests11TestRequestEB4_
FN:46,_RINvNtCsgcJ8I9f45GG_15cogni_providers5utils16set_stream_fieldNtNvNtB2_5testss_37test_set_stream_field_with_non_object11SimpleValueEB4_
FN:46,_RINvNtCsgcJ8I9f45GG_15cogni_providers5utils16set_stream_fieldNtNvNtB2_5testss_44test_set_stream_field_preserves_other_fields14ComplexRequestEB4_
FN:75,_RNvNtNtCsgcJ8I9f45GG_15cogni_providers5utils5testss_21test_set_stream_field
FN:103,_RNvNtNtCsgcJ8I9f45GG_15cogni_providers5utils5testss_27test_to_serialization_error
FN:117,_RNvNtNtCsgcJ8I9f45GG_15cogni_providers5utils5testss_37test_set_stream_field_with_non_object
FN:86,_RNvNtNtCsgcJ8I9f45GG_15cogni_providers5utils5testss_41test_set_stream_field_with_existing_value
FN:129,_RNvNtNtCsgcJ8I9f45GG_15cogni_providers5utils5testss_44test_set_stream_field_preserves_other_fields
FN:38,_RNvNtCsgcJ8I9f45GG_15cogni_providers5utils22to_serialization_error
FNDA:0,_RINvNtCs1EirRVmYTZ6_15cogni_providers5utils16set_stream_fieldpEB4_
FNDA:0,_RNvNtCs1EirRVmYTZ6_15cogni_providers5utils16to_network_error
FNDA:2,_RNvNtCs1EirRVmYTZ6_15cogni_providers5utils21check_response_status
FNDA:0,_RNvNtCs1EirRVmYTZ6_15cogni_providers5utils22to_serialization_error
FNDA:0,_RNCNCNvNtCs1EirRVmYTZ6_15cogni_providers5utils21check_response_status00B7_
FNDA:2,_RNCNvNtCs1EirRVmYTZ6_15cogni_providers5utils21check_response_status0B5_
FNDA:0,_RNCNCNvNtCsgcJ8I9f45GG_15cogni_providers5utils21check_response_status00B7_
FNDA:0,_RNCNvNtCsgcJ8I9f45GG_15cogni_providers5utils21check_response_status0B5_
FNDA:0,_RNvNtCsgcJ8I9f45GG_15cogni_providers5utils16to_network_error
FNDA:0,_RNvNtCsgcJ8I9f45GG_15cogni_providers5utils21check_response_status
FNDA:2,_RINvNtCsgcJ8I9f45GG_15cogni_providers5utils16set_stream_fieldNtNtB2_5tests11TestRequestEB4_
FNDA:1,_RINvNtCsgcJ8I9f45GG_15cogni_providers5utils16set_stream_fieldNtNvNtB2_5testss_37test_set_stream_field_with_non_object11SimpleValueEB4_
FNDA:1,_RINvNtCsgcJ8I9f45GG_15cogni_providers5utils16set_stream_fieldNtNvNtB2_5testss_44test_set_stream_field_preserves_other_fields14ComplexRequestEB4_
FNDA:1,_RNvNtNtCsgcJ8I9f45GG_15cogni_providers5utils5testss_21test_set_stream_field
FNDA:1,_RNvNtNtCsgcJ8I9f45GG_15cogni_providers5utils5testss_27test_to_serialization_error
FNDA:1,_RNvNtNtCsgcJ8I9f45GG_15cogni_providers5utils5testss_37test_set_stream_field_with_non_object
FNDA:1,_RNvNtNtCsgcJ8I9f45GG_15cogni_providers5utils5testss_41test_set_stream_field_with_existing_value
FNDA:1,_RNvNtNtCsgcJ8I9f45GG_15cogni_providers5utils5testss_44test_set_stream_field_preserves_other_fields
FNDA:1,_RNvNtCsgcJ8I9f45GG_15cogni_providers5utils22to_serialization_error
FNF:11
FNH:9
DA:7,2
DA:8,2
DA:9,2
DA:10,2
DA:11,2
DA:12,2
DA:14,0
DA:15,0
DA:16,0
DA:17,0
DA:18,0
DA:19,0
DA:20,0
DA:21,0
DA:22,0
DA:23,0
DA:24,0
DA:25,0
DA:27,2
DA:30,0
DA:31,0
DA:32,0
DA:33,0
DA:34,0
DA:35,0
DA:38,1
DA:39,1
DA:40,1
DA:41,1
DA:42,1
DA:43,1
DA:46,4
DA:47,4
DA:48,4
DA:49,4
DA:51,4
DA:52,4
DA:53,3
DA:54,3
DA:55,4
DA:56,4
DA:57,0
DA:58,0
DA:59,0
DA:60,4
DA:75,1
DA:76,1
DA:77,1
DA:78,1
DA:79,1
DA:80,1
DA:81,1
DA:82,1
DA:83,1
DA:86,1
DA:87,1
DA:88,1
DA:89,1
DA:90,1
DA:91,1
DA:92,1
DA:93,1
DA:94,1
DA:103,1
DA:104,1
DA:105,1
DA:106,1
DA:107,1
DA:108,1
DA:109,1
DA:110,1
DA:112,0
DA:114,1
DA:117,1
DA:121,1
DA:122,1
DA:123,1
DA:124,1
DA:125,1
DA:126,1
DA:129,1
DA:140,1
DA:141,1
DA:142,1
DA:143,1
DA:144,1
DA:145,1
DA:146,1
DA:147,1
DA:148,1
DA:149,1
DA:150,1
DA:151,1
DA:152,1
BRF:0
BRH:0
LF:96
LH:73
end_of_record
SF:/Users/jkh/Code/ai/cogni/cogni-state/src/error.rs
FN:60,_RINvMNtCskVBA7vvFcNH_11cogni_state5errorNtB3_10StateError13configurationpEB5_
FN:55,_RINvMNtCskVBA7vvFcNH_11cogni_state5errorNtB3_10StateError13invalid_statepEB5_
FN:50,_RINvMNtCskVBA7vvFcNH_11cogni_state5errorNtB3_10StateError15lock_contentionpEB5_
FN:45,_RINvMNtCskVBA7vvFcNH_11cogni_state5errorNtB3_10StateError7storagepEB5_
FN:60,_RINvMNtCsjNoER0XDsE6_11cogni_state5errorNtB3_10StateError13configurationReEB5_
FN:55,_RINvMNtCsjNoER0XDsE6_11cogni_state5errorNtB3_10StateError13invalid_stateReEB5_
FN:50,_RINvMNtCsjNoER0XDsE6_11cogni_state5errorNtB3_10StateError15lock_contentionReEB5_
FN:45,_RINvMNtCsjNoER0XDsE6_11cogni_state5errorNtB3_10StateError7storageReEB5_
FN:139,_RNvNtNtCsjNoER0XDsE6_11cogni_state5error5testss_16test_error_debug
FN:70,_RNvNtNtCsjNoER0XDsE6_11cogni_state5error5testss_18test_error_display
FN:104,_RNvNtNtCsjNoER0XDsE6_11cogni_state5error5testss_18test_from_io_error
FN:125,_RNvNtNtCsjNoER0XDsE6_11cogni_state5error5testss_22test_state_result_type
FN:89,_RNvNtNtCsjNoER0XDsE6_11cogni_state5error5testss_23test_error_constructors
FN:117,_RNvNtNtCsjNoER0XDsE6_11cogni_state5error5testss_26test_from_serde_json_error
FN:126,_RNvNvNtNtCsjNoER0XDsE6_11cogni_state5error5testss_22test_state_result_type10success_fn
FN:130,_RNvNvNtNtCsjNoER0XDsE6_11cogni_state5error5testss_22test_state_result_type8error_fn
FNDA:0,_RINvMNtCskVBA7vvFcNH_11cogni_state5errorNtB3_10StateError13configurationpEB5_
FNDA:0,_RINvMNtCskVBA7vvFcNH_11cogni_state5errorNtB3_10StateError13invalid_statepEB5_
FNDA:0,_RINvMNtCskVBA7vvFcNH_11cogni_state5errorNtB3_10StateError15lock_contentionpEB5_
FNDA:0,_RINvMNtCskVBA7vvFcNH_11cogni_state5errorNtB3_10StateError7storagepEB5_
FNDA:1,_RINvMNtCsjNoER0XDsE6_11cogni_state5errorNtB3_10StateError13configurationReEB5_
FNDA:1,_RINvMNtCsjNoER0XDsE6_11cogni_state5errorNtB3_10StateError13invalid_stateReEB5_
FNDA:1,_RINvMNtCsjNoER0XDsE6_11cogni_state5errorNtB3_10StateError15lock_contentionReEB5_
FNDA:1,_RINvMNtCsjNoER0XDsE6_11cogni_state5errorNtB3_10StateError7storageReEB5_
FNDA:1,_RNvNtNtCsjNoER0XDsE6_11cogni_state5error5testss_16test_error_debug
FNDA:1,_RNvNtNtCsjNoER0XDsE6_11cogni_state5error5testss_18test_error_display
FNDA:1,_RNvNtNtCsjNoER0XDsE6_11cogni_state5error5testss_18test_from_io_error
FNDA:1,_RNvNtNtCsjNoER0XDsE6_11cogni_state5error5testss_22test_state_result_type
FNDA:1,_RNvNtNtCsjNoER0XDsE6_11cogni_state5error5testss_23test_error_constructors
FNDA:1,_RNvNtNtCsjNoER0XDsE6_11cogni_state5error5testss_26test_from_serde_json_error
FNDA:1,_RNvNvNtNtCsjNoER0XDsE6_11cogni_state5error5testss_22test_state_result_type10success_fn
FNDA:1,_RNvNvNtNtCsjNoER0XDsE6_11cogni_state5error5testss_22test_state_result_type8error_fn
FNF:12
FNH:12
DA:45,1
DA:46,1
DA:47,1
DA:50,1
DA:51,1
DA:52,1
DA:55,1
DA:56,1
DA:57,1
DA:60,1
DA:61,1
DA:62,1
DA:70,1
DA:71,1
DA:72,1
DA:73,1
DA:75,1
DA:76,1
DA:78,1
DA:79,1
DA:81,1
DA:82,1
DA:84,1
DA:85,1
DA:86,1
DA:89,1
DA:90,1
DA:91,1
DA:93,1
DA:94,1
DA:96,1
DA:97,1
DA:99,1
DA:100,1
DA:101,1
DA:104,1
DA:105,1
DA:106,1
DA:107,1
DA:108,1
DA:109,1
DA:110,1
DA:112,0
DA:114,1
DA:117,1
DA:118,1
DA:119,1
DA:120,1
DA:121,1
DA:122,1
DA:125,1
DA:126,1
DA:127,1
DA:128,1
DA:130,1
DA:131,1
DA:132,1
DA:134,1
DA:135,1
DA:136,1
DA:139,1
DA:140,1
DA:141,1
DA:142,1
DA:143,1
DA:144,1
BRF:0
BRH:0
LF:66
LH:65
end_of_record
SF:/Users/jkh/Code/ai/cogni/cogni-state/src/lib.rs
FN:28,_RNCNvNtCsjNoER0XDsE6_11cogni_state5testss_16test_add_message0B5_
FN:20,_RNCNvNtCsjNoER0XDsE6_11cogni_state5testss_32test_conversation_state_creation0B5_
FN:28,_RNvNtCsjNoER0XDsE6_11cogni_state5testss_16test_add_message
FN:20,_RNvNtCsjNoER0XDsE6_11cogni_state5testss_32test_conversation_state_creation
FNDA:1,_RNCNvNtCsjNoER0XDsE6_11cogni_state5testss_16test_add_message0B5_
FNDA:1,_RNCNvNtCsjNoER0XDsE6_11cogni_state5testss_32test_conversation_state_creation0B5_
FNDA:1,_RNvNtCsjNoER0XDsE6_11cogni_state5testss_16test_add_message
FNDA:1,_RNvNtCsjNoER0XDsE6_11cogni_state5testss_32test_conversation_state_creation
FNF:4
FNH:4
DA:20,1
DA:21,1
DA:22,1
DA:23,1
DA:24,1
DA:25,1
DA:28,1
DA:29,1
DA:30,1
DA:31,1
DA:32,1
DA:33,1
DA:34,1
DA:35,1
DA:36,1
DA:37,1
DA:38,1
DA:39,1
BRF:0
BRH:0
LF:34
LH:34
end_of_record
SF:/Users/jkh/Code/ai/cogni/cogni-state/src/store.rs
FN:35,_RNvYNtNtNtCskVBA7vvFcNH_11cogni_state5store6memory11MemoryStoreNtB6_10StateStore12find_by_tagsCsgyDhXtLpw1x_21agentic_features_test
FN:68,_RNvYNtNtNtCskVBA7vvFcNH_11cogni_state5store6memory11MemoryStoreNtB6_10StateStore12get_metadataCsgyDhXtLpw1x_21agentic_features_test
FN:49,_RNvYNtNtNtCskVBA7vvFcNH_11cogni_state5store6memory11MemoryStoreNtB6_10StateStore6upsertCsgyDhXtLpw1x_21agentic_features_test
FN:33,_RNCNCNCNvYNtNtNtCskVBA7vvFcNH_11cogni_state5store4file9FileStoreNtBc_10StateStore12find_by_tags000CsgyDhXtLpw1x_21agentic_features_test
FN:33,_RNCNCNCNvYNtNtNtCskVBA7vvFcNH_11cogni_state5store6memory11MemoryStoreNtBc_10StateStore12find_by_tags000CsgyDhXtLpw1x_21agentic_features_test
FN:33,_RNCNCNvYNtNtNtCskVBA7vvFcNH_11cogni_state5store4file9FileStoreNtBa_10StateStore12find_by_tags00CsgyDhXtLpw1x_21agentic_features_test
FN:33,_RNCNCNvYNtNtNtCskVBA7vvFcNH_11cogni_state5store6memory11MemoryStoreNtBa_10StateStore12find_by_tags00CsgyDhXtLpw1x_21agentic_features_test
FN:29,_RNCNvYNtNtNtCskVBA7vvFcNH_11cogni_state5store4file9FileStoreNtB8_10StateStore12find_by_tags0CsgyDhXtLpw1x_21agentic_features_test
FN:58,_RNCNvYNtNtNtCskVBA7vvFcNH_11cogni_state5store4file9FileStoreNtB8_10StateStore12get_metadata0CsgyDhXtLpw1x_21agentic_features_test
FN:47,_RNCNvYNtNtNtCskVBA7vvFcNH_11cogni_state5store4file9FileStoreNtB8_10StateStore6upsert0CsgyDhXtLpw1x_21agentic_features_test
FN:29,_RNCNvYNtNtNtCskVBA7vvFcNH_11cogni_state5store6memory11MemoryStoreNtB8_10StateStore12find_by_tags0CsgyDhXtLpw1x_21agentic_features_test
FN:58,_RNCNvYNtNtNtCskVBA7vvFcNH_11cogni_state5store6memory11MemoryStoreNtB8_10StateStore12get_metadata0CsgyDhXtLpw1x_21agentic_features_test
FN:47,_RNCNvYNtNtNtCskVBA7vvFcNH_11cogni_state5store6memory11MemoryStoreNtB8_10StateStore6upsert0CsgyDhXtLpw1x_21agentic_features_test
FN:35,_RNvYNtNtNtCskVBA7vvFcNH_11cogni_state5store4file9FileStoreNtB6_10StateStore12find_by_tagsCsgyDhXtLpw1x_21agentic_features_test
FN:68,_RNvYNtNtNtCskVBA7vvFcNH_11cogni_state5store4file9FileStoreNtB6_10StateStore12get_metadataCsgyDhXtLpw1x_21agentic_features_test
FN:49,_RNvYNtNtNtCskVBA7vvFcNH_11cogni_state5store4file9FileStoreNtB6_10StateStore6upsertCsgyDhXtLpw1x_21agentic_features_test
FN:33,_RNCNCNCNvYpNtNtCskVBA7vvFcNH_11cogni_state5store10StateStore12find_by_tags000Bd_
FN:33,_RNCNCNvYpNtNtCskVBA7vvFcNH_11cogni_state5store10StateStore12find_by_tags00Bb_
FN:54,_RNCNCNvYpNtNtCskVBA7vvFcNH_11cogni_state5store10StateStore8list_ids00Bb_
FN:29,_RNCNvYpNtNtCskVBA7vvFcNH_11cogni_state5store10StateStore12find_by_tags0B9_
FN:58,_RNCNvYpNtNtCskVBA7vvFcNH_11cogni_state5store10StateStore12get_metadata0B9_
FN:38,_RNCNvYpNtNtCskVBA7vvFcNH_11cogni_state5store10StateStore6exists0B9_
FN:47,_RNCNvYpNtNtCskVBA7vvFcNH_11cogni_state5store10StateStore6upsert0B9_
FN:52,_RNCNvYpNtNtCskVBA7vvFcNH_11cogni_state5store10StateStore8list_ids0B9_
FN:35,_RNvYpNtNtCskVBA7vvFcNH_11cogni_state5store10StateStore12find_by_tagsB7_
FN:68,_RNvYpNtNtCskVBA7vvFcNH_11cogni_state5store10StateStore12get_metadataB7_
FN:44,_RNvYpNtNtCskVBA7vvFcNH_11cogni_state5store10StateStore6existsB7_
FN:49,_RNvYpNtNtCskVBA7vvFcNH_11cogni_state5store10StateStore6upsertB7_
FN:55,_RNvYpNtNtCskVBA7vvFcNH_11cogni_state5store10StateStore8list_idsB7_
FN:35,_RNvYNtNtNtCskVBA7vvFcNH_11cogni_state5store6memory11MemoryStoreNtB6_10StateStore12find_by_tagsCshZjyUOIHxJx_12cogni_client
FN:68,_RNvYNtNtNtCskVBA7vvFcNH_11cogni_state5store6memory11MemoryStoreNtB6_10StateStore12get_metadataCshZjyUOIHxJx_12cogni_client
FN:49,_RNvYNtNtNtCskVBA7vvFcNH_11cogni_state5store6memory11MemoryStoreNtB6_10StateStore6upsertCshZjyUOIHxJx_12cogni_client
FN:33,_RNCNCNCNvYNtNtNtCskVBA7vvFcNH_11cogni_state5store6memory11MemoryStoreNtBc_10StateStore12find_by_tags000CshZjyUOIHxJx_12cogni_client
FN:33,_RNCNCNvYNtNtNtCskVBA7vvFcNH_11cogni_state5store6memory11MemoryStoreNtBa_10StateStore12find_by_tags00CshZjyUOIHxJx_12cogni_client
FN:29,_RNCNvYNtNtNtCskVBA7vvFcNH_11cogni_state5store6memory11MemoryStoreNtB8_10StateStore12find_by_tags0CshZjyUOIHxJx_12cogni_client
FN:58,_RNCNvYNtNtNtCskVBA7vvFcNH_11cogni_state5store6memory11MemoryStoreNtB8_10StateStore12get_metadata0CshZjyUOIHxJx_12cogni_client
FN:47,_RNCNvYNtNtNtCskVBA7vvFcNH_11cogni_state5store6memory11MemoryStoreNtB8_10StateStore6upsert0CshZjyUOIHxJx_12cogni_client
FN:35,_RNvYNtNtNtCskVBA7vvFcNH_11cogni_state5store6memory11MemoryStoreNtB6_10StateStore12find_by_tagsCs489t2QWteFi_16cogni_middleware
FN:68,_RNvYNtNtNtCskVBA7vvFcNH_11cogni_state5store6memory11MemoryStoreNtB6_10StateStore12get_metadataCs489t2QWteFi_16cogni_middleware
FN:49,_RNvYNtNtNtCskVBA7vvFcNH_11cogni_state5store6memory11MemoryStoreNtB6_10StateStore6upsertCs489t2QWteFi_16cogni_middleware
FN:33,_RNCNCNCNvYNtNtNtCskVBA7vvFcNH_11cogni_state5store6memory11MemoryStoreNtBc_10StateStore12find_by_tags000Cs489t2QWteFi_16cogni_middleware
FN:33,_RNCNCNvYNtNtNtCskVBA7vvFcNH_11cogni_state5store6memory11MemoryStoreNtBa_10StateStore12find_by_tags00Cs489t2QWteFi_16cogni_middleware
FN:29,_RNCNvYNtNtNtCskVBA7vvFcNH_11cogni_state5store6memory11MemoryStoreNtB8_10StateStore12find_by_tags0Cs489t2QWteFi_16cogni_middleware
FN:58,_RNCNvYNtNtNtCskVBA7vvFcNH_11cogni_state5store6memory11MemoryStoreNtB8_10StateStore12get_metadata0Cs489t2QWteFi_16cogni_middleware
FN:47,_RNCNvYNtNtNtCskVBA7vvFcNH_11cogni_state5store6memory11MemoryStoreNtB8_10StateStore6upsert0Cs489t2QWteFi_16cogni_middleware
FN:54,_RNCNCNvYpNtNtCsjNoER0XDsE6_11cogni_state5store10StateStore8list_ids00Bb_
FN:58,_RNCNvYpNtNtCsjNoER0XDsE6_11cogni_state5store10StateStore12get_metadata0B9_
FN:38,_RNCNvYpNtNtCsjNoER0XDsE6_11cogni_state5store10StateStore6exists0B9_
FN:47,_RNCNvYpNtNtCsjNoER0XDsE6_11cogni_state5store10StateStore6upsert0B9_
FN:52,_RNCNvYpNtNtCsjNoER0XDsE6_11cogni_state5store10StateStore8list_ids0B9_
FN:68,_RNvYpNtNtCsjNoER0XDsE6_11cogni_state5store10StateStore12get_metadataB7_
FN:44,_RNvYpNtNtCsjNoER0XDsE6_11cogni_state5store10StateStore6existsB7_
FN:49,_RNvYpNtNtCsjNoER0XDsE6_11cogni_state5store10StateStore6upsertB7_
FN:55,_RNvYpNtNtCsjNoER0XDsE6_11cogni_state5store10StateStore8list_idsB7_
FN:35,_RNvYNtNtNtCsjNoER0XDsE6_11cogni_state5store6memory11MemoryStoreNtB6_10StateStore12find_by_tagsB8_
FN:33,_RNCNCNCNvYNtNtNtCsjNoER0XDsE6_11cogni_state5store6memory11MemoryStoreNtBc_10StateStore12find_by_tags000Be_
FN:33,_RNCNCNvYNtNtNtCsjNoER0XDsE6_11cogni_state5store6memory11MemoryStoreNtBa_10StateStore12find_by_tags00Bc_
FN:29,_RNCNvYNtNtNtCsjNoER0XDsE6_11cogni_state5store6memory11MemoryStoreNtB8_10StateStore12find_by_tags0Ba_
FN:77,_RNvNtNtCsjNoER0XDsE6_11cogni_state5store5tests17create_test_state
FN:139,_RNvNtNtCsjNoER0XDsE6_11cogni_state5store5testss_17test_find_by_tags
FN:116,_RNvNtNtCsjNoER0XDsE6_11cogni_state5store5testss_21test_file_store_basic
FN:90,_RNvNtNtCsjNoER0XDsE6_11cogni_state5store5testss_23test_memory_store_basic
FN:77,_RNCNvNtNtCsjNoER0XDsE6_11cogni_state5store5tests17create_test_state0B7_
FN:139,_RNCNvNtNtCsjNoER0XDsE6_11cogni_state5store5testss_17test_find_by_tags0B7_
FN:116,_RNCNvNtNtCsjNoER0XDsE6_11cogni_state5store5testss_21test_file_store_basic0B7_
FN:90,_RNCNvNtNtCsjNoER0XDsE6_11cogni_state5store5testss_23test_memory_store_basic0B7_
FNDA:0,_RNvYNtNtNtCskVBA7vvFcNH_11cogni_state5store6memory11MemoryStoreNtB6_10StateStore12find_by_tagsCsgyDhXtLpw1x_21agentic_features_test
FNDA:0,_RNvYNtNtNtCskVBA7vvFcNH_11cogni_state5store6memory11MemoryStoreNtB6_10StateStore12get_metadataCsgyDhXtLpw1x_21agentic_features_test
FNDA:0,_RNvYNtNtNtCskVBA7vvFcNH_11cogni_state5store6memory11MemoryStoreNtB6_10StateStore6upsertCsgyDhXtLpw1x_21agentic_features_test
FNDA:0,_RNCNCNCNvYNtNtNtCskVBA7vvFcNH_11cogni_state5store4file9FileStoreNtBc_10StateStore12find_by_tags000CsgyDhXtLpw1x_21agentic_features_test
FNDA:0,_RNCNCNCNvYNtNtNtCskVBA7vvFcNH_11cogni_state5store6memory11MemoryStoreNtBc_10StateStore12find_by_tags000CsgyDhXtLpw1x_21agentic_features_test
FNDA:0,_RNCNCNvYNtNtNtCskVBA7vvFcNH_11cogni_state5store4file9FileStoreNtBa_10StateStore12find_by_tags00CsgyDhXtLpw1x_21agentic_features_test
FNDA:0,_RNCNCNvYNtNtNtCskVBA7vvFcNH_11cogni_state5store6memory11MemoryStoreNtBa_10StateStore12find_by_tags00CsgyDhXtLpw1x_21agentic_features_test
FNDA:0,_RNCNvYNtNtNtCskVBA7vvFcNH_11cogni_state5store4file9FileStoreNtB8_10StateStore12find_by_tags0CsgyDhXtLpw1x_21agentic_features_test
FNDA:0,_RNCNvYNtNtNtCskVBA7vvFcNH_11cogni_state5store4file9FileStoreNtB8_10StateStore12get_metadata0CsgyDhXtLpw1x_21agentic_features_test
FNDA:0,_RNCNvYNtNtNtCskVBA7vvFcNH_11cogni_state5store4file9FileStoreNtB8_10StateStore6upsert0CsgyDhXtLpw1x_21agentic_features_test
FNDA:0,_RNCNvYNtNtNtCskVBA7vvFcNH_11cogni_state5store6memory11MemoryStoreNtB8_10StateStore12find_by_tags0CsgyDhXtLpw1x_21agentic_features_test
FNDA:0,_RNCNvYNtNtNtCskVBA7vvFcNH_11cogni_state5store6memory11MemoryStoreNtB8_10StateStore12get_metadata0CsgyDhXtLpw1x_21agentic_features_test
FNDA:0,_RNCNvYNtNtNtCskVBA7vvFcNH_11cogni_state5store6memory11MemoryStoreNtB8_10StateStore6upsert0CsgyDhXtLpw1x_21agentic_features_test
FNDA:0,_RNvYNtNtNtCskVBA7vvFcNH_11cogni_state5store4file9FileStoreNtB6_10StateStore12find_by_tagsCsgyDhXtLpw1x_21agentic_features_test
FNDA:0,_RNvYNtNtNtCskVBA7vvFcNH_11cogni_state5store4file9FileStoreNtB6_10StateStore12get_metadataCsgyDhXtLpw1x_21agentic_features_test
FNDA:0,_RNvYNtNtNtCskVBA7vvFcNH_11cogni_state5store4file9FileStoreNtB6_10StateStore6upsertCsgyDhXtLpw1x_21agentic_features_test
FNDA:0,_RNCNCNCNvYpNtNtCskVBA7vvFcNH_11cogni_state5store10StateStore12find_by_tags000Bd_
FNDA:0,_RNCNCNvYpNtNtCskVBA7vvFcNH_11cogni_state5store10StateStore12find_by_tags00Bb_
FNDA:0,_RNCNCNvYpNtNtCskVBA7vvFcNH_11cogni_state5store10StateStore8list_ids00Bb_
FNDA:0,_RNCNvYpNtNtCskVBA7vvFcNH_11cogni_state5store10StateStore12find_by_tags0B9_
FNDA:0,_RNCNvYpNtNtCskVBA7vvFcNH_11cogni_state5store10StateStore12get_metadata0B9_
FNDA:0,_RNCNvYpNtNtCskVBA7vvFcNH_11cogni_state5store10StateStore6exists0B9_
FNDA:0,_RNCNvYpNtNtCskVBA7vvFcNH_11cogni_state5store10StateStore6upsert0B9_
FNDA:0,_RNCNvYpNtNtCskVBA7vvFcNH_11cogni_state5store10StateStore8list_ids0B9_
FNDA:0,_RNvYpNtNtCskVBA7vvFcNH_11cogni_state5store10StateStore12find_by_tagsB7_
FNDA:0,_RNvYpNtNtCskVBA7vvFcNH_11cogni_state5store10StateStore12get_metadataB7_
FNDA:0,_RNvYpNtNtCskVBA7vvFcNH_11cogni_state5store10StateStore6existsB7_
FNDA:0,_RNvYpNtNtCskVBA7vvFcNH_11cogni_state5store10StateStore6upsertB7_
FNDA:0,_RNvYpNtNtCskVBA7vvFcNH_11cogni_state5store10StateStore8list_idsB7_
FNDA:1,_RNvYNtNtNtCskVBA7vvFcNH_11cogni_state5store6memory11MemoryStoreNtB6_10StateStore12find_by_tagsCshZjyUOIHxJx_12cogni_client
FNDA:0,_RNvYNtNtNtCskVBA7vvFcNH_11cogni_state5store6memory11MemoryStoreNtB6_10StateStore12get_metadataCshZjyUOIHxJx_12cogni_client
FNDA:0,_RNvYNtNtNtCskVBA7vvFcNH_11cogni_state5store6memory11MemoryStoreNtB6_10StateStore6upsertCshZjyUOIHxJx_12cogni_client
FNDA:2,_RNCNCNCNvYNtNtNtCskVBA7vvFcNH_11cogni_state5store6memory11MemoryStoreNtBc_10StateStore12find_by_tags000CshZjyUOIHxJx_12cogni_client
FNDA:2,_RNCNCNvYNtNtNtCskVBA7vvFcNH_11cogni_state5store6memory11MemoryStoreNtBa_10StateStore12find_by_tags00CshZjyUOIHxJx_12cogni_client
FNDA:1,_RNCNvYNtNtNtCskVBA7vvFcNH_11cogni_state5store6memory11MemoryStoreNtB8_10StateStore12find_by_tags0CshZjyUOIHxJx_12cogni_client
FNDA:0,_RNCNvYNtNtNtCskVBA7vvFcNH_11cogni_state5store6memory11MemoryStoreNtB8_10StateStore12get_metadata0CshZjyUOIHxJx_12cogni_client
FNDA:0,_RNCNvYNtNtNtCskVBA7vvFcNH_11cogni_state5store6memory11MemoryStoreNtB8_10StateStore6upsert0CshZjyUOIHxJx_12cogni_client
FNDA:0,_RNvYNtNtNtCskVBA7vvFcNH_11cogni_state5store6memory11MemoryStoreNtB6_10StateStore12find_by_tagsCs489t2QWteFi_16cogni_middleware
FNDA:0,_RNvYNtNtNtCskVBA7vvFcNH_11cogni_state5store6memory11MemoryStoreNtB6_10StateStore12get_metadataCs489t2QWteFi_16cogni_middleware
FNDA:0,_RNvYNtNtNtCskVBA7vvFcNH_11cogni_state5store6memory11MemoryStoreNtB6_10StateStore6upsertCs489t2QWteFi_16cogni_middleware
FNDA:0,_RNCNCNCNvYNtNtNtCskVBA7vvFcNH_11cogni_state5store6memory11MemoryStoreNtBc_10StateStore12find_by_tags000Cs489t2QWteFi_16cogni_middleware
FNDA:0,_RNCNCNvYNtNtNtCskVBA7vvFcNH_11cogni_state5store6memory11MemoryStoreNtBa_10StateStore12find_by_tags00Cs489t2QWteFi_16cogni_middleware
FNDA:0,_RNCNvYNtNtNtCskVBA7vvFcNH_11cogni_state5store6memory11MemoryStoreNtB8_10StateStore12find_by_tags0Cs489t2QWteFi_16cogni_middleware
FNDA:0,_RNCNvYNtNtNtCskVBA7vvFcNH_11cogni_state5store6memory11MemoryStoreNtB8_10StateStore12get_metadata0Cs489t2QWteFi_16cogni_middleware
FNDA:0,_RNCNvYNtNtNtCskVBA7vvFcNH_11cogni_state5store6memory11MemoryStoreNtB8_10StateStore6upsert0Cs489t2QWteFi_16cogni_middleware
FNDA:0,_RNCNCNvYpNtNtCsjNoER0XDsE6_11cogni_state5store10StateStore8list_ids00Bb_
FNDA:0,_RNCNvYpNtNtCsjNoER0XDsE6_11cogni_state5store10StateStore12get_metadata0B9_
FNDA:0,_RNCNvYpNtNtCsjNoER0XDsE6_11cogni_state5store10StateStore6exists0B9_
FNDA:0,_RNCNvYpNtNtCsjNoER0XDsE6_11cogni_state5store10StateStore6upsert0B9_
FNDA:0,_RNCNvYpNtNtCsjNoER0XDsE6_11cogni_state5store10StateStore8list_ids0B9_
FNDA:0,_RNvYpNtNtCsjNoER0XDsE6_11cogni_state5store10StateStore12get_metadataB7_
FNDA:0,_RNvYpNtNtCsjNoER0XDsE6_11cogni_state5store10StateStore6existsB7_
FNDA:0,_RNvYpNtNtCsjNoER0XDsE6_11cogni_state5store10StateStore6upsertB7_
FNDA:0,_RNvYpNtNtCsjNoER0XDsE6_11cogni_state5store10StateStore8list_idsB7_
FNDA:2,_RNvYNtNtNtCsjNoER0XDsE6_11cogni_state5store6memory11MemoryStoreNtB6_10StateStore12find_by_tagsB8_
FNDA:6,_RNCNCNCNvYNtNtNtCsjNoER0XDsE6_11cogni_state5store6memory11MemoryStoreNtBc_10StateStore12find_by_tags000Be_
FNDA:6,_RNCNCNvYNtNtNtCsjNoER0XDsE6_11cogni_state5store6memory11MemoryStoreNtBa_10StateStore12find_by_tags00Bc_
FNDA:2,_RNCNvYNtNtNtCsjNoER0XDsE6_11cogni_state5store6memory11MemoryStoreNtB8_10StateStore12find_by_tags0Ba_
FNDA:5,_RNvNtNtCsjNoER0XDsE6_11cogni_state5store5tests17create_test_state
FNDA:1,_RNvNtNtCsjNoER0XDsE6_11cogni_state5store5testss_17test_find_by_tags
FNDA:1,_RNvNtNtCsjNoER0XDsE6_11cogni_state5store5testss_21test_file_store_basic
FNDA:1,_RNvNtNtCsjNoER0XDsE6_11cogni_state5store5testss_23test_memory_store_basic
FNDA:5,_RNCNvNtNtCsjNoER0XDsE6_11cogni_state5store5tests17create_test_state0B7_
FNDA:1,_RNCNvNtNtCsjNoER0XDsE6_11cogni_state5store5testss_17test_find_by_tags0B7_
FNDA:1,_RNCNvNtNtCsjNoER0XDsE6_11cogni_state5store5testss_21test_file_store_basic0B7_
FNDA:1,_RNCNvNtNtCsjNoER0XDsE6_11cogni_state5store5testss_23test_memory_store_basic0B7_
FNF:21
FNH:12
DA:29,3
DA:30,3
DA:31,3
DA:32,3
DA:33,8
DA:34,3
DA:35,6
DA:38,0
DA:39,0
DA:40,0
DA:41,0
DA:42,0
DA:44,0
DA:47,0
DA:48,0
DA:49,0
DA:52,0
DA:53,0
DA:54,0
DA:55,0
DA:58,0
DA:59,0
DA:60,0
DA:61,0
DA:62,0
DA:63,0
DA:64,0
DA:67,0
DA:68,0
DA:77,5
DA:78,5
DA:79,5
DA:80,5
DA:81,5
DA:82,5
DA:83,5
DA:84,5
DA:85,5
DA:86,5
DA:87,5
DA:90,1
DA:91,1
DA:92,1
DA:93,1
DA:94,1
DA:95,1
DA:96,1
DA:97,1
DA:98,1
DA:99,1
DA:100,1
DA:101,1
DA:102,1
DA:103,1
DA:104,1
DA:105,1
DA:106,1
DA:107,1
DA:108,1
DA:109,1
DA:110,1
DA:111,1
DA:112,1
DA:113,1
DA:116,1
DA:117,1
DA:118,1
DA:119,1
DA:120,1
DA:121,1
DA:122,1
DA:123,1
DA:124,1
DA:125,1
DA:126,1
DA:127,1
DA:128,1
DA:129,1
DA:130,1
DA:131,1
DA:132,1
DA:133,1
DA:134,1
DA:135,1
DA:136,1
DA:139,1
DA:140,1
DA:141,1
DA:142,1
DA:143,1
DA:144,1
DA:145,1
DA:146,1
DA:147,1
DA:148,1
DA:149,1
DA:150,1
DA:151,1
DA:152,1
DA:153,1
DA:154,1
DA:155,1
DA:156,1
DA:157,1
DA:158,1
DA:159,1
DA:160,1
DA:161,1
DA:162,1
DA:163,1
BRF:0
BRH:0
LF:166
LH:139
end_of_record
SF:/Users/jkh/Code/ai/cogni/cogni-state/src/store/file.rs
FN:24,_RINvMNtNtCskVBA7vvFcNH_11cogni_state5store4fileNtB3_9FileStore3newRNtNtCscOYdFFY2T5N_3std4path4PathECsgyDhXtLpw1x_21agentic_features_test
FN:29,_RNCINvMNtNtCskVBA7vvFcNH_11cogni_state5store4fileNtB5_9FileStore3newRNtNtCscOYdFFY2T5N_3std4path4PathE0CsgyDhXtLpw1x_21agentic_features_test
FN:24,_RINvMNtNtCskVBA7vvFcNH_11cogni_state5store4fileNtB3_9FileStore3newpEB7_
FN:29,_RNCINvMNtNtCskVBA7vvFcNH_11cogni_state5store4fileNtB5_9FileStore3newpE0B9_
FN:47,_RNCNCNvMNtNtCskVBA7vvFcNH_11cogni_state5store4fileNtB6_9FileStore10list_files00Ba_
FN:143,_RNCNCNvXs1_NtNtCskVBA7vvFcNH_11cogni_state5store4fileNtB9_9FileStoreNtBb_10StateStore4list00Bd_
FN:160,_RNCNCNvXs1_NtNtCskVBA7vvFcNH_11cogni_state5store4fileNtB9_9FileStoreNtBb_10StateStore8list_ids00Bd_
FN:41,_RNCNvMNtNtCskVBA7vvFcNH_11cogni_state5store4fileNtB4_9FileStore10list_files0B8_
FN:116,_RNCNvXs1_NtNtCskVBA7vvFcNH_11cogni_state5store4fileNtB7_9FileStoreNtB9_10StateStore4list0Bb_
FN:79,_RNCNvXs1_NtNtCskVBA7vvFcNH_11cogni_state5store4fileNtB7_9FileStoreNtB9_10StateStore4load0Bb_
FN:58,_RNCNvXs1_NtNtCskVBA7vvFcNH_11cogni_state5store4fileNtB7_9FileStoreNtB9_10StateStore4save0Bb_
FN:102,_RNCNvXs1_NtNtCskVBA7vvFcNH_11cogni_state5store4fileNtB7_9FileStoreNtB9_10StateStore6delete0Bb_
FN:149,_RNCNvXs1_NtNtCskVBA7vvFcNH_11cogni_state5store4fileNtB7_9FileStoreNtB9_10StateStore6exists0Bb_
FN:154,_RNCNvXs1_NtNtCskVBA7vvFcNH_11cogni_state5store4fileNtB7_9FileStoreNtB9_10StateStore8list_ids0Bb_
FN:41,_RNvMNtNtCskVBA7vvFcNH_11cogni_state5store4fileNtB2_9FileStore10list_files
FN:36,_RNvMNtNtCskVBA7vvFcNH_11cogni_state5store4fileNtB2_9FileStore13get_file_path
FN:147,_RNvXs1_NtNtCskVBA7vvFcNH_11cogni_state5store4fileNtB5_9FileStoreNtB7_10StateStore4list
FN:100,_RNvXs1_NtNtCskVBA7vvFcNH_11cogni_state5store4fileNtB5_9FileStoreNtB7_10StateStore4load
FN:77,_RNvXs1_NtNtCskVBA7vvFcNH_11cogni_state5store4fileNtB5_9FileStoreNtB7_10StateStore4save
FN:114,_RNvXs1_NtNtCskVBA7vvFcNH_11cogni_state5store4fileNtB5_9FileStoreNtB7_10StateStore6delete
FN:152,_RNvXs1_NtNtCskVBA7vvFcNH_11cogni_state5store4fileNtB5_9FileStoreNtB7_10StateStore6exists
FN:168,_RNvXs1_NtNtCskVBA7vvFcNH_11cogni_state5store4fileNtB5_9FileStoreNtB7_10StateStore8list_ids
FN:160,_RNCNCNvXs1_NtNtCsjNoER0XDsE6_11cogni_state5store4fileNtB9_9FileStoreNtBb_10StateStore8list_ids00Bd_
FN:154,_RNCNvXs1_NtNtCsjNoER0XDsE6_11cogni_state5store4fileNtB7_9FileStoreNtB9_10StateStore8list_ids0Bb_
FN:168,_RNvXs1_NtNtCsjNoER0XDsE6_11cogni_state5store4fileNtB5_9FileStoreNtB7_10StateStore8list_ids
FN:41,_RNvMNtNtCsjNoER0XDsE6_11cogni_state5store4fileNtB2_9FileStore10list_files
FN:36,_RNvMNtNtCsjNoER0XDsE6_11cogni_state5store4fileNtB2_9FileStore13get_file_path
FN:147,_RNvXs1_NtNtCsjNoER0XDsE6_11cogni_state5store4fileNtB5_9FileStoreNtB7_10StateStore4list
FN:100,_RNvXs1_NtNtCsjNoER0XDsE6_11cogni_state5store4fileNtB5_9FileStoreNtB7_10StateStore4load
FN:77,_RNvXs1_NtNtCsjNoER0XDsE6_11cogni_state5store4fileNtB5_9FileStoreNtB7_10StateStore4save
FN:114,_RNvXs1_NtNtCsjNoER0XDsE6_11cogni_state5store4fileNtB5_9FileStoreNtB7_10StateStore6delete
FN:152,_RNvXs1_NtNtCsjNoER0XDsE6_11cogni_state5store4fileNtB5_9FileStoreNtB7_10StateStore6exists
FN:179,_RNvNtNtNtCsjNoER0XDsE6_11cogni_state5store4file5testss_26test_file_store_operations
FN:258,_RNvNtNtNtCsjNoER0XDsE6_11cogni_state5store4file5testss_29test_file_store_invalid_files
FN:224,_RNvNtNtNtCsjNoER0XDsE6_11cogni_state5store4file5testss_33test_file_store_concurrent_access
FN:24,_RINvMNtNtCsjNoER0XDsE6_11cogni_state5store4fileNtB3_9FileStore3newRNtNtCscOYdFFY2T5N_3std4path4PathEB7_
FN:29,_RNCINvMNtNtCsjNoER0XDsE6_11cogni_state5store4fileNtB5_9FileStore3newRNtNtCscOYdFFY2T5N_3std4path4PathE0B9_
FN:47,_RNCNCNvMNtNtCsjNoER0XDsE6_11cogni_state5store4fileNtB6_9FileStore10list_files00Ba_
FN:143,_RNCNCNvXs1_NtNtCsjNoER0XDsE6_11cogni_state5store4fileNtB9_9FileStoreNtBb_10StateStore4list00Bd_
FN:41,_RNCNvMNtNtCsjNoER0XDsE6_11cogni_state5store4fileNtB4_9FileStore10list_files0B8_
FN:116,_RNCNvXs1_NtNtCsjNoER0XDsE6_11cogni_state5store4fileNtB7_9FileStoreNtB9_10StateStore4list0Bb_
FN:79,_RNCNvXs1_NtNtCsjNoER0XDsE6_11cogni_state5store4fileNtB7_9FileStoreNtB9_10StateStore4load0Bb_
FN:58,_RNCNvXs1_NtNtCsjNoER0XDsE6_11cogni_state5store4fileNtB7_9FileStoreNtB9_10StateStore4save0Bb_
FN:102,_RNCNvXs1_NtNtCsjNoER0XDsE6_11cogni_state5store4fileNtB7_9FileStoreNtB9_10StateStore6delete0Bb_
FN:149,_RNCNvXs1_NtNtCsjNoER0XDsE6_11cogni_state5store4fileNtB7_9FileStoreNtB9_10StateStore6exists0Bb_
FN:232,_RNCNCNvNtNtNtCsjNoER0XDsE6_11cogni_state5store4file5testss_33test_file_store_concurrent_access00Bb_
FN:245,_RNCNCNvNtNtNtCsjNoER0XDsE6_11cogni_state5store4file5testss_33test_file_store_concurrent_access0s_0Bb_
FN:179,_RNCNvNtNtNtCsjNoER0XDsE6_11cogni_state5store4file5testss_26test_file_store_operations0B9_
FN:258,_RNCNvNtNtNtCsjNoER0XDsE6_11cogni_state5store4file5testss_29test_file_store_invalid_files0B9_
FN:224,_RNCNvNtNtNtCsjNoER0XDsE6_11cogni_state5store4file5testss_33test_file_store_concurrent_access0B9_
FNDA:3,_RINvMNtNtCskVBA7vvFcNH_11cogni_state5store4fileNtB3_9FileStore3newRNtNtCscOYdFFY2T5N_3std4path4PathECsgyDhXtLpw1x_21agentic_features_test
FNDA:0,_RNCINvMNtNtCskVBA7vvFcNH_11cogni_state5store4fileNtB5_9FileStore3newRNtNtCscOYdFFY2T5N_3std4path4PathE0CsgyDhXtLpw1x_21agentic_features_test
FNDA:0,_RINvMNtNtCskVBA7vvFcNH_11cogni_state5store4fileNtB3_9FileStore3newpEB7_
FNDA:0,_RNCINvMNtNtCskVBA7vvFcNH_11cogni_state5store4fileNtB5_9FileStore3newpE0B9_
FNDA:2,_RNCNCNvMNtNtCskVBA7vvFcNH_11cogni_state5store4fileNtB6_9FileStore10list_files00Ba_
FNDA:0,_RNCNCNvXs1_NtNtCskVBA7vvFcNH_11cogni_state5store4fileNtB9_9FileStoreNtBb_10StateStore4list00Bd_
FNDA:0,_RNCNCNvXs1_NtNtCskVBA7vvFcNH_11cogni_state5store4fileNtB9_9FileStoreNtBb_10StateStore8list_ids00Bd_
FNDA:2,_RNCNvMNtNtCskVBA7vvFcNH_11cogni_state5store4fileNtB4_9FileStore10list_files0B8_
FNDA:2,_RNCNvXs1_NtNtCskVBA7vvFcNH_11cogni_state5store4fileNtB7_9FileStoreNtB9_10StateStore4list0Bb_
FNDA:2,_RNCNvXs1_NtNtCskVBA7vvFcNH_11cogni_state5store4fileNtB7_9FileStoreNtB9_10StateStore4load0Bb_
FNDA:13,_RNCNvXs1_NtNtCskVBA7vvFcNH_11cogni_state5store4fileNtB7_9FileStoreNtB9_10StateStore4save0Bb_
FNDA:0,_RNCNvXs1_NtNtCskVBA7vvFcNH_11cogni_state5store4fileNtB7_9FileStoreNtB9_10StateStore6delete0Bb_
FNDA:0,_RNCNvXs1_NtNtCskVBA7vvFcNH_11cogni_state5store4fileNtB7_9FileStoreNtB9_10StateStore6exists0Bb_
FNDA:0,_RNCNvXs1_NtNtCskVBA7vvFcNH_11cogni_state5store4fileNtB7_9FileStoreNtB9_10StateStore8list_ids0Bb_
FNDA:2,_RNvMNtNtCskVBA7vvFcNH_11cogni_state5store4fileNtB2_9FileStore10list_files
FNDA:15,_RNvMNtNtCskVBA7vvFcNH_11cogni_state5store4fileNtB2_9FileStore13get_file_path
FNDA:2,_RNvXs1_NtNtCskVBA7vvFcNH_11cogni_state5store4fileNtB5_9FileStoreNtB7_10StateStore4list
FNDA:2,_RNvXs1_NtNtCskVBA7vvFcNH_11cogni_state5store4fileNtB5_9FileStoreNtB7_10StateStore4load
FNDA:13,_RNvXs1_NtNtCskVBA7vvFcNH_11cogni_state5store4fileNtB5_9FileStoreNtB7_10StateStore4save
FNDA:0,_RNvXs1_NtNtCskVBA7vvFcNH_11cogni_state5store4fileNtB5_9FileStoreNtB7_10StateStore6delete
FNDA:0,_RNvXs1_NtNtCskVBA7vvFcNH_11cogni_state5store4fileNtB5_9FileStoreNtB7_10StateStore6exists
FNDA:0,_RNvXs1_NtNtCskVBA7vvFcNH_11cogni_state5store4fileNtB5_9FileStoreNtB7_10StateStore8list_ids
FNDA:0,_RNCNCNvXs1_NtNtCsjNoER0XDsE6_11cogni_state5store4fileNtB9_9FileStoreNtBb_10StateStore8list_ids00Bd_
FNDA:0,_RNCNvXs1_NtNtCsjNoER0XDsE6_11cogni_state5store4fileNtB7_9FileStoreNtB9_10StateStore8list_ids0Bb_
FNDA:0,_RNvXs1_NtNtCsjNoER0XDsE6_11cogni_state5store4fileNtB5_9FileStoreNtB7_10StateStore8list_ids
FNDA:3,_RNvMNtNtCsjNoER0XDsE6_11cogni_state5store4fileNtB2_9FileStore10list_files
FNDA:21,_RNvMNtNtCsjNoER0XDsE6_11cogni_state5store4fileNtB2_9FileStore13get_file_path
FNDA:3,_RNvXs1_NtNtCsjNoER0XDsE6_11cogni_state5store4fileNtB5_9FileStoreNtB7_10StateStore4list
FNDA:4,_RNvXs1_NtNtCsjNoER0XDsE6_11cogni_state5store4fileNtB5_9FileStoreNtB7_10StateStore4load
FNDA:9,_RNvXs1_NtNtCsjNoER0XDsE6_11cogni_state5store4fileNtB5_9FileStoreNtB7_10StateStore4save
FNDA:2,_RNvXs1_NtNtCsjNoER0XDsE6_11cogni_state5store4fileNtB5_9FileStoreNtB7_10StateStore6delete
FNDA:5,_RNvXs1_NtNtCsjNoER0XDsE6_11cogni_state5store4fileNtB5_9FileStoreNtB7_10StateStore6exists
FNDA:1,_RNvNtNtNtCsjNoER0XDsE6_11cogni_state5store4file5testss_26test_file_store_operations
FNDA:1,_RNvNtNtNtCsjNoER0XDsE6_11cogni_state5store4file5testss_29test_file_store_invalid_files
FNDA:1,_RNvNtNtNtCsjNoER0XDsE6_11cogni_state5store4file5testss_33test_file_store_concurrent_access
FNDA:4,_RINvMNtNtCsjNoER0XDsE6_11cogni_state5store4fileNtB3_9FileStore3newRNtNtCscOYdFFY2T5N_3std4path4PathEB7_
FNDA:0,_RNCINvMNtNtCsjNoER0XDsE6_11cogni_state5store4fileNtB5_9FileStore3newRNtNtCscOYdFFY2T5N_3std4path4PathE0B9_
FNDA:9,_RNCNCNvMNtNtCsjNoER0XDsE6_11cogni_state5store4fileNtB6_9FileStore10list_files00Ba_
FNDA:8,_RNCNCNvXs1_NtNtCsjNoER0XDsE6_11cogni_state5store4fileNtB9_9FileStoreNtBb_10StateStore4list00Bd_
FNDA:3,_RNCNvMNtNtCsjNoER0XDsE6_11cogni_state5store4fileNtB4_9FileStore10list_files0B8_
FNDA:3,_RNCNvXs1_NtNtCsjNoER0XDsE6_11cogni_state5store4fileNtB7_9FileStoreNtB9_10StateStore4list0Bb_
FNDA:4,_RNCNvXs1_NtNtCsjNoER0XDsE6_11cogni_state5store4fileNtB7_9FileStoreNtB9_10StateStore4load0Bb_
FNDA:9,_RNCNvXs1_NtNtCsjNoER0XDsE6_11cogni_state5store4fileNtB7_9FileStoreNtB9_10StateStore4save0Bb_
FNDA:2,_RNCNvXs1_NtNtCsjNoER0XDsE6_11cogni_state5store4fileNtB7_9FileStoreNtB9_10StateStore6delete0Bb_
FNDA:5,_RNCNvXs1_NtNtCsjNoER0XDsE6_11cogni_state5store4fileNtB7_9FileStoreNtB9_10StateStore6exists0Bb_
FNDA:5,_RNCNCNvNtNtNtCsjNoER0XDsE6_11cogni_state5store4file5testss_33test_file_store_concurrent_access00Bb_
FNDA:5,_RNCNCNvNtNtNtCsjNoER0XDsE6_11cogni_state5store4file5testss_33test_file_store_concurrent_access0s_0Bb_
FNDA:1,_RNCNvNtNtNtCsjNoER0XDsE6_11cogni_state5store4file5testss_26test_file_store_operations0B9_
FNDA:1,_RNCNvNtNtNtCsjNoER0XDsE6_11cogni_state5store4file5testss_29test_file_store_invalid_files0B9_
FNDA:1,_RNCNvNtNtNtCsjNoER0XDsE6_11cogni_state5store4file5testss_33test_file_store_concurrent_access0B9_
FNF:28
FNH:24
DA:24,7
DA:25,7
DA:26,7
DA:27,7
DA:28,7
DA:29,7
DA:31,7
DA:32,7
DA:33,7
DA:36,36
DA:37,36
DA:38,36
DA:41,5
DA:42,5
DA:43,5
DA:45,16
DA:46,11
DA:47,11
DA:48,10
DA:49,10
DA:52,5
DA:53,5
DA:58,22
DA:59,22
DA:60,22
DA:63,22
DA:66,22
DA:67,22
DA:68,22
DA:69,22
DA:70,22
DA:71,22
DA:72,22
DA:73,22
DA:75,22
DA:76,22
DA:77,44
DA:79,6
DA:80,6
DA:81,6
DA:83,6
DA:84,5
DA:85,5
DA:86,5
DA:87,0
DA:88,0
DA:91,0
DA:92,0
DA:93,0
DA:94,5
DA:95,5
DA:97,1
DA:98,0
DA:100,12
DA:102,2
DA:103,2
DA:104,2
DA:106,2
DA:108,2
DA:109,2
DA:111,0
DA:112,0
DA:114,4
DA:116,5
DA:117,5
DA:118,5
DA:119,5
DA:120,5
DA:122,15
DA:123,10
DA:124,10
DA:125,9
DA:126,1
DA:127,1
DA:128,1
DA:131,0
DA:132,0
DA:133,0
DA:138,5
DA:139,1
DA:140,4
DA:143,8
DA:144,5
DA:145,5
DA:146,5
DA:147,10
DA:149,5
DA:150,5
DA:151,5
DA:152,10
DA:154,0
DA:155,0
DA:156,0
DA:157,0
DA:159,0
DA:160,0
DA:161,0
DA:162,0
DA:163,0
DA:164,0
DA:167,0
DA:168,0
DA:179,1
DA:180,1
DA:181,1
DA:182,1
DA:183,1
DA:184,1
DA:185,1
DA:186,1
DA:187,1
DA:188,1
DA:189,1
DA:190,1
DA:191,1
DA:192,1
DA:193,1
DA:194,1
DA:195,1
DA:196,1
DA:197,1
DA:198,1
DA:199,1
DA:200,1
DA:201,1
DA:202,1
DA:203,1
DA:204,1
DA:205,1
DA:206,1
DA:207,1
DA:208,1
DA:209,1
DA:210,1
DA:211,1
DA:212,1
DA:213,1
DA:214,1
DA:215,1
DA:216,1
DA:217,1
DA:218,1
DA:219,1
DA:220,1
DA:221,1
DA:224,1
DA:225,1
DA:226,1
DA:227,1
DA:228,1
DA:229,1
DA:230,6
DA:231,5
DA:232,5
DA:233,5
DA:234,5
DA:235,5
DA:236,5
DA:237,5
DA:238,5
DA:239,5
DA:240,1
DA:241,1
DA:242,1
DA:243,1
DA:244,1
DA:245,5
DA:246,1
DA:247,1
DA:248,1
DA:249,1
DA:250,1
DA:251,1
DA:252,6
DA:253,5
DA:254,1
DA:255,1
DA:258,1
DA:259,1
DA:260,1
DA:261,1
DA:262,1
DA:263,1
DA:264,1
DA:265,1
DA:266,1
DA:267,1
DA:268,1
DA:269,1
DA:270,1
DA:271,1
DA:272,1
DA:273,1
DA:274,1
DA:275,1
DA:276,1
DA:277,1
DA:278,1
BRF:0
BRH:0
LF:285
LH:259
end_of_record
SF:/Users/jkh/Code/ai/cogni/cogni-state/src/store/memory.rs
FN:38,_RNCNvMNtNtCskVBA7vvFcNH_11cogni_state5store6memoryNtB4_11MemoryStore3len0B8_
FN:48,_RNCNvMNtNtCskVBA7vvFcNH_11cogni_state5store6memoryNtB4_11MemoryStore5clear0B8_
FN:43,_RNCNvMNtNtCskVBA7vvFcNH_11cogni_state5store6memoryNtB4_11MemoryStore8is_empty0B8_
FN:30,_RNvMNtNtCskVBA7vvFcNH_11cogni_state5store6memoryNtB2_11MemoryStore11with_states
FN:38,_RNvMNtNtCskVBA7vvFcNH_11cogni_state5store6memoryNtB2_11MemoryStore3len
FN:23,_RNvMNtNtCskVBA7vvFcNH_11cogni_state5store6memoryNtB2_11MemoryStore3new
FN:48,_RNvMNtNtCskVBA7vvFcNH_11cogni_state5store6memoryNtB2_11MemoryStore5clear
FN:43,_RNvMNtNtCskVBA7vvFcNH_11cogni_state5store6memoryNtB2_11MemoryStore8is_empty
FN:98,_RNvXs2_NtNtCskVBA7vvFcNH_11cogni_state5store6memoryNtB5_11MemoryStoreNtB7_10StateStore4list
FN:74,_RNvXs2_NtNtCskVBA7vvFcNH_11cogni_state5store6memoryNtB5_11MemoryStoreNtB7_10StateStore4load
FN:68,_RNvXs2_NtNtCskVBA7vvFcNH_11cogni_state5store6memoryNtB5_11MemoryStoreNtB7_10StateStore4save
FN:85,_RNvXs2_NtNtCskVBA7vvFcNH_11cogni_state5store6memoryNtB5_11MemoryStoreNtB7_10StateStore6delete
FN:103,_RNvXs2_NtNtCskVBA7vvFcNH_11cogni_state5store6memoryNtB5_11MemoryStoreNtB7_10StateStore6exists
FN:109,_RNvXs2_NtNtCskVBA7vvFcNH_11cogni_state5store6memoryNtB5_11MemoryStoreNtB7_10StateStore8list_ids
FN:55,_RNvXs_NtNtCskVBA7vvFcNH_11cogni_state5store6memoryNtB4_11MemoryStoreNtNtCsfvfooZQ3Axs_4core7default7Default7default
FN:92,_RNCNCNvXs2_NtNtCskVBA7vvFcNH_11cogni_state5store6memoryNtB9_11MemoryStoreNtBb_10StateStore4list00Bd_
FN:31,_RNCNvMNtNtCskVBA7vvFcNH_11cogni_state5store6memoryNtB4_11MemoryStore11with_states0B8_
FN:87,_RNCNvXs2_NtNtCskVBA7vvFcNH_11cogni_state5store6memoryNtB7_11MemoryStoreNtB9_10StateStore4list0Bb_
FN:70,_RNCNvXs2_NtNtCskVBA7vvFcNH_11cogni_state5store6memoryNtB7_11MemoryStoreNtB9_10StateStore4load0Bb_
FN:62,_RNCNvXs2_NtNtCskVBA7vvFcNH_11cogni_state5store6memoryNtB7_11MemoryStoreNtB9_10StateStore4save0Bb_
FN:76,_RNCNvXs2_NtNtCskVBA7vvFcNH_11cogni_state5store6memoryNtB7_11MemoryStoreNtB9_10StateStore6delete0Bb_
FN:100,_RNCNvXs2_NtNtCskVBA7vvFcNH_11cogni_state5store6memoryNtB7_11MemoryStoreNtB9_10StateStore6exists0Bb_
FN:105,_RNCNvXs2_NtNtCskVBA7vvFcNH_11cogni_state5store6memoryNtB7_11MemoryStoreNtB9_10StateStore8list_ids0Bb_
FN:31,_RNCNvMNtNtCsjNoER0XDsE6_11cogni_state5store6memoryNtB4_11MemoryStore11with_states0B8_
FN:48,_RNCNvMNtNtCsjNoER0XDsE6_11cogni_state5store6memoryNtB4_11MemoryStore5clear0B8_
FN:105,_RNCNvXs2_NtNtCsjNoER0XDsE6_11cogni_state5store6memoryNtB7_11MemoryStoreNtB9_10StateStore8list_ids0Bb_
FN:30,_RNvMNtNtCsjNoER0XDsE6_11cogni_state5store6memoryNtB2_11MemoryStore11with_states
FN:48,_RNvMNtNtCsjNoER0XDsE6_11cogni_state5store6memoryNtB2_11MemoryStore5clear
FN:109,_RNvXs2_NtNtCsjNoER0XDsE6_11cogni_state5store6memoryNtB5_11MemoryStoreNtB7_10StateStore8list_ids
FN:55,_RNvXs_NtNtCsjNoER0XDsE6_11cogni_state5store6memoryNtB4_11MemoryStoreNtNtCsfvfooZQ3Axs_4core7default7Default7default
FN:119,_RNvNtNtNtCsjNoER0XDsE6_11cogni_state5store6memory5testss_28test_memory_store_operations
FN:186,_RNvNtNtNtCsjNoER0XDsE6_11cogni_state5store6memory5testss_31test_memory_store_list_ordering
FN:155,_RNvNtNtNtCsjNoER0XDsE6_11cogni_state5store6memory5testss_35test_memory_store_concurrent_access
FN:92,_RNCNCNvXs2_NtNtCsjNoER0XDsE6_11cogni_state5store6memoryNtB9_11MemoryStoreNtBb_10StateStore4list00Bd_
FN:38,_RNCNvMNtNtCsjNoER0XDsE6_11cogni_state5store6memoryNtB4_11MemoryStore3len0B8_
FN:43,_RNCNvMNtNtCsjNoER0XDsE6_11cogni_state5store6memoryNtB4_11MemoryStore8is_empty0B8_
FN:87,_RNCNvXs2_NtNtCsjNoER0XDsE6_11cogni_state5store6memoryNtB7_11MemoryStoreNtB9_10StateStore4list0Bb_
FN:70,_RNCNvXs2_NtNtCsjNoER0XDsE6_11cogni_state5store6memoryNtB7_11MemoryStoreNtB9_10StateStore4load0Bb_
FN:62,_RNCNvXs2_NtNtCsjNoER0XDsE6_11cogni_state5store6memoryNtB7_11MemoryStoreNtB9_10StateStore4save0Bb_
FN:76,_RNCNvXs2_NtNtCsjNoER0XDsE6_11cogni_state5store6memoryNtB7_11MemoryStoreNtB9_10StateStore6delete0Bb_
FN:100,_RNCNvXs2_NtNtCsjNoER0XDsE6_11cogni_state5store6memoryNtB7_11MemoryStoreNtB9_10StateStore6exists0Bb_
FN:162,_RNCNCNvNtNtNtCsjNoER0XDsE6_11cogni_state5store6memory5testss_35test_memory_store_concurrent_access00Bb_
FN:175,_RNCNCNvNtNtNtCsjNoER0XDsE6_11cogni_state5store6memory5testss_35test_memory_store_concurrent_access0s_0Bb_
FN:119,_RNCNvNtNtNtCsjNoER0XDsE6_11cogni_state5store6memory5testss_28test_memory_store_operations0B9_
FN:186,_RNCNvNtNtNtCsjNoER0XDsE6_11cogni_state5store6memory5testss_31test_memory_store_list_ordering0B9_
FN:155,_RNCNvNtNtNtCsjNoER0XDsE6_11cogni_state5store6memory5testss_35test_memory_store_concurrent_access0B9_
FN:38,_RNvMNtNtCsjNoER0XDsE6_11cogni_state5store6memoryNtB2_11MemoryStore3len
FN:23,_RNvMNtNtCsjNoER0XDsE6_11cogni_state5store6memoryNtB2_11MemoryStore3new
FN:43,_RNvMNtNtCsjNoER0XDsE6_11cogni_state5store6memoryNtB2_11MemoryStore8is_empty
FN:98,_RNvXs2_NtNtCsjNoER0XDsE6_11cogni_state5store6memoryNtB5_11MemoryStoreNtB7_10StateStore4list
FN:74,_RNvXs2_NtNtCsjNoER0XDsE6_11cogni_state5store6memoryNtB5_11MemoryStoreNtB7_10StateStore4load
FN:68,_RNvXs2_NtNtCsjNoER0XDsE6_11cogni_state5store6memoryNtB5_11MemoryStoreNtB7_10StateStore4save
FN:85,_RNvXs2_NtNtCsjNoER0XDsE6_11cogni_state5store6memoryNtB5_11MemoryStoreNtB7_10StateStore6delete
FN:103,_RNvXs2_NtNtCsjNoER0XDsE6_11cogni_state5store6memoryNtB5_11MemoryStoreNtB7_10StateStore6exists
FNDA:0,_RNCNvMNtNtCskVBA7vvFcNH_11cogni_state5store6memoryNtB4_11MemoryStore3len0B8_
FNDA:0,_RNCNvMNtNtCskVBA7vvFcNH_11cogni_state5store6memoryNtB4_11MemoryStore5clear0B8_
FNDA:0,_RNCNvMNtNtCskVBA7vvFcNH_11cogni_state5store6memoryNtB4_11MemoryStore8is_empty0B8_
FNDA:0,_RNvMNtNtCskVBA7vvFcNH_11cogni_state5store6memoryNtB2_11MemoryStore11with_states
FNDA:0,_RNvMNtNtCskVBA7vvFcNH_11cogni_state5store6memoryNtB2_11MemoryStore3len
FNDA:8,_RNvMNtNtCskVBA7vvFcNH_11cogni_state5store6memoryNtB2_11MemoryStore3new
FNDA:0,_RNvMNtNtCskVBA7vvFcNH_11cogni_state5store6memoryNtB2_11MemoryStore5clear
FNDA:0,_RNvMNtNtCskVBA7vvFcNH_11cogni_state5store6memoryNtB2_11MemoryStore8is_empty
FNDA:4,_RNvXs2_NtNtCskVBA7vvFcNH_11cogni_state5store6memoryNtB5_11MemoryStoreNtB7_10StateStore4list
FNDA:6,_RNvXs2_NtNtCskVBA7vvFcNH_11cogni_state5store6memoryNtB5_11MemoryStoreNtB7_10StateStore4load
FNDA:14,_RNvXs2_NtNtCskVBA7vvFcNH_11cogni_state5store6memoryNtB5_11MemoryStoreNtB7_10StateStore4save
FNDA:1,_RNvXs2_NtNtCskVBA7vvFcNH_11cogni_state5store6memoryNtB5_11MemoryStoreNtB7_10StateStore6delete
FNDA:0,_RNvXs2_NtNtCskVBA7vvFcNH_11cogni_state5store6memoryNtB5_11MemoryStoreNtB7_10StateStore6exists
FNDA:0,_RNvXs2_NtNtCskVBA7vvFcNH_11cogni_state5store6memoryNtB5_11MemoryStoreNtB7_10StateStore8list_ids
FNDA:0,_RNvXs_NtNtCskVBA7vvFcNH_11cogni_state5store6memoryNtB4_11MemoryStoreNtNtCsfvfooZQ3Axs_4core7default7Default7default
FNDA:2,_RNCNCNvXs2_NtNtCskVBA7vvFcNH_11cogni_state5store6memoryNtB9_11MemoryStoreNtBb_10StateStore4list00Bd_
FNDA:0,_RNCNvMNtNtCskVBA7vvFcNH_11cogni_state5store6memoryNtB4_11MemoryStore11with_states0B8_
FNDA:4,_RNCNvXs2_NtNtCskVBA7vvFcNH_11cogni_state5store6memoryNtB7_11MemoryStoreNtB9_10StateStore4list0Bb_
FNDA:6,_RNCNvXs2_NtNtCskVBA7vvFcNH_11cogni_state5store6memoryNtB7_11MemoryStoreNtB9_10StateStore4load0Bb_
FNDA:14,_RNCNvXs2_NtNtCskVBA7vvFcNH_11cogni_state5store6memoryNtB7_11MemoryStoreNtB9_10StateStore4save0Bb_
FNDA:1,_RNCNvXs2_NtNtCskVBA7vvFcNH_11cogni_state5store6memoryNtB7_11MemoryStoreNtB9_10StateStore6delete0Bb_
FNDA:0,_RNCNvXs2_NtNtCskVBA7vvFcNH_11cogni_state5store6memoryNtB7_11MemoryStoreNtB9_10StateStore6exists0Bb_
FNDA:0,_RNCNvXs2_NtNtCskVBA7vvFcNH_11cogni_state5store6memoryNtB7_11MemoryStoreNtB9_10StateStore8list_ids0Bb_
FNDA:0,_RNCNvMNtNtCsjNoER0XDsE6_11cogni_state5store6memoryNtB4_11MemoryStore11with_states0B8_
FNDA:0,_RNCNvMNtNtCsjNoER0XDsE6_11cogni_state5store6memoryNtB4_11MemoryStore5clear0B8_
FNDA:0,_RNCNvXs2_NtNtCsjNoER0XDsE6_11cogni_state5store6memoryNtB7_11MemoryStoreNtB9_10StateStore8list_ids0Bb_
FNDA:0,_RNvMNtNtCsjNoER0XDsE6_11cogni_state5store6memoryNtB2_11MemoryStore11with_states
FNDA:0,_RNvMNtNtCsjNoER0XDsE6_11cogni_state5store6memoryNtB2_11MemoryStore5clear
FNDA:0,_RNvXs2_NtNtCsjNoER0XDsE6_11cogni_state5store6memoryNtB5_11MemoryStoreNtB7_10StateStore8list_ids
FNDA:0,_RNvXs_NtNtCsjNoER0XDsE6_11cogni_state5store6memoryNtB4_11MemoryStoreNtNtCsfvfooZQ3Axs_4core7default7Default7default
FNDA:1,_RNvNtNtNtCsjNoER0XDsE6_11cogni_state5store6memory5testss_28test_memory_store_operations
FNDA:1,_RNvNtNtNtCsjNoER0XDsE6_11cogni_state5store6memory5testss_31test_memory_store_list_ordering
FNDA:1,_RNvNtNtNtCsjNoER0XDsE6_11cogni_state5store6memory5testss_35test_memory_store_concurrent_access
FNDA:5,_RNCNCNvXs2_NtNtCsjNoER0XDsE6_11cogni_state5store6memoryNtB9_11MemoryStoreNtBb_10StateStore4list00Bd_
FNDA:2,_RNCNvMNtNtCsjNoER0XDsE6_11cogni_state5store6memoryNtB4_11MemoryStore3len0B8_
FNDA:2,_RNCNvMNtNtCsjNoER0XDsE6_11cogni_state5store6memoryNtB4_11MemoryStore8is_empty0B8_
FNDA:4,_RNCNvXs2_NtNtCsjNoER0XDsE6_11cogni_state5store6memoryNtB7_11MemoryStoreNtB9_10StateStore4list0Bb_
FNDA:4,_RNCNvXs2_NtNtCsjNoER0XDsE6_11cogni_state5store6memoryNtB7_11MemoryStoreNtB9_10StateStore4load0Bb_
FNDA:19,_RNCNvXs2_NtNtCsjNoER0XDsE6_11cogni_state5store6memoryNtB7_11MemoryStoreNtB9_10StateStore4save0Bb_
FNDA:2,_RNCNvXs2_NtNtCsjNoER0XDsE6_11cogni_state5store6memoryNtB7_11MemoryStoreNtB9_10StateStore6delete0Bb_
FNDA:12,_RNCNvXs2_NtNtCsjNoER0XDsE6_11cogni_state5store6memoryNtB7_11MemoryStoreNtB9_10StateStore6exists0Bb_
FNDA:10,_RNCNCNvNtNtNtCsjNoER0XDsE6_11cogni_state5store6memory5testss_35test_memory_store_concurrent_access00Bb_
FNDA:10,_RNCNCNvNtNtNtCsjNoER0XDsE6_11cogni_state5store6memory5testss_35test_memory_store_concurrent_access0s_0Bb_
FNDA:1,_RNCNvNtNtNtCsjNoER0XDsE6_11cogni_state5store6memory5testss_28test_memory_store_operations0B9_
FNDA:1,_RNCNvNtNtNtCsjNoER0XDsE6_11cogni_state5store6memory5testss_31test_memory_store_list_ordering0B9_
FNDA:1,_RNCNvNtNtNtCsjNoER0XDsE6_11cogni_state5store6memory5testss_35test_memory_store_concurrent_access0B9_
FNDA:2,_RNvMNtNtCsjNoER0XDsE6_11cogni_state5store6memoryNtB2_11MemoryStore3len
FNDA:5,_RNvMNtNtCsjNoER0XDsE6_11cogni_state5store6memoryNtB2_11MemoryStore3new
FNDA:2,_RNvMNtNtCsjNoER0XDsE6_11cogni_state5store6memoryNtB2_11MemoryStore8is_empty
FNDA:4,_RNvXs2_NtNtCsjNoER0XDsE6_11cogni_state5store6memoryNtB5_11MemoryStoreNtB7_10StateStore4list
FNDA:4,_RNvXs2_NtNtCsjNoER0XDsE6_11cogni_state5store6memoryNtB5_11MemoryStoreNtB7_10StateStore4load
FNDA:19,_RNvXs2_NtNtCsjNoER0XDsE6_11cogni_state5store6memoryNtB5_11MemoryStoreNtB7_10StateStore4save
FNDA:2,_RNvXs2_NtNtCsjNoER0XDsE6_11cogni_state5store6memoryNtB5_11MemoryStoreNtB7_10StateStore6delete
FNDA:12,_RNvXs2_NtNtCsjNoER0XDsE6_11cogni_state5store6memoryNtB5_11MemoryStoreNtB7_10StateStore6exists
FNF:31
FNH:24
DA:23,13
DA:24,13
DA:25,13
DA:26,13
DA:27,13
DA:30,0
DA:31,0
DA:32,0
DA:33,0
DA:34,0
DA:35,0
DA:38,2
DA:39,2
DA:40,2
DA:43,2
DA:44,2
DA:45,2
DA:48,0
DA:49,0
DA:50,0
DA:51,0
DA:55,0
DA:56,0
DA:57,0
DA:62,33
DA:63,33
DA:64,33
DA:65,33
DA:66,33
DA:67,33
DA:68,66
DA:70,10
DA:71,10
DA:72,10
DA:73,10
DA:74,20
DA:76,3
DA:77,3
DA:78,3
DA:79,3
DA:80,3
DA:81,3
DA:83,0
DA:85,6
DA:87,8
DA:88,8
DA:89,8
DA:90,8
DA:91,8
DA:92,8
DA:93,8
DA:94,0
DA:95,0
DA:97,8
DA:98,16
DA:100,12
DA:101,12
DA:102,12
DA:103,24
DA:105,0
DA:106,0
DA:107,0
DA:108,0
DA:109,0
DA:119,1
DA:120,1
DA:121,1
DA:122,1
DA:123,1
DA:124,1
DA:125,1
DA:126,1
DA:127,1
DA:128,1
DA:129,1
DA:130,1
DA:131,1
DA:132,1
DA:133,1
DA:134,1
DA:135,1
DA:136,1
DA:137,1
DA:138,1
DA:139,1
DA:140,1
DA:141,1
DA:142,1
DA:143,1
DA:144,1
DA:145,1
DA:146,1
DA:147,1
DA:148,1
DA:149,1
DA:150,1
DA:151,1
DA:152,1
DA:155,1
DA:156,1
DA:157,1
DA:158,1
DA:159,1
DA:160,11
DA:161,10
DA:162,10
DA:163,10
DA:164,10
DA:165,10
DA:166,10
DA:167,10
DA:168,10
DA:169,10
DA:170,1
DA:171,1
DA:172,1
DA:173,1
DA:174,1
DA:175,10
DA:176,1
DA:177,1
DA:178,1
DA:179,1
DA:180,11
DA:181,10
DA:182,1
DA:183,1
DA:186,1
DA:187,1
DA:188,1
DA:189,1
DA:190,1
DA:191,1
DA:192,1
DA:193,1
DA:194,1
DA:195,1
DA:196,1
DA:197,1
DA:198,1
DA:199,1
DA:200,1
DA:201,1
DA:202,1
DA:203,1
DA:204,1
DA:205,1
DA:206,1
DA:207,1
DA:208,1
DA:209,1
DA:210,1
BRF:0
BRH:0
LF:231
LH:207
end_of_record
SF:/Users/jkh/Code/ai/cogni/cogni-state/src/types.rs
FN:109,_RINvMs_NtCskVBA7vvFcNH_11cogni_state5typesNtB5_17ConversationState7add_tagReECsgyDhXtLpw1x_21agentic_features_test
FN:103,_RINvMs_NtCskVBA7vvFcNH_11cogni_state5typesNtB5_17ConversationState9set_titleReECsgyDhXtLpw1x_21agentic_features_test
FN:41,_RINvMNtCskVBA7vvFcNH_11cogni_state5typesNtB3_13StateMetadata10with_titlepEB5_
FN:59,_RINvMNtCskVBA7vvFcNH_11cogni_state5typesNtB3_13StateMetadata11with_customppEB5_
FN:47,_RINvMNtCskVBA7vvFcNH_11cogni_state5typesNtB3_13StateMetadata8with_tagpEB5_
FN:53,_RINvMNtCskVBA7vvFcNH_11cogni_state5typesNtB3_13StateMetadata9with_tagsppEB5_
FN:136,_RINvMs_NtCskVBA7vvFcNH_11cogni_state5typesNtB5_17ConversationState10set_customppEB7_
FN:97,_RINvMs_NtCskVBA7vvFcNH_11cogni_state5typesNtB5_17ConversationState12add_messagespEB7_
FN:109,_RINvMs_NtCskVBA7vvFcNH_11cogni_state5typesNtB5_17ConversationState7add_tagpEB7_
FN:103,_RINvMs_NtCskVBA7vvFcNH_11cogni_state5typesNtB5_17ConversationState9set_titlepEB7_
FN:54,_RNCINvMNtCskVBA7vvFcNH_11cogni_state5typesNtB5_13StateMetadata9with_tagsppE0B7_
FN:142,_RNvMs_NtCskVBA7vvFcNH_11cogni_state5typesNtB4_17ConversationState10get_custom
FN:118,_RNvMs_NtCskVBA7vvFcNH_11cogni_state5typesNtB4_17ConversationState10remove_tag
FN:91,_RNvMs_NtCskVBA7vvFcNH_11cogni_state5typesNtB4_17ConversationState11add_message
FN:147,_RNvMs_NtCskVBA7vvFcNH_11cogni_state5typesNtB4_17ConversationState14clear_messages
FN:158,_RNvMs_NtCskVBA7vvFcNH_11cogni_state5typesNtB4_17ConversationState14modified_since
FN:130,_RNvMs_NtCskVBA7vvFcNH_11cogni_state5typesNtB4_17ConversationState18update_token_count
FN:153,_RNvMs_NtCskVBA7vvFcNH_11cogni_state5typesNtB4_17ConversationState3age
FN:67,_RNvMs_NtCskVBA7vvFcNH_11cogni_state5typesNtB4_17ConversationState3new
FN:79,_RNvMs_NtCskVBA7vvFcNH_11cogni_state5typesNtB4_17ConversationState7with_id
FN:164,_RNvXs0_NtCskVBA7vvFcNH_11cogni_state5typesNtB5_17ConversationStateNtNtCsfvfooZQ3Axs_4core7default7Default7default
FN:143,_RNCNvMs_NtCskVBA7vvFcNH_11cogni_state5typesNtB6_17ConversationState10get_custom0B8_
FN:120,_RNCNvMs_NtCskVBA7vvFcNH_11cogni_state5typesNtB6_17ConversationState10remove_tag0B8_
FN:109,_RINvMs_NtCskVBA7vvFcNH_11cogni_state5typesNtB5_17ConversationState7add_tagReECshZjyUOIHxJx_12cogni_client
FN:103,_RINvMs_NtCskVBA7vvFcNH_11cogni_state5typesNtB5_17ConversationState9set_titleReECshZjyUOIHxJx_12cogni_client
FN:41,_RINvMNtCsjNoER0XDsE6_11cogni_state5typesNtB3_13StateMetadata10with_titlepEB5_
FN:59,_RINvMNtCsjNoER0XDsE6_11cogni_state5typesNtB3_13StateMetadata11with_customppEB5_
FN:47,_RINvMNtCsjNoER0XDsE6_11cogni_state5typesNtB3_13StateMetadata8with_tagpEB5_
FN:53,_RINvMNtCsjNoER0XDsE6_11cogni_state5typesNtB3_13StateMetadata9with_tagsppEB5_
FN:97,_RINvMs_NtCsjNoER0XDsE6_11cogni_state5typesNtB5_17ConversationState12add_messagespEB7_
FN:54,_RNCINvMNtCsjNoER0XDsE6_11cogni_state5typesNtB5_13StateMetadata9with_tagsppE0B7_
FN:147,_RNvMs_NtCsjNoER0XDsE6_11cogni_state5typesNtB4_17ConversationState14clear_messages
FN:158,_RNvMs_NtCsjNoER0XDsE6_11cogni_state5typesNtB4_17ConversationState14modified_since
FN:130,_RNvMs_NtCsjNoER0XDsE6_11cogni_state5typesNtB4_17ConversationState18update_token_count
FN:153,_RNvMs_NtCsjNoER0XDsE6_11cogni_state5typesNtB4_17ConversationState3age
FN:79,_RNvMs_NtCsjNoER0XDsE6_11cogni_state5typesNtB4_17ConversationState7with_id
FN:164,_RNvXs0_NtCsjNoER0XDsE6_11cogni_state5typesNtB5_17ConversationStateNtNtCsfvfooZQ3Axs_4core7default7Default7default
FN:136,_RINvMs_NtCsjNoER0XDsE6_11cogni_state5typesNtB5_17ConversationState10set_customReB1e_EB7_
FN:109,_RINvMs_NtCsjNoER0XDsE6_11cogni_state5typesNtB5_17ConversationState7add_tagReEB7_
FN:103,_RINvMs_NtCsjNoER0XDsE6_11cogni_state5typesNtB5_17ConversationState9set_titleNtNtCse1nGBsou5OW_5alloc6string6StringEB7_
FN:103,_RINvMs_NtCsjNoER0XDsE6_11cogni_state5typesNtB5_17ConversationState9set_titleReEB7_
FN:143,_RNCNvMs_NtCsjNoER0XDsE6_11cogni_state5typesNtB6_17ConversationState10get_custom0B8_
FN:120,_RNCNvMs_NtCsjNoER0XDsE6_11cogni_state5typesNtB6_17ConversationState10remove_tag0B8_
FN:142,_RNvMs_NtCsjNoER0XDsE6_11cogni_state5typesNtB4_17ConversationState10get_custom
FN:118,_RNvMs_NtCsjNoER0XDsE6_11cogni_state5typesNtB4_17ConversationState10remove_tag
FN:91,_RNvMs_NtCsjNoER0XDsE6_11cogni_state5typesNtB4_17ConversationState11add_message
FN:67,_RNvMs_NtCsjNoER0XDsE6_11cogni_state5typesNtB4_17ConversationState3new
FN:183,_RNvNtNtCsjNoER0XDsE6_11cogni_state5types5testss_16test_add_message
FN:218,_RNvNtNtCsjNoER0XDsE6_11cogni_state5types5testss_20test_custom_metadata
FN:175,_RNvNtNtCsjNoER0XDsE6_11cogni_state5types5testss_32test_conversation_state_creation
FN:201,_RNvNtNtCsjNoER0XDsE6_11cogni_state5types5testss_9test_tags
FNDA:3,_RINvMs_NtCskVBA7vvFcNH_11cogni_state5typesNtB5_17ConversationState7add_tagReECsgyDhXtLpw1x_21agentic_features_test
FNDA:3,_RINvMs_NtCskVBA7vvFcNH_11cogni_state5typesNtB5_17ConversationState9set_titleReECsgyDhXtLpw1x_21agentic_features_test
FNDA:0,_RINvMNtCskVBA7vvFcNH_11cogni_state5typesNtB3_13StateMetadata10with_titlepEB5_
FNDA:0,_RINvMNtCskVBA7vvFcNH_11cogni_state5typesNtB3_13StateMetadata11with_customppEB5_
FNDA:0,_RINvMNtCskVBA7vvFcNH_11cogni_state5typesNtB3_13StateMetadata8with_tagpEB5_
FNDA:0,_RINvMNtCskVBA7vvFcNH_11cogni_state5typesNtB3_13StateMetadata9with_tagsppEB5_
FNDA:0,_RINvMs_NtCskVBA7vvFcNH_11cogni_state5typesNtB5_17ConversationState10set_customppEB7_
FNDA:0,_RINvMs_NtCskVBA7vvFcNH_11cogni_state5typesNtB5_17ConversationState12add_messagespEB7_
FNDA:0,_RINvMs_NtCskVBA7vvFcNH_11cogni_state5typesNtB5_17ConversationState7add_tagpEB7_
FNDA:0,_RINvMs_NtCskVBA7vvFcNH_11cogni_state5typesNtB5_17ConversationState9set_titlepEB7_
FNDA:0,_RNCINvMNtCskVBA7vvFcNH_11cogni_state5typesNtB5_13StateMetadata9with_tagsppE0B7_
FNDA:0,_RNvMs_NtCskVBA7vvFcNH_11cogni_state5typesNtB4_17ConversationState10get_custom
FNDA:0,_RNvMs_NtCskVBA7vvFcNH_11cogni_state5typesNtB4_17ConversationState10remove_tag
FNDA:61,_RNvMs_NtCskVBA7vvFcNH_11cogni_state5typesNtB4_17ConversationState11add_message
FNDA:0,_RNvMs_NtCskVBA7vvFcNH_11cogni_state5typesNtB4_17ConversationState14clear_messages
FNDA:0,_RNvMs_NtCskVBA7vvFcNH_11cogni_state5typesNtB4_17ConversationState14modified_since
FNDA:10,_RNvMs_NtCskVBA7vvFcNH_11cogni_state5typesNtB4_17ConversationState18update_token_count
FNDA:0,_RNvMs_NtCskVBA7vvFcNH_11cogni_state5typesNtB4_17ConversationState3age
FNDA:10,_RNvMs_NtCskVBA7vvFcNH_11cogni_state5typesNtB4_17ConversationState3new
FNDA:2,_RNvMs_NtCskVBA7vvFcNH_11cogni_state5typesNtB4_17ConversationState7with_id
FNDA:0,_RNvXs0_NtCskVBA7vvFcNH_11cogni_state5typesNtB5_17ConversationStateNtNtCsfvfooZQ3Axs_4core7default7Default7default
FNDA:0,_RNCNvMs_NtCskVBA7vvFcNH_11cogni_state5typesNtB6_17ConversationState10get_custom0B8_
FNDA:0,_RNCNvMs_NtCskVBA7vvFcNH_11cogni_state5typesNtB6_17ConversationState10remove_tag0B8_
FNDA:2,_RINvMs_NtCskVBA7vvFcNH_11cogni_state5typesNtB5_17ConversationState7add_tagReECshZjyUOIHxJx_12cogni_client
FNDA:2,_RINvMs_NtCskVBA7vvFcNH_11cogni_state5typesNtB5_17ConversationState9set_titleReECshZjyUOIHxJx_12cogni_client
FNDA:0,_RINvMNtCsjNoER0XDsE6_11cogni_state5typesNtB3_13StateMetadata10with_titlepEB5_
FNDA:0,_RINvMNtCsjNoER0XDsE6_11cogni_state5typesNtB3_13StateMetadata11with_customppEB5_
FNDA:0,_RINvMNtCsjNoER0XDsE6_11cogni_state5typesNtB3_13StateMetadata8with_tagpEB5_
FNDA:0,_RINvMNtCsjNoER0XDsE6_11cogni_state5typesNtB3_13StateMetadata9with_tagsppEB5_
FNDA:0,_RINvMs_NtCsjNoER0XDsE6_11cogni_state5typesNtB5_17ConversationState12add_messagespEB7_
FNDA:0,_RNCINvMNtCsjNoER0XDsE6_11cogni_state5typesNtB5_13StateMetadata9with_tagsppE0B7_
FNDA:0,_RNvMs_NtCsjNoER0XDsE6_11cogni_state5typesNtB4_17ConversationState14clear_messages
FNDA:0,_RNvMs_NtCsjNoER0XDsE6_11cogni_state5typesNtB4_17ConversationState14modified_since
FNDA:0,_RNvMs_NtCsjNoER0XDsE6_11cogni_state5typesNtB4_17ConversationState18update_token_count
FNDA:0,_RNvMs_NtCsjNoER0XDsE6_11cogni_state5typesNtB4_17ConversationState3age
FNDA:0,_RNvMs_NtCsjNoER0XDsE6_11cogni_state5typesNtB4_17ConversationState7with_id
FNDA:0,_RNvXs0_NtCsjNoER0XDsE6_11cogni_state5typesNtB5_17ConversationStateNtNtCsfvfooZQ3Axs_4core7default7Default7default
FNDA:2,_RINvMs_NtCsjNoER0XDsE6_11cogni_state5typesNtB5_17ConversationState10set_customReB1e_EB7_
FNDA:13,_RINvMs_NtCsjNoER0XDsE6_11cogni_state5typesNtB5_17ConversationState7add_tagReEB7_
FNDA:15,_RINvMs_NtCsjNoER0XDsE6_11cogni_state5typesNtB5_17ConversationState9set_titleNtNtCse1nGBsou5OW_5alloc6string6StringEB7_
FNDA:9,_RINvMs_NtCsjNoER0XDsE6_11cogni_state5typesNtB5_17ConversationState9set_titleReEB7_
FNDA:2,_RNCNvMs_NtCsjNoER0XDsE6_11cogni_state5typesNtB6_17ConversationState10get_custom0B8_
FNDA:3,_RNCNvMs_NtCsjNoER0XDsE6_11cogni_state5typesNtB6_17ConversationState10remove_tag0B8_
FNDA:3,_RNvMs_NtCsjNoER0XDsE6_11cogni_state5typesNtB4_17ConversationState10get_custom
FNDA:2,_RNvMs_NtCsjNoER0XDsE6_11cogni_state5typesNtB4_17ConversationState10remove_tag
FNDA:9,_RNvMs_NtCsjNoER0XDsE6_11cogni_state5typesNtB4_17ConversationState11add_message
FNDA:31,_RNvMs_NtCsjNoER0XDsE6_11cogni_state5typesNtB4_17ConversationState3new
FNDA:1,_RNvNtNtCsjNoER0XDsE6_11cogni_state5types5testss_16test_add_message
FNDA:1,_RNvNtNtCsjNoER0XDsE6_11cogni_state5types5testss_20test_custom_metadata
FNDA:1,_RNvNtNtCsjNoER0XDsE6_11cogni_state5types5testss_32test_conversation_state_creation
FNDA:1,_RNvNtNtCsjNoER0XDsE6_11cogni_state5types5testss_9test_tags
FNF:25
FNH:15
DA:41,0
DA:42,0
DA:43,0
DA:44,0
DA:47,0
DA:48,0
DA:49,0
DA:50,0
DA:53,0
DA:54,0
DA:55,0
DA:56,0
DA:59,0
DA:60,0
DA:61,0
DA:62,0
DA:67,41
DA:68,41
DA:69,41
DA:70,41
DA:71,41
DA:72,41
DA:73,41
DA:74,41
DA:75,41
DA:76,41
DA:79,2
DA:80,2
DA:81,2
DA:82,2
DA:83,2
DA:84,2
DA:85,2
DA:86,2
DA:87,2
DA:88,2
DA:91,70
DA:92,70
DA:93,70
DA:94,70
DA:97,0
DA:98,0
DA:99,0
DA:100,0
DA:103,29
DA:104,29
DA:105,29
DA:106,29
DA:109,18
DA:110,18
DA:111,18
DA:112,17
DA:113,17
DA:114,17
DA:115,18
DA:118,2
DA:119,2
DA:120,3
DA:121,2
DA:122,1
DA:123,1
DA:125,1
DA:127,2
DA:130,10
DA:131,10
DA:132,10
DA:133,10
DA:136,2
DA:137,2
DA:138,2
DA:139,2
DA:142,3
DA:143,3
DA:144,3
DA:147,0
DA:148,0
DA:149,0
DA:150,0
DA:153,0
DA:154,0
DA:155,0
DA:158,0
DA:159,0
DA:160,0
DA:164,0
DA:165,0
DA:166,0
DA:175,1
DA:176,1
DA:177,1
DA:178,1
DA:179,1
DA:180,1
DA:183,1
DA:184,1
DA:185,1
DA:186,1
DA:187,1
DA:188,1
DA:189,1
DA:190,1
DA:191,1
DA:192,1
DA:193,1
DA:194,1
DA:195,1
DA:196,1
DA:197,1
DA:198,1
DA:201,1
DA:202,1
DA:203,1
DA:204,1
DA:205,1
DA:206,1
DA:207,1
DA:208,1
DA:209,1
DA:210,1
DA:212,1
DA:213,1
DA:214,1
DA:215,1
DA:218,1
DA:219,1
DA:220,1
DA:221,1
DA:222,1
DA:223,1
DA:224,1
DA:225,1
DA:226,1
DA:227,1
BRF:0
BRH:0
LF:136
LH:102
end_of_record
SF:/Users/jkh/Code/ai/cogni/cogni-tools/src/builtin/mod.rs
FN:24,_RNCNvNtCsaHsRlZ6Cj7k_11cogni_tools7builtin10calculator0B5_
FN:106,_RNCNvNtCsaHsRlZ6Cj7k_11cogni_tools7builtin10json_tools0B5_
FN:178,_RNCNvNtCsaHsRlZ6Cj7k_11cogni_tools7builtin10math_tools0B5_
FN:66,_RNCNvNtCsaHsRlZ6Cj7k_11cogni_tools7builtin12string_tools0B5_
FN:209,_RNCNvNtCsaHsRlZ6Cj7k_11cogni_tools7builtin23create_builtin_registry0B5_
FN:24,_RNCNvNtCsbetyD5oBZpQ_11cogni_tools7builtin10calculator0B5_
FN:106,_RNCNvNtCsbetyD5oBZpQ_11cogni_tools7builtin10json_tools0B5_
FN:178,_RNCNvNtCsbetyD5oBZpQ_11cogni_tools7builtin10math_tools0B5_
FN:66,_RNCNvNtCsbetyD5oBZpQ_11cogni_tools7builtin12string_tools0B5_
FN:209,_RNCNvNtCsbetyD5oBZpQ_11cogni_tools7builtin23create_builtin_registry0B5_
FN:316,_RNvNtNtCsbetyD5oBZpQ_11cogni_tools7builtin5testss_24test_calculator_metadata
FN:559,_RNvNtNtCsbetyD5oBZpQ_11cogni_tools7builtin5testss_24test_json_tools_metadata
FN:229,_RNvNtNtCsbetyD5oBZpQ_11cogni_tools7builtin5testss_26test_calculator_operations
FN:441,_RNvNtNtCsbetyD5oBZpQ_11cogni_tools7builtin5testss_26test_json_tools_operations
FN:432,_RNvNtNtCsbetyD5oBZpQ_11cogni_tools7builtin5testss_26test_string_tools_metadata
FN:735,_RNvNtNtCsbetyD5oBZpQ_11cogni_tools7builtin5testss_27test_math_advanced_metadata
FN:746,_RNvNtNtCsbetyD5oBZpQ_11cogni_tools7builtin5testss_28test_create_builtin_registry
FN:325,_RNvNtNtCsbetyD5oBZpQ_11cogni_tools7builtin5testss_28test_string_tools_operations
FN:572,_RNvNtNtCsbetyD5oBZpQ_11cogni_tools7builtin5testss_29test_math_advanced_operations
FN:776,_RNvNtNtCsbetyD5oBZpQ_11cogni_tools7builtin5testss_38test_math_tools_returns_multiple_tools
FN:10,_RNvNtCsbetyD5oBZpQ_11cogni_tools7builtin10calculator
FN:92,_RNvNtCsbetyD5oBZpQ_11cogni_tools7builtin10json_tools
FN:157,_RNvNtCsbetyD5oBZpQ_11cogni_tools7builtin10math_tools
FN:48,_RNvNtCsbetyD5oBZpQ_11cogni_tools7builtin12string_tools
FN:209,_RNvNtCsbetyD5oBZpQ_11cogni_tools7builtin23create_builtin_registry
FN:233,_RNCNvNtNtCsbetyD5oBZpQ_11cogni_tools7builtin5testss_26test_calculator_operations0B7_
FN:257,_RNCNvNtNtCsbetyD5oBZpQ_11cogni_tools7builtin5testss_26test_calculator_operationss0_0B7_
FN:269,_RNCNvNtNtCsbetyD5oBZpQ_11cogni_tools7builtin5testss_26test_calculator_operationss1_0B7_
FN:281,_RNCNvNtNtCsbetyD5oBZpQ_11cogni_tools7builtin5testss_26test_calculator_operationss2_0B7_
FN:293,_RNCNvNtNtCsbetyD5oBZpQ_11cogni_tools7builtin5testss_26test_calculator_operationss3_0B7_
FN:305,_RNCNvNtNtCsbetyD5oBZpQ_11cogni_tools7builtin5testss_26test_calculator_operationss4_0B7_
FN:245,_RNCNvNtNtCsbetyD5oBZpQ_11cogni_tools7builtin5testss_26test_calculator_operationss_0B7_
FN:445,_RNCNvNtNtCsbetyD5oBZpQ_11cogni_tools7builtin5testss_26test_json_tools_operations0B7_
FN:468,_RNCNvNtNtCsbetyD5oBZpQ_11cogni_tools7builtin5testss_26test_json_tools_operationss0_0B7_
FN:478,_RNCNvNtNtCsbetyD5oBZpQ_11cogni_tools7builtin5testss_26test_json_tools_operationss1_0B7_
FN:491,_RNCNvNtNtCsbetyD5oBZpQ_11cogni_tools7builtin5testss_26test_json_tools_operationss2_0B7_
FN:501,_RNCNvNtNtCsbetyD5oBZpQ_11cogni_tools7builtin5testss_26test_json_tools_operationss3_0B7_
FN:513,_RNCNvNtNtCsbetyD5oBZpQ_11cogni_tools7builtin5testss_26test_json_tools_operationss4_0B7_
FN:525,_RNCNvNtNtCsbetyD5oBZpQ_11cogni_tools7builtin5testss_26test_json_tools_operationss5_0B7_
FN:537,_RNCNvNtNtCsbetyD5oBZpQ_11cogni_tools7builtin5testss_26test_json_tools_operationss6_0B7_
FN:548,_RNCNvNtNtCsbetyD5oBZpQ_11cogni_tools7builtin5testss_26test_json_tools_operationss7_0B7_
FN:457,_RNCNvNtNtCsbetyD5oBZpQ_11cogni_tools7builtin5testss_26test_json_tools_operationss_0B7_
FN:737,_RNCNvNtNtCsbetyD5oBZpQ_11cogni_tools7builtin5testss_27test_math_advanced_metadata0B7_
FN:746,_RNCNvNtNtCsbetyD5oBZpQ_11cogni_tools7builtin5testss_28test_create_builtin_registry0B7_
FN:329,_RNCNvNtNtCsbetyD5oBZpQ_11cogni_tools7builtin5testss_28test_string_tools_operations0B7_
FN:351,_RNCNvNtNtCsbetyD5oBZpQ_11cogni_tools7builtin5testss_28test_string_tools_operationss0_0B7_
FN:362,_RNCNvNtNtCsbetyD5oBZpQ_11cogni_tools7builtin5testss_28test_string_tools_operationss1_0B7_
FN:373,_RNCNvNtNtCsbetyD5oBZpQ_11cogni_tools7builtin5testss_28test_string_tools_operationss2_0B7_
FN:385,_RNCNvNtNtCsbetyD5oBZpQ_11cogni_tools7builtin5testss_28test_string_tools_operationss3_0B7_
FN:397,_RNCNvNtNtCsbetyD5oBZpQ_11cogni_tools7builtin5testss_28test_string_tools_operationss4_0B7_
FN:410,_RNCNvNtNtCsbetyD5oBZpQ_11cogni_tools7builtin5testss_28test_string_tools_operationss5_0B7_
FN:421,_RNCNvNtNtCsbetyD5oBZpQ_11cogni_tools7builtin5testss_28test_string_tools_operationss6_0B7_
FN:340,_RNCNvNtNtCsbetyD5oBZpQ_11cogni_tools7builtin5testss_28test_string_tools_operationss_0B7_
FN:576,_RNCNvNtNtCsbetyD5oBZpQ_11cogni_tools7builtin5testss_29test_math_advanced_operations0B7_
FN:590,_RNCNvNtNtCsbetyD5oBZpQ_11cogni_tools7builtin5testss_29test_math_advanced_operationss0_0B7_
FN:602,_RNCNvNtNtCsbetyD5oBZpQ_11cogni_tools7builtin5testss_29test_math_advanced_operationss1_0B7_
FN:613,_RNCNvNtNtCsbetyD5oBZpQ_11cogni_tools7builtin5testss_29test_math_advanced_operationss2_0B7_
FN:624,_RNCNvNtNtCsbetyD5oBZpQ_11cogni_tools7builtin5testss_29test_math_advanced_operationss3_0B7_
FN:635,_RNCNvNtNtCsbetyD5oBZpQ_11cogni_tools7builtin5testss_29test_math_advanced_operationss4_0B7_
FN:646,_RNCNvNtNtCsbetyD5oBZpQ_11cogni_tools7builtin5testss_29test_math_advanced_operationss5_0B7_
FN:657,_RNCNvNtNtCsbetyD5oBZpQ_11cogni_tools7builtin5testss_29test_math_advanced_operationss6_0B7_
FN:668,_RNCNvNtNtCsbetyD5oBZpQ_11cogni_tools7builtin5testss_29test_math_advanced_operationss7_0B7_
FN:680,_RNCNvNtNtCsbetyD5oBZpQ_11cogni_tools7builtin5testss_29test_math_advanced_operationss8_0B7_
FN:691,_RNCNvNtNtCsbetyD5oBZpQ_11cogni_tools7builtin5testss_29test_math_advanced_operationss9_0B7_
FN:579,_RNCNvNtNtCsbetyD5oBZpQ_11cogni_tools7builtin5testss_29test_math_advanced_operationss_0B7_
FN:702,_RNCNvNtNtCsbetyD5oBZpQ_11cogni_tools7builtin5testss_29test_math_advanced_operationssa_0B7_
FN:713,_RNCNvNtNtCsbetyD5oBZpQ_11cogni_tools7builtin5testss_29test_math_advanced_operationssb_0B7_
FN:724,_RNCNvNtNtCsbetyD5oBZpQ_11cogni_tools7builtin5testss_29test_math_advanced_operationssc_0B7_
FN:783,_RNCNvNtNtCsbetyD5oBZpQ_11cogni_tools7builtin5testss_38test_math_tools_returns_multiple_tools0B7_
FN:786,_RNCNvNtNtCsbetyD5oBZpQ_11cogni_tools7builtin5testss_38test_math_tools_returns_multiple_toolss_0B7_
FN:10,_RNvNtCsaHsRlZ6Cj7k_11cogni_tools7builtin10calculator
FN:92,_RNvNtCsaHsRlZ6Cj7k_11cogni_tools7builtin10json_tools
FN:157,_RNvNtCsaHsRlZ6Cj7k_11cogni_tools7builtin10math_tools
FN:48,_RNvNtCsaHsRlZ6Cj7k_11cogni_tools7builtin12string_tools
FN:209,_RNvNtCsaHsRlZ6Cj7k_11cogni_tools7builtin23create_builtin_registry
FNDA:1,_RNCNvNtCsaHsRlZ6Cj7k_11cogni_tools7builtin10calculator0B5_
FNDA:0,_RNCNvNtCsaHsRlZ6Cj7k_11cogni_tools7builtin10json_tools0B5_
FNDA:0,_RNCNvNtCsaHsRlZ6Cj7k_11cogni_tools7builtin10math_tools0B5_
FNDA:0,_RNCNvNtCsaHsRlZ6Cj7k_11cogni_tools7builtin12string_tools0B5_
FNDA:0,_RNCNvNtCsaHsRlZ6Cj7k_11cogni_tools7builtin23create_builtin_registry0B5_
FNDA:8,_RNCNvNtCsbetyD5oBZpQ_11cogni_tools7builtin10calculator0B5_
FNDA:10,_RNCNvNtCsbetyD5oBZpQ_11cogni_tools7builtin10json_tools0B5_
FNDA:14,_RNCNvNtCsbetyD5oBZpQ_11cogni_tools7builtin10math_tools0B5_
FNDA:9,_RNCNvNtCsbetyD5oBZpQ_11cogni_tools7builtin12string_tools0B5_
FNDA:1,_RNCNvNtCsbetyD5oBZpQ_11cogni_tools7builtin23create_builtin_registry0B5_
FNDA:1,_RNvNtNtCsbetyD5oBZpQ_11cogni_tools7builtin5testss_24test_calculator_metadata
FNDA:1,_RNvNtNtCsbetyD5oBZpQ_11cogni_tools7builtin5testss_24test_json_tools_metadata
FNDA:1,_RNvNtNtCsbetyD5oBZpQ_11cogni_tools7builtin5testss_26test_calculator_operations
FNDA:1,_RNvNtNtCsbetyD5oBZpQ_11cogni_tools7builtin5testss_26test_json_tools_operations
FNDA:1,_RNvNtNtCsbetyD5oBZpQ_11cogni_tools7builtin5testss_26test_string_tools_metadata
FNDA:1,_RNvNtNtCsbetyD5oBZpQ_11cogni_tools7builtin5testss_27test_math_advanced_metadata
FNDA:1,_RNvNtNtCsbetyD5oBZpQ_11cogni_tools7builtin5testss_28test_create_builtin_registry
FNDA:1,_RNvNtNtCsbetyD5oBZpQ_11cogni_tools7builtin5testss_28test_string_tools_operations
FNDA:1,_RNvNtNtCsbetyD5oBZpQ_11cogni_tools7builtin5testss_29test_math_advanced_operations
FNDA:1,_RNvNtNtCsbetyD5oBZpQ_11cogni_tools7builtin5testss_38test_math_tools_returns_multiple_tools
FNDA:7,_RNvNtCsbetyD5oBZpQ_11cogni_tools7builtin10calculator
FNDA:3,_RNvNtCsbetyD5oBZpQ_11cogni_tools7builtin10json_tools
FNDA:4,_RNvNtCsbetyD5oBZpQ_11cogni_tools7builtin10math_tools
FNDA:3,_RNvNtCsbetyD5oBZpQ_11cogni_tools7builtin12string_tools
FNDA:1,_RNvNtCsbetyD5oBZpQ_11cogni_tools7builtin23create_builtin_registry
FNDA:1,_RNCNvNtNtCsbetyD5oBZpQ_11cogni_tools7builtin5testss_26test_calculator_operations0B7_
FNDA:1,_RNCNvNtNtCsbetyD5oBZpQ_11cogni_tools7builtin5testss_26test_calculator_operationss0_0B7_
FNDA:1,_RNCNvNtNtCsbetyD5oBZpQ_11cogni_tools7builtin5testss_26test_calculator_operationss1_0B7_
FNDA:1,_RNCNvNtNtCsbetyD5oBZpQ_11cogni_tools7builtin5testss_26test_calculator_operationss2_0B7_
FNDA:1,_RNCNvNtNtCsbetyD5oBZpQ_11cogni_tools7builtin5testss_26test_calculator_operationss3_0B7_
FNDA:1,_RNCNvNtNtCsbetyD5oBZpQ_11cogni_tools7builtin5testss_26test_calculator_operationss4_0B7_
FNDA:1,_RNCNvNtNtCsbetyD5oBZpQ_11cogni_tools7builtin5testss_26test_calculator_operationss_0B7_
FNDA:1,_RNCNvNtNtCsbetyD5oBZpQ_11cogni_tools7builtin5testss_26test_json_tools_operations0B7_
FNDA:1,_RNCNvNtNtCsbetyD5oBZpQ_11cogni_tools7builtin5testss_26test_json_tools_operationss0_0B7_
FNDA:1,_RNCNvNtNtCsbetyD5oBZpQ_11cogni_tools7builtin5testss_26test_json_tools_operationss1_0B7_
FNDA:1,_RNCNvNtNtCsbetyD5oBZpQ_11cogni_tools7builtin5testss_26test_json_tools_operationss2_0B7_
FNDA:1,_RNCNvNtNtCsbetyD5oBZpQ_11cogni_tools7builtin5testss_26test_json_tools_operationss3_0B7_
FNDA:1,_RNCNvNtNtCsbetyD5oBZpQ_11cogni_tools7builtin5testss_26test_json_tools_operationss4_0B7_
FNDA:1,_RNCNvNtNtCsbetyD5oBZpQ_11cogni_tools7builtin5testss_26test_json_tools_operationss5_0B7_
FNDA:1,_RNCNvNtNtCsbetyD5oBZpQ_11cogni_tools7builtin5testss_26test_json_tools_operationss6_0B7_
FNDA:1,_RNCNvNtNtCsbetyD5oBZpQ_11cogni_tools7builtin5testss_26test_json_tools_operationss7_0B7_
FNDA:1,_RNCNvNtNtCsbetyD5oBZpQ_11cogni_tools7builtin5testss_26test_json_tools_operationss_0B7_
FNDA:2,_RNCNvNtNtCsbetyD5oBZpQ_11cogni_tools7builtin5testss_27test_math_advanced_metadata0B7_
FNDA:1,_RNCNvNtNtCsbetyD5oBZpQ_11cogni_tools7builtin5testss_28test_create_builtin_registry0B7_
FNDA:1,_RNCNvNtNtCsbetyD5oBZpQ_11cogni_tools7builtin5testss_28test_string_tools_operations0B7_
FNDA:1,_RNCNvNtNtCsbetyD5oBZpQ_11cogni_tools7builtin5testss_28test_string_tools_operationss0_0B7_
FNDA:1,_RNCNvNtNtCsbetyD5oBZpQ_11cogni_tools7builtin5testss_28test_string_tools_operationss1_0B7_
FNDA:1,_RNCNvNtNtCsbetyD5oBZpQ_11cogni_tools7builtin5testss_28test_string_tools_operationss2_0B7_
FNDA:1,_RNCNvNtNtCsbetyD5oBZpQ_11cogni_tools7builtin5testss_28test_string_tools_operationss3_0B7_
FNDA:1,_RNCNvNtNtCsbetyD5oBZpQ_11cogni_tools7builtin5testss_28test_string_tools_operationss4_0B7_
FNDA:1,_RNCNvNtNtCsbetyD5oBZpQ_11cogni_tools7builtin5testss_28test_string_tools_operationss5_0B7_
FNDA:1,_RNCNvNtNtCsbetyD5oBZpQ_11cogni_tools7builtin5testss_28test_string_tools_operationss6_0B7_
FNDA:1,_RNCNvNtNtCsbetyD5oBZpQ_11cogni_tools7builtin5testss_28test_string_tools_operationss_0B7_
FNDA:2,_RNCNvNtNtCsbetyD5oBZpQ_11cogni_tools7builtin5testss_29test_math_advanced_operations0B7_
FNDA:1,_RNCNvNtNtCsbetyD5oBZpQ_11cogni_tools7builtin5testss_29test_math_advanced_operationss0_0B7_
FNDA:1,_RNCNvNtNtCsbetyD5oBZpQ_11cogni_tools7builtin5testss_29test_math_advanced_operationss1_0B7_
FNDA:1,_RNCNvNtNtCsbetyD5oBZpQ_11cogni_tools7builtin5testss_29test_math_advanced_operationss2_0B7_
FNDA:1,_RNCNvNtNtCsbetyD5oBZpQ_11cogni_tools7builtin5testss_29test_math_advanced_operationss3_0B7_
FNDA:1,_RNCNvNtNtCsbetyD5oBZpQ_11cogni_tools7builtin5testss_29test_math_advanced_operationss4_0B7_
FNDA:1,_RNCNvNtNtCsbetyD5oBZpQ_11cogni_tools7builtin5testss_29test_math_advanced_operationss5_0B7_
FNDA:1,_RNCNvNtNtCsbetyD5oBZpQ_11cogni_tools7builtin5testss_29test_math_advanced_operationss6_0B7_
FNDA:1,_RNCNvNtNtCsbetyD5oBZpQ_11cogni_tools7builtin5testss_29test_math_advanced_operationss7_0B7_
FNDA:1,_RNCNvNtNtCsbetyD5oBZpQ_11cogni_tools7builtin5testss_29test_math_advanced_operationss8_0B7_
FNDA:1,_RNCNvNtNtCsbetyD5oBZpQ_11cogni_tools7builtin5testss_29test_math_advanced_operationss9_0B7_
FNDA:1,_RNCNvNtNtCsbetyD5oBZpQ_11cogni_tools7builtin5testss_29test_math_advanced_operationss_0B7_
FNDA:1,_RNCNvNtNtCsbetyD5oBZpQ_11cogni_tools7builtin5testss_29test_math_advanced_operationssa_0B7_
FNDA:1,_RNCNvNtNtCsbetyD5oBZpQ_11cogni_tools7builtin5testss_29test_math_advanced_operationssb_0B7_
FNDA:1,_RNCNvNtNtCsbetyD5oBZpQ_11cogni_tools7builtin5testss_29test_math_advanced_operationssc_0B7_
FNDA:1,_RNCNvNtNtCsbetyD5oBZpQ_11cogni_tools7builtin5testss_38test_math_tools_returns_multiple_tools0B7_
FNDA:2,_RNCNvNtNtCsbetyD5oBZpQ_11cogni_tools7builtin5testss_38test_math_tools_returns_multiple_toolss_0B7_
FNDA:1,_RNvNtCsaHsRlZ6Cj7k_11cogni_tools7builtin10calculator
FNDA:0,_RNvNtCsaHsRlZ6Cj7k_11cogni_tools7builtin10json_tools
FNDA:0,_RNvNtCsaHsRlZ6Cj7k_11cogni_tools7builtin10math_tools
FNDA:0,_RNvNtCsaHsRlZ6Cj7k_11cogni_tools7builtin12string_tools
FNDA:0,_RNvNtCsaHsRlZ6Cj7k_11cogni_tools7builtin23create_builtin_registry
FNF:65
FNH:65
DA:10,8
DA:11,8
DA:12,8
DA:13,8
DA:14,8
DA:15,8
DA:16,8
DA:17,8
DA:18,8
DA:19,8
DA:20,8
DA:21,8
DA:22,8
DA:23,8
DA:24,9
DA:25,9
DA:26,9
DA:27,9
DA:29,9
DA:30,9
DA:31,7
DA:32,6
DA:33,4
DA:34,2
DA:35,1
DA:37,1
DA:40,2
DA:43,6
DA:44,9
DA:45,8
DA:48,3
DA:49,3
DA:50,3
DA:51,3
DA:52,3
DA:53,3
DA:54,3
DA:55,3
DA:56,3
DA:57,3
DA:58,3
DA:59,3
DA:60,3
DA:61,3
DA:62,3
DA:63,3
DA:64,3
DA:65,3
DA:66,9
DA:67,9
DA:68,9
DA:70,9
DA:71,9
DA:72,7
DA:73,6
DA:74,5
DA:75,4
DA:76,2
DA:77,2
DA:79,2
DA:80,1
DA:81,1
DA:82,1
DA:84,1
DA:87,9
DA:88,9
DA:89,3
DA:92,3
DA:93,3
DA:94,3
DA:95,3
DA:96,3
DA:97,3
DA:98,3
DA:99,3
DA:100,3
DA:101,3
DA:102,3
DA:103,3
DA:104,3
DA:105,3
DA:106,10
DA:107,10
DA:108,10
DA:109,10
DA:110,10
DA:111,3
DA:112,3
DA:113,2
DA:114,1
DA:117,7
DA:118,2
DA:119,1
DA:120,1
DA:121,0
DA:124,1
DA:127,5
DA:128,4
DA:129,3
DA:130,3
DA:132,8
DA:133,7
DA:134,6
DA:135,5
DA:136,5
DA:137,1
DA:138,1
DA:139,1
DA:142,1
DA:146,1
DA:148,1
DA:151,1
DA:153,10
DA:154,3
DA:157,4
DA:158,4
DA:159,4
DA:160,4
DA:161,4
DA:162,4
DA:163,4
DA:164,4
DA:165,4
DA:166,4
DA:167,4
DA:168,4
DA:169,4
DA:170,4
DA:171,4
DA:172,4
DA:173,4
DA:174,4
DA:175,4
DA:176,4
DA:177,4
DA:178,14
DA:179,14
DA:180,14
DA:182,14
DA:183,14
DA:184,13
DA:185,2
DA:186,2
DA:188,11
DA:189,10
DA:190,9
DA:191,8
DA:192,7
DA:193,5
DA:194,2
DA:195,2
DA:196,2
DA:198,3
DA:199,2
DA:200,1
DA:203,13
DA:204,14
DA:205,4
DA:206,4
DA:209,1
DA:210,1
DA:211,1
DA:212,1
DA:213,1
DA:215,3
DA:216,2
DA:217,2
DA:219,1
DA:220,1
DA:229,1
DA:230,1
DA:231,1
DA:232,1
DA:233,1
DA:234,1
DA:235,1
DA:236,1
DA:237,1
DA:238,1
DA:239,1
DA:240,1
DA:241,1
DA:242,1
DA:245,1
DA:246,1
DA:247,1
DA:248,1
DA:249,1
DA:250,1
DA:251,1
DA:252,1
DA:253,1
DA:254,1
DA:257,1
DA:258,1
DA:259,1
DA:260,1
DA:261,1
DA:262,1
DA:263,1
DA:264,1
DA:265,1
DA:266,1
DA:269,1
DA:270,1
DA:271,1
DA:272,1
DA:273,1
DA:274,1
DA:275,1
DA:276,1
DA:277,1
DA:278,1
DA:281,1
DA:282,1
DA:283,1
DA:284,1
DA:285,1
DA:286,1
DA:287,1
DA:288,1
DA:289,1
DA:290,1
DA:293,1
DA:294,1
DA:295,1
DA:296,1
DA:297,1
DA:298,1
DA:299,1
DA:300,1
DA:301,1
DA:302,1
DA:305,1
DA:306,1
DA:307,1
DA:308,1
DA:309,1
DA:310,1
DA:311,1
DA:312,1
DA:313,1
DA:316,1
DA:317,1
DA:318,1
DA:319,1
DA:320,1
DA:321,1
DA:322,1
DA:325,1
DA:326,1
DA:327,1
DA:328,1
DA:329,1
DA:330,1
DA:331,1
DA:332,1
DA:333,1
DA:334,1
DA:335,1
DA:336,1
DA:337,1
DA:340,1
DA:341,1
DA:342,1
DA:343,1
DA:344,1
DA:345,1
DA:346,1
DA:347,1
DA:348,1
DA:351,1
DA:352,1
DA:353,1
DA:354,1
DA:355,1
DA:356,1
DA:357,1
DA:358,1
DA:359,1
DA:362,1
DA:363,1
DA:364,1
DA:365,1
DA:366,1
DA:367,1
DA:368,1
DA:369,1
DA:370,1
DA:373,1
DA:374,1
DA:375,1
DA:376,1
DA:377,1
DA:378,1
DA:379,1
DA:380,1
DA:381,1
DA:382,1
DA:385,1
DA:386,1
DA:387,1
DA:388,1
DA:389,1
DA:390,1
DA:391,1
DA:392,1
DA:393,1
DA:394,1
DA:397,1
DA:398,1
DA:399,1
DA:400,1
DA:401,1
DA:402,1
DA:403,1
DA:404,1
DA:405,1
DA:406,1
DA:407,1
DA:410,1
DA:411,1
DA:412,1
DA:413,1
DA:414,1
DA:415,1
DA:416,1
DA:417,1
DA:418,1
DA:421,1
DA:422,1
DA:423,1
DA:424,1
DA:425,1
DA:426,1
DA:427,1
DA:428,1
DA:429,1
DA:432,1
DA:433,1
DA:434,1
DA:435,1
DA:436,1
DA:437,1
DA:438,1
DA:441,1
DA:442,1
DA:443,1
DA:444,1
DA:445,1
DA:446,1
DA:447,1
DA:448,1
DA:449,1
DA:450,1
DA:451,1
DA:452,1
DA:453,1
DA:454,1
DA:457,1
DA:458,1
DA:459,1
DA:460,1
DA:461,1
DA:462,1
DA:463,1
DA:464,1
DA:465,1
DA:468,1
DA:469,1
DA:470,1
DA:471,1
DA:472,1
DA:473,1
DA:474,1
DA:475,1
DA:478,1
DA:479,1
DA:480,1
DA:481,1
DA:482,1
DA:483,1
DA:484,1
DA:485,1
DA:486,1
DA:487,1
DA:488,1
DA:491,1
DA:492,1
DA:493,1
DA:494,1
DA:495,1
DA:496,1
DA:497,1
DA:498,1
DA:501,1
DA:502,1
DA:503,1
DA:504,1
DA:505,1
DA:506,1
DA:507,1
DA:508,1
DA:509,1
DA:510,1
DA:513,1
DA:514,1
DA:515,1
DA:516,1
DA:517,1
DA:518,1
DA:519,1
DA:520,1
DA:521,1
DA:522,1
DA:525,1
DA:526,1
DA:527,1
DA:528,1
DA:529,1
DA:530,1
DA:531,1
DA:532,1
DA:533,1
DA:534,1
DA:537,1
DA:538,1
DA:539,1
DA:540,1
DA:541,1
DA:542,1
DA:543,1
DA:544,1
DA:545,1
DA:548,1
DA:549,1
DA:550,1
DA:551,1
DA:552,1
DA:553,1
DA:554,1
DA:555,1
DA:556,1
DA:559,1
DA:560,1
DA:561,1
DA:562,1
DA:563,1
DA:564,1
DA:567,1
DA:568,1
DA:569,1
DA:572,1
DA:573,1
DA:574,1
DA:576,2
DA:577,1
DA:578,1
DA:579,1
DA:580,1
DA:581,1
DA:582,1
DA:583,1
DA:584,1
DA:585,1
DA:586,1
DA:587,1
DA:590,1
DA:591,1
DA:592,1
DA:593,1
DA:594,1
DA:595,1
DA:596,1
DA:597,1
DA:598,1
DA:599,1
DA:602,1
DA:603,1
DA:604,1
DA:605,1
DA:606,1
DA:607,1
DA:608,1
DA:609,1
DA:610,1
DA:613,1
DA:614,1
DA:615,1
DA:616,1
DA:617,1
DA:618,1
DA:619,1
DA:620,1
DA:621,1
DA:624,1
DA:625,1
DA:626,1
DA:627,1
DA:628,1
DA:629,1
DA:630,1
DA:631,1
DA:632,1
DA:635,1
DA:636,1
DA:637,1
DA:638,1
DA:639,1
DA:640,1
DA:641,1
DA:642,1
DA:643,1
DA:646,1
DA:647,1
DA:648,1
DA:649,1
DA:650,1
DA:651,1
DA:652,1
DA:653,1
DA:654,1
DA:657,1
DA:658,1
DA:659,1
DA:660,1
DA:661,1
DA:662,1
DA:663,1
DA:664,1
DA:665,1
DA:668,1
DA:669,1
DA:670,1
DA:671,1
DA:672,1
DA:673,1
DA:674,1
DA:675,1
DA:676,1
DA:677,1
DA:680,1
DA:681,1
DA:682,1
DA:683,1
DA:684,1
DA:685,1
DA:686,1
DA:687,1
DA:688,1
DA:691,1
DA:692,1
DA:693,1
DA:694,1
DA:695,1
DA:696,1
DA:697,1
DA:698,1
DA:699,1
DA:702,1
DA:703,1
DA:704,1
DA:705,1
DA:706,1
DA:707,1
DA:708,1
DA:709,1
DA:710,1
DA:713,1
DA:714,1
DA:715,1
DA:716,1
DA:717,1
DA:718,1
DA:719,1
DA:720,1
DA:721,1
DA:724,1
DA:725,1
DA:726,1
DA:727,1
DA:728,1
DA:729,1
DA:730,1
DA:731,1
DA:732,1
DA:735,1
DA:736,1
DA:737,2
DA:738,1
DA:739,1
DA:740,1
DA:741,1
DA:742,1
DA:743,1
DA:746,1
DA:747,1
DA:748,1
DA:749,1
DA:750,1
DA:751,1
DA:752,1
DA:753,1
DA:754,1
DA:755,1
DA:756,1
DA:757,1
DA:758,1
DA:759,1
DA:760,1
DA:761,1
DA:762,1
DA:763,1
DA:764,1
DA:765,1
DA:766,1
DA:767,1
DA:768,1
DA:769,1
DA:770,1
DA:771,1
DA:772,1
DA:773,1
DA:776,1
DA:777,1
DA:778,1
DA:779,1
DA:780,1
DA:783,1
DA:786,2
DA:789,3
DA:790,2
DA:791,2
DA:792,2
DA:793,2
DA:795,1
BRF:0
BRH:0
LF:752
LH:751
end_of_record
SF:/Users/jkh/Code/ai/cogni/cogni-tools/src/error.rs
FN:142,_RNCNvXs0_NtCsaHsRlZ6Cj7k_11cogni_tools5errorNtB7_9ToolErrorNtNtCsfvfooZQ3Axs_4core5error5Error6source0B9_
FN:89,_RNvMNtCsaHsRlZ6Cj7k_11cogni_tools5errorNtB2_9ToolError4kind
FN:136,_RNvXs0_NtCsaHsRlZ6Cj7k_11cogni_tools5errorNtB5_9ToolErrorNtNtCsfvfooZQ3Axs_4core5error5Error6source
FN:150,_RNvXs1_NtCsaHsRlZ6Cj7k_11cogni_tools5errorNtB5_9ToolErrorINtNtCsfvfooZQ3Axs_4core7convert4FromNtNtCsjzYHKjXEdum_10serde_json5error5ErrorE4from
FN:103,_RNvXs_NtCsaHsRlZ6Cj7k_11cogni_tools5errorNtB4_9ToolErrorNtNtCsfvfooZQ3Axs_4core3fmt7Display3fmt
FN:328,_RINvNvNtNtCsbetyD5oBZpQ_11cogni_tools5error5testss_23test_error_is_send_sync11assert_sendNtB6_9ToolErrorEB8_
FN:329,_RINvNvNtNtCsbetyD5oBZpQ_11cogni_tools5error5testss_23test_error_is_send_sync11assert_syncNtB6_9ToolErrorEB8_
FN:142,_RNCNvXs0_NtCsbetyD5oBZpQ_11cogni_tools5errorNtB7_9ToolErrorNtNtCsfvfooZQ3Axs_4core5error5Error6source0B9_
FN:89,_RNvMNtCsbetyD5oBZpQ_11cogni_tools5errorNtB2_9ToolError4kind
FN:136,_RNvXs0_NtCsbetyD5oBZpQ_11cogni_tools5errorNtB5_9ToolErrorNtNtCsfvfooZQ3Axs_4core5error5Error6source
FN:150,_RNvXs1_NtCsbetyD5oBZpQ_11cogni_tools5errorNtB5_9ToolErrorINtNtCsfvfooZQ3Axs_4core7convert4FromNtNtCsjzYHKjXEdum_10serde_json5error5ErrorE4from
FN:103,_RNvXs_NtCsbetyD5oBZpQ_11cogni_tools5errorNtB4_9ToolErrorNtNtCsfvfooZQ3Axs_4core3fmt7Display3fmt
FN:304,_RNvNtNtCsbetyD5oBZpQ_11cogni_tools5error5testss_16test_error_debug
FN:290,_RNvNtNtCsbetyD5oBZpQ_11cogni_tools5error5testss_16test_result_type
FN:211,_RNvNtNtCsbetyD5oBZpQ_11cogni_tools5error5testss_20test_tool_error_kind
FN:228,_RNvNtNtCsbetyD5oBZpQ_11cogni_tools5error5testss_22test_tool_error_source
FN:327,_RNvNtNtCsbetyD5oBZpQ_11cogni_tools5error5testss_23test_error_is_send_sync
FN:167,_RNvNtNtCsbetyD5oBZpQ_11cogni_tools5error5testss_23test_tool_error_display
FN:312,_RNvNtNtCsbetyD5oBZpQ_11cogni_tools5error5testss_24test_error_kind_equality
FN:276,_RNvNtNtCsbetyD5oBZpQ_11cogni_tools5error5testss_26test_from_serde_json_error
FN:318,_RNvNtNtCsbetyD5oBZpQ_11cogni_tools5error5testss_35test_validation_failed_empty_errors
FN:291,_RNvNvNtNtCsbetyD5oBZpQ_11cogni_tools5error5testss_16test_result_type10success_fn
FN:295,_RNvNvNtNtCsbetyD5oBZpQ_11cogni_tools5error5testss_16test_result_type8error_fn
FNDA:0,_RNCNvXs0_NtCsaHsRlZ6Cj7k_11cogni_tools5errorNtB7_9ToolErrorNtNtCsfvfooZQ3Axs_4core5error5Error6source0B9_
FNDA:0,_RNvMNtCsaHsRlZ6Cj7k_11cogni_tools5errorNtB2_9ToolError4kind
FNDA:0,_RNvXs0_NtCsaHsRlZ6Cj7k_11cogni_tools5errorNtB5_9ToolErrorNtNtCsfvfooZQ3Axs_4core5error5Error6source
FNDA:0,_RNvXs1_NtCsaHsRlZ6Cj7k_11cogni_tools5errorNtB5_9ToolErrorINtNtCsfvfooZQ3Axs_4core7convert4FromNtNtCsjzYHKjXEdum_10serde_json5error5ErrorE4from
FNDA:1,_RNvXs_NtCsaHsRlZ6Cj7k_11cogni_tools5errorNtB4_9ToolErrorNtNtCsfvfooZQ3Axs_4core3fmt7Display3fmt
FNDA:1,_RINvNvNtNtCsbetyD5oBZpQ_11cogni_tools5error5testss_23test_error_is_send_sync11assert_sendNtB6_9ToolErrorEB8_
FNDA:1,_RINvNvNtNtCsbetyD5oBZpQ_11cogni_tools5error5testss_23test_error_is_send_sync11assert_syncNtB6_9ToolErrorEB8_
FNDA:3,_RNCNvXs0_NtCsbetyD5oBZpQ_11cogni_tools5errorNtB7_9ToolErrorNtNtCsfvfooZQ3Axs_4core5error5Error6source0B9_
FNDA:7,_RNvMNtCsbetyD5oBZpQ_11cogni_tools5errorNtB2_9ToolError4kind
FNDA:7,_RNvXs0_NtCsbetyD5oBZpQ_11cogni_tools5errorNtB5_9ToolErrorNtNtCsfvfooZQ3Axs_4core5error5Error6source
FNDA:1,_RNvXs1_NtCsbetyD5oBZpQ_11cogni_tools5errorNtB5_9ToolErrorINtNtCsfvfooZQ3Axs_4core7convert4FromNtNtCsjzYHKjXEdum_10serde_json5error5ErrorE4from
FNDA:8,_RNvXs_NtCsbetyD5oBZpQ_11cogni_tools5errorNtB4_9ToolErrorNtNtCsfvfooZQ3Axs_4core3fmt7Display3fmt
FNDA:1,_RNvNtNtCsbetyD5oBZpQ_11cogni_tools5error5testss_16test_error_debug
FNDA:1,_RNvNtNtCsbetyD5oBZpQ_11cogni_tools5error5testss_16test_result_type
FNDA:1,_RNvNtNtCsbetyD5oBZpQ_11cogni_tools5error5testss_20test_tool_error_kind
FNDA:1,_RNvNtNtCsbetyD5oBZpQ_11cogni_tools5error5testss_22test_tool_error_source
FNDA:1,_RNvNtNtCsbetyD5oBZpQ_11cogni_tools5error5testss_23test_error_is_send_sync
FNDA:1,_RNvNtNtCsbetyD5oBZpQ_11cogni_tools5error5testss_23test_tool_error_display
FNDA:1,_RNvNtNtCsbetyD5oBZpQ_11cogni_tools5error5testss_24test_error_kind_equality
FNDA:1,_RNvNtNtCsbetyD5oBZpQ_11cogni_tools5error5testss_26test_from_serde_json_error
FNDA:1,_RNvNtNtCsbetyD5oBZpQ_11cogni_tools5error5testss_35test_validation_failed_empty_errors
FNDA:1,_RNvNvNtNtCsbetyD5oBZpQ_11cogni_tools5error5testss_16test_result_type10success_fn
FNDA:1,_RNvNvNtNtCsbetyD5oBZpQ_11cogni_tools5error5testss_16test_result_type8error_fn
FNF:18
FNH:18
DA:89,7
DA:90,7
DA:91,1
DA:92,1
DA:93,1
DA:94,1
DA:95,1
DA:96,1
DA:97,1
DA:99,7
DA:103,9
DA:104,9
DA:105,1
DA:106,1
DA:108,1
DA:109,1
DA:111,2
DA:112,2
DA:114,1
DA:115,1
DA:117,2
DA:118,2
DA:119,2
DA:120,2
DA:121,2
DA:122,2
DA:123,2
DA:125,1
DA:126,1
DA:128,1
DA:129,1
DA:132,9
DA:136,7
DA:137,7
DA:138,1
DA:139,1
DA:140,3
DA:141,3
DA:142,3
DA:143,1
DA:144,3
DA:146,7
DA:150,1
DA:151,1
DA:152,1
DA:153,1
DA:154,1
DA:155,1
DA:167,1
DA:168,1
DA:169,1
DA:171,1
DA:172,1
DA:173,1
DA:174,1
DA:175,1
DA:176,1
DA:178,1
DA:179,1
DA:180,1
DA:181,1
DA:182,1
DA:183,1
DA:185,1
DA:186,1
DA:187,1
DA:188,1
DA:189,1
DA:191,1
DA:192,1
DA:193,1
DA:194,1
DA:195,1
DA:197,1
DA:198,1
DA:199,1
DA:200,1
DA:201,1
DA:203,1
DA:204,1
DA:205,1
DA:206,1
DA:207,1
DA:208,1
DA:211,1
DA:212,1
DA:213,1
DA:214,1
DA:215,1
DA:216,1
DA:217,1
DA:218,1
DA:219,1
DA:220,1
DA:222,8
DA:223,7
DA:225,1
DA:228,1
DA:229,1
DA:230,1
DA:231,1
DA:234,1
DA:235,1
DA:236,1
DA:237,1
DA:238,1
DA:239,1
DA:240,1
DA:243,1
DA:244,1
DA:245,1
DA:246,1
DA:247,1
DA:248,1
DA:249,1
DA:252,1
DA:253,1
DA:254,1
DA:255,1
DA:256,1
DA:257,1
DA:260,1
DA:261,1
DA:262,1
DA:263,1
DA:264,1
DA:265,1
DA:268,1
DA:269,1
DA:271,1
DA:272,1
DA:273,1
DA:276,1
DA:277,1
DA:278,1
DA:279,1
DA:280,1
DA:281,1
DA:282,1
DA:283,1
DA:285,0
DA:287,1
DA:290,1
DA:291,1
DA:292,1
DA:293,1
DA:295,1
DA:296,1
DA:297,1
DA:299,1
DA:300,1
DA:301,1
DA:304,1
DA:305,1
DA:306,1
DA:307,1
DA:308,1
DA:309,1
DA:312,1
DA:313,1
DA:314,1
DA:315,1
DA:318,1
DA:319,1
DA:320,1
DA:321,1
DA:322,1
DA:323,1
DA:324,1
DA:327,1
DA:328,1
DA:329,1
DA:331,1
DA:332,1
DA:333,1
BRF:0
BRH:0
LF:176
LH:175
end_of_record
SF:/Users/jkh/Code/ai/cogni/cogni-tools/src/executor.rs
FN:143,_RINvMs_NtCsaHsRlZ6Cj7k_11cogni_tools8executorNtB5_23FunctionExecutorBuilder11build_asyncppEB7_
FN:152,_RNCINvMs_NtCsaHsRlZ6Cj7k_11cogni_tools8executorNtB7_23FunctionExecutorBuilder11build_asyncppE0B9_
FN:162,_RNCINvMs_NtCsaHsRlZ6Cj7k_11cogni_tools8executorNtB7_23FunctionExecutorBuilder11build_asyncppEs_0B9_
FN:46,_RINvMNtCsaHsRlZ6Cj7k_11cogni_tools8executorNtB3_16FunctionExecutor8new_syncNCNvNtB5_7builtin10calculator0EB5_
FN:46,_RINvMNtCsaHsRlZ6Cj7k_11cogni_tools8executorNtB3_16FunctionExecutor8new_syncNCNvNtB5_7builtin10json_tools0EB5_
FN:46,_RINvMNtCsaHsRlZ6Cj7k_11cogni_tools8executorNtB3_16FunctionExecutor8new_syncNCNvNtB5_7builtin10math_tools0EB5_
FN:46,_RINvMNtCsaHsRlZ6Cj7k_11cogni_tools8executorNtB3_16FunctionExecutor8new_syncNCNvNtB5_7builtin12string_tools0EB5_
FN:168,_RINvMs_NtCsaHsRlZ6Cj7k_11cogni_tools8executorNtB5_23FunctionExecutorBuilder10build_syncNCNvNtB7_7builtin10calculator0EB7_
FN:168,_RINvMs_NtCsaHsRlZ6Cj7k_11cogni_tools8executorNtB5_23FunctionExecutorBuilder10build_syncNCNvNtB7_7builtin10json_tools0EB7_
FN:168,_RINvMs_NtCsaHsRlZ6Cj7k_11cogni_tools8executorNtB5_23FunctionExecutorBuilder10build_syncNCNvNtB7_7builtin10math_tools0EB7_
FN:168,_RINvMs_NtCsaHsRlZ6Cj7k_11cogni_tools8executorNtB5_23FunctionExecutorBuilder10build_syncNCNvNtB7_7builtin12string_tools0EB7_
FN:125,_RINvMs_NtCsaHsRlZ6Cj7k_11cogni_tools8executorNtB5_23FunctionExecutorBuilder11descriptionReEB7_
FN:115,_RINvMs_NtCsaHsRlZ6Cj7k_11cogni_tools8executorNtB5_23FunctionExecutorBuilder3newReEB7_
FN:137,_RINvMs_NtCsaHsRlZ6Cj7k_11cogni_tools8executorNtB5_23FunctionExecutorBuilder7returnsReEB7_
FN:51,_RNCINvMNtCsaHsRlZ6Cj7k_11cogni_tools8executorNtB5_16FunctionExecutor8new_syncNCNvNtB7_7builtin10calculator0E0B7_
FN:51,_RNCINvMNtCsaHsRlZ6Cj7k_11cogni_tools8executorNtB5_16FunctionExecutor8new_syncNCNvNtB7_7builtin10json_tools0E0B7_
FN:51,_RNCINvMNtCsaHsRlZ6Cj7k_11cogni_tools8executorNtB5_16FunctionExecutor8new_syncNCNvNtB7_7builtin10math_tools0E0B7_
FN:51,_RNCINvMNtCsaHsRlZ6Cj7k_11cogni_tools8executorNtB5_16FunctionExecutor8new_syncNCNvNtB7_7builtin12string_tools0E0B7_
FN:176,_RNCINvMs_NtCsaHsRlZ6Cj7k_11cogni_tools8executorNtB7_23FunctionExecutorBuilder10build_syncNCNvNtB9_7builtin10calculator0E0B9_
FN:176,_RNCINvMs_NtCsaHsRlZ6Cj7k_11cogni_tools8executorNtB7_23FunctionExecutorBuilder10build_syncNCNvNtB9_7builtin10json_tools0E0B9_
FN:176,_RNCINvMs_NtCsaHsRlZ6Cj7k_11cogni_tools8executorNtB7_23FunctionExecutorBuilder10build_syncNCNvNtB9_7builtin10math_tools0E0B9_
FN:176,_RNCINvMs_NtCsaHsRlZ6Cj7k_11cogni_tools8executorNtB7_23FunctionExecutorBuilder10build_syncNCNvNtB9_7builtin12string_tools0E0B9_
FN:53,_RNCNCINvMNtCsaHsRlZ6Cj7k_11cogni_tools8executorNtB7_16FunctionExecutor8new_syncNCNvNtB9_7builtin10calculator0E00B9_
FN:53,_RNCNCINvMNtCsaHsRlZ6Cj7k_11cogni_tools8executorNtB7_16FunctionExecutor8new_syncNCNvNtB9_7builtin10json_tools0E00B9_
FN:53,_RNCNCINvMNtCsaHsRlZ6Cj7k_11cogni_tools8executorNtB7_16FunctionExecutor8new_syncNCNvNtB9_7builtin10math_tools0E00B9_
FN:53,_RNCNCINvMNtCsaHsRlZ6Cj7k_11cogni_tools8executorNtB7_16FunctionExecutor8new_syncNCNvNtB9_7builtin12string_tools0E00B9_
FN:68,_RNCNCNvXs0_NtCsaHsRlZ6Cj7k_11cogni_tools8executorNtB9_16FunctionExecutorNtB9_12ToolExecutor7execute00Bb_
FN:65,_RNCNvXs0_NtCsaHsRlZ6Cj7k_11cogni_tools8executorNtB7_16FunctionExecutorNtB7_12ToolExecutor7execute0B9_
FN:28,_RNCNvYNtNtCsaHsRlZ6Cj7k_11cogni_tools8executor16FunctionExecutorNtB6_12ToolExecutor8validate0B8_
FN:30,_RNvYNtNtCsaHsRlZ6Cj7k_11cogni_tools8executor16FunctionExecutorNtB4_12ToolExecutor8validateB6_
FN:46,_RINvMNtCsbetyD5oBZpQ_11cogni_tools8executorNtB3_16FunctionExecutor8new_syncNCNCNvNtNtB5_8registry5testss_30test_registry_basic_operations00EB5_
FN:46,_RINvMNtCsbetyD5oBZpQ_11cogni_tools8executorNtB3_16FunctionExecutor8new_syncNCNvNtB5_7builtin10calculator0EB5_
FN:46,_RINvMNtCsbetyD5oBZpQ_11cogni_tools8executorNtB3_16FunctionExecutor8new_syncNCNvNtB5_7builtin10json_tools0EB5_
FN:46,_RINvMNtCsbetyD5oBZpQ_11cogni_tools8executorNtB3_16FunctionExecutor8new_syncNCNvNtB5_7builtin10math_tools0EB5_
FN:46,_RINvMNtCsbetyD5oBZpQ_11cogni_tools8executorNtB3_16FunctionExecutor8new_syncNCNvNtB5_7builtin12string_tools0EB5_
FN:168,_RINvMs_NtCsbetyD5oBZpQ_11cogni_tools8executorNtB5_23FunctionExecutorBuilder10build_syncNCNCNvNtNtB7_8registry5testss_30test_registry_basic_operations00EB7_
FN:168,_RINvMs_NtCsbetyD5oBZpQ_11cogni_tools8executorNtB5_23FunctionExecutorBuilder10build_syncNCNvNtB7_7builtin10calculator0EB7_
FN:168,_RINvMs_NtCsbetyD5oBZpQ_11cogni_tools8executorNtB5_23FunctionExecutorBuilder10build_syncNCNvNtB7_7builtin10json_tools0EB7_
FN:168,_RINvMs_NtCsbetyD5oBZpQ_11cogni_tools8executorNtB5_23FunctionExecutorBuilder10build_syncNCNvNtB7_7builtin10math_tools0EB7_
FN:168,_RINvMs_NtCsbetyD5oBZpQ_11cogni_tools8executorNtB5_23FunctionExecutorBuilder10build_syncNCNvNtB7_7builtin12string_tools0EB7_
FN:125,_RINvMs_NtCsbetyD5oBZpQ_11cogni_tools8executorNtB5_23FunctionExecutorBuilder11descriptionReEB7_
FN:115,_RINvMs_NtCsbetyD5oBZpQ_11cogni_tools8executorNtB5_23FunctionExecutorBuilder3newReEB7_
FN:137,_RINvMs_NtCsbetyD5oBZpQ_11cogni_tools8executorNtB5_23FunctionExecutorBuilder7returnsReEB7_
FN:51,_RNCINvMNtCsbetyD5oBZpQ_11cogni_tools8executorNtB5_16FunctionExecutor8new_syncNCNCNvNtNtB7_8registry5testss_30test_registry_basic_operations00E0B7_
FN:51,_RNCINvMNtCsbetyD5oBZpQ_11cogni_tools8executorNtB5_16FunctionExecutor8new_syncNCNvNtB7_7builtin10calculator0E0B7_
FN:51,_RNCINvMNtCsbetyD5oBZpQ_11cogni_tools8executorNtB5_16FunctionExecutor8new_syncNCNvNtB7_7builtin10json_tools0E0B7_
FN:51,_RNCINvMNtCsbetyD5oBZpQ_11cogni_tools8executorNtB5_16FunctionExecutor8new_syncNCNvNtB7_7builtin10math_tools0E0B7_
FN:51,_RNCINvMNtCsbetyD5oBZpQ_11cogni_tools8executorNtB5_16FunctionExecutor8new_syncNCNvNtB7_7builtin12string_tools0E0B7_
FN:176,_RNCINvMs_NtCsbetyD5oBZpQ_11cogni_tools8executorNtB7_23FunctionExecutorBuilder10build_syncNCNCNvNtNtB9_8registry5testss_30test_registry_basic_operations00E0B9_
FN:176,_RNCINvMs_NtCsbetyD5oBZpQ_11cogni_tools8executorNtB7_23FunctionExecutorBuilder10build_syncNCNvNtB9_7builtin10calculator0E0B9_
FN:176,_RNCINvMs_NtCsbetyD5oBZpQ_11cogni_tools8executorNtB7_23FunctionExecutorBuilder10build_syncNCNvNtB9_7builtin10json_tools0E0B9_
FN:176,_RNCINvMs_NtCsbetyD5oBZpQ_11cogni_tools8executorNtB7_23FunctionExecutorBuilder10build_syncNCNvNtB9_7builtin10math_tools0E0B9_
FN:176,_RNCINvMs_NtCsbetyD5oBZpQ_11cogni_tools8executorNtB7_23FunctionExecutorBuilder10build_syncNCNvNtB9_7builtin12string_tools0E0B9_
FN:53,_RNCNCINvMNtCsbetyD5oBZpQ_11cogni_tools8executorNtB7_16FunctionExecutor8new_syncNCNCNvNtNtB9_8registry5testss_30test_registry_basic_operations00E00B9_
FN:53,_RNCNCINvMNtCsbetyD5oBZpQ_11cogni_tools8executorNtB7_16FunctionExecutor8new_syncNCNvNtB9_7builtin10calculator0E00B9_
FN:53,_RNCNCINvMNtCsbetyD5oBZpQ_11cogni_tools8executorNtB7_16FunctionExecutor8new_syncNCNvNtB9_7builtin10json_tools0E00B9_
FN:53,_RNCNCINvMNtCsbetyD5oBZpQ_11cogni_tools8executorNtB7_16FunctionExecutor8new_syncNCNvNtB9_7builtin10math_tools0E00B9_
FN:53,_RNCNCINvMNtCsbetyD5oBZpQ_11cogni_tools8executorNtB7_16FunctionExecutor8new_syncNCNvNtB9_7builtin12string_tools0E00B9_
FN:68,_RNCNCNvXs0_NtCsbetyD5oBZpQ_11cogni_tools8executorNtB9_16FunctionExecutorNtB9_12ToolExecutor7execute00Bb_
FN:65,_RNCNvXs0_NtCsbetyD5oBZpQ_11cogni_tools8executorNtB7_16FunctionExecutorNtB7_12ToolExecutor7execute0B9_
FN:28,_RNCNvYNtNtCsbetyD5oBZpQ_11cogni_tools8executor16FunctionExecutorNtB6_12ToolExecutor8validate0B8_
FN:30,_RNvYNtNtCsbetyD5oBZpQ_11cogni_tools8executor16FunctionExecutorNtB4_12ToolExecutor8validateB6_
FN:143,_RINvMs_NtCsbetyD5oBZpQ_11cogni_tools8executorNtB5_23FunctionExecutorBuilder11build_asyncppEB7_
FN:152,_RNCINvMs_NtCsbetyD5oBZpQ_11cogni_tools8executorNtB7_23FunctionExecutorBuilder11build_asyncppE0B9_
FN:162,_RNCINvMs_NtCsbetyD5oBZpQ_11cogni_tools8executorNtB7_23FunctionExecutorBuilder11build_asyncppEs_0B9_
FN:41,_RNvMNtCsbetyD5oBZpQ_11cogni_tools8executorNtB2_16FunctionExecutor3new
FN:131,_RNvMs_NtCsbetyD5oBZpQ_11cogni_tools8executorNtB4_23FunctionExecutorBuilder10parameters
FN:100,_RNvXs0_NtCsbetyD5oBZpQ_11cogni_tools8executorNtB5_16FunctionExecutorNtB5_12ToolExecutor4tool
FN:98,_RNvXs0_NtCsbetyD5oBZpQ_11cogni_tools8executorNtB5_16FunctionExecutorNtB5_12ToolExecutor7execute
FN:46,_RINvMNtCsaHsRlZ6Cj7k_11cogni_tools8executorNtB3_16FunctionExecutor8new_syncNCNCNvCskDMj0mycnZW_21tool_integration_test20create_test_registry00EB1h_
FN:46,_RINvMNtCsaHsRlZ6Cj7k_11cogni_tools8executorNtB3_16FunctionExecutor8new_syncNCNCNvCskDMj0mycnZW_21tool_integration_test20create_test_registry0s_0EB1h_
FN:46,_RINvMNtCsaHsRlZ6Cj7k_11cogni_tools8executorNtB3_16FunctionExecutor8new_syncNCNCNvCskDMj0mycnZW_21tool_integration_tests_24test_tool_error_handling00EB1h_
FN:168,_RINvMs_NtCsaHsRlZ6Cj7k_11cogni_tools8executorNtB5_23FunctionExecutorBuilder10build_syncNCNCNvCskDMj0mycnZW_21tool_integration_test20create_test_registry00EB1t_
FN:168,_RINvMs_NtCsaHsRlZ6Cj7k_11cogni_tools8executorNtB5_23FunctionExecutorBuilder10build_syncNCNCNvCskDMj0mycnZW_21tool_integration_test20create_test_registry0s_0EB1t_
FN:168,_RINvMs_NtCsaHsRlZ6Cj7k_11cogni_tools8executorNtB5_23FunctionExecutorBuilder10build_syncNCNCNvCskDMj0mycnZW_21tool_integration_tests_24test_tool_error_handling00EB1t_
FN:51,_RNCINvMNtCsaHsRlZ6Cj7k_11cogni_tools8executorNtB5_16FunctionExecutor8new_syncNCNCNvCskDMj0mycnZW_21tool_integration_test20create_test_registry00E0B1j_
FN:51,_RNCINvMNtCsaHsRlZ6Cj7k_11cogni_tools8executorNtB5_16FunctionExecutor8new_syncNCNCNvCskDMj0mycnZW_21tool_integration_test20create_test_registry0s_0E0B1j_
FN:51,_RNCINvMNtCsaHsRlZ6Cj7k_11cogni_tools8executorNtB5_16FunctionExecutor8new_syncNCNCNvCskDMj0mycnZW_21tool_integration_tests_24test_tool_error_handling00E0B1j_
FN:176,_RNCINvMs_NtCsaHsRlZ6Cj7k_11cogni_tools8executorNtB7_23FunctionExecutorBuilder10build_syncNCNCNvCskDMj0mycnZW_21tool_integration_test20create_test_registry00E0B1v_
FN:176,_RNCINvMs_NtCsaHsRlZ6Cj7k_11cogni_tools8executorNtB7_23FunctionExecutorBuilder10build_syncNCNCNvCskDMj0mycnZW_21tool_integration_test20create_test_registry0s_0E0B1v_
FN:176,_RNCINvMs_NtCsaHsRlZ6Cj7k_11cogni_tools8executorNtB7_23FunctionExecutorBuilder10build_syncNCNCNvCskDMj0mycnZW_21tool_integration_tests_24test_tool_error_handling00E0B1v_
FN:53,_RNCNCINvMNtCsaHsRlZ6Cj7k_11cogni_tools8executorNtB7_16FunctionExecutor8new_syncNCNCNvCskDMj0mycnZW_21tool_integration_test20create_test_registry00E00B1l_
FN:53,_RNCNCINvMNtCsaHsRlZ6Cj7k_11cogni_tools8executorNtB7_16FunctionExecutor8new_syncNCNCNvCskDMj0mycnZW_21tool_integration_test20create_test_registry0s_0E00B1l_
FN:53,_RNCNCINvMNtCsaHsRlZ6Cj7k_11cogni_tools8executorNtB7_16FunctionExecutor8new_syncNCNCNvCskDMj0mycnZW_21tool_integration_tests_24test_tool_error_handling00E00B1l_
FN:41,_RNvMNtCsaHsRlZ6Cj7k_11cogni_tools8executorNtB2_16FunctionExecutor3new
FN:131,_RNvMs_NtCsaHsRlZ6Cj7k_11cogni_tools8executorNtB4_23FunctionExecutorBuilder10parameters
FN:100,_RNvXs0_NtCsaHsRlZ6Cj7k_11cogni_tools8executorNtB5_16FunctionExecutorNtB5_12ToolExecutor4tool
FN:98,_RNvXs0_NtCsaHsRlZ6Cj7k_11cogni_tools8executorNtB5_16FunctionExecutorNtB5_12ToolExecutor7execute
FN:46,_RINvMNtCsaHsRlZ6Cj7k_11cogni_tools8executorNtB3_16FunctionExecutor8new_syncNCNCNvCscJLei9umsYl_19tool_streaming_test25create_streaming_registry00EB1h_
FN:168,_RINvMs_NtCsaHsRlZ6Cj7k_11cogni_tools8executorNtB5_23FunctionExecutorBuilder10build_syncNCNCNvCscJLei9umsYl_19tool_streaming_test25create_streaming_registry00EB1t_
FN:51,_RNCINvMNtCsaHsRlZ6Cj7k_11cogni_tools8executorNtB5_16FunctionExecutor8new_syncNCNCNvCscJLei9umsYl_19tool_streaming_test25create_streaming_registry00E0B1j_
FN:176,_RNCINvMs_NtCsaHsRlZ6Cj7k_11cogni_tools8executorNtB7_23FunctionExecutorBuilder10build_syncNCNCNvCscJLei9umsYl_19tool_streaming_test25create_streaming_registry00E0B1v_
FN:53,_RNCNCINvMNtCsaHsRlZ6Cj7k_11cogni_tools8executorNtB7_16FunctionExecutor8new_syncNCNCNvCscJLei9umsYl_19tool_streaming_test25create_streaming_registry00E00B1l_
FNDA:0,_RINvMs_NtCsaHsRlZ6Cj7k_11cogni_tools8executorNtB5_23FunctionExecutorBuilder11build_asyncppEB7_
FNDA:0,_RNCINvMs_NtCsaHsRlZ6Cj7k_11cogni_tools8executorNtB7_23FunctionExecutorBuilder11build_asyncppE0B9_
FNDA:0,_RNCINvMs_NtCsaHsRlZ6Cj7k_11cogni_tools8executorNtB7_23FunctionExecutorBuilder11build_asyncppEs_0B9_
FNDA:1,_RINvMNtCsaHsRlZ6Cj7k_11cogni_tools8executorNtB3_16FunctionExecutor8new_syncNCNvNtB5_7builtin10calculator0EB5_
FNDA:0,_RINvMNtCsaHsRlZ6Cj7k_11cogni_tools8executorNtB3_16FunctionExecutor8new_syncNCNvNtB5_7builtin10json_tools0EB5_
FNDA:0,_RINvMNtCsaHsRlZ6Cj7k_11cogni_tools8executorNtB3_16FunctionExecutor8new_syncNCNvNtB5_7builtin10math_tools0EB5_
FNDA:0,_RINvMNtCsaHsRlZ6Cj7k_11cogni_tools8executorNtB3_16FunctionExecutor8new_syncNCNvNtB5_7builtin12string_tools0EB5_
FNDA:1,_RINvMs_NtCsaHsRlZ6Cj7k_11cogni_tools8executorNtB5_23FunctionExecutorBuilder10build_syncNCNvNtB7_7builtin10calculator0EB7_
FNDA:0,_RINvMs_NtCsaHsRlZ6Cj7k_11cogni_tools8executorNtB5_23FunctionExecutorBuilder10build_syncNCNvNtB7_7builtin10json_tools0EB7_
FNDA:0,_RINvMs_NtCsaHsRlZ6Cj7k_11cogni_tools8executorNtB5_23FunctionExecutorBuilder10build_syncNCNvNtB7_7builtin10math_tools0EB7_
FNDA:0,_RINvMs_NtCsaHsRlZ6Cj7k_11cogni_tools8executorNtB5_23FunctionExecutorBuilder10build_syncNCNvNtB7_7builtin12string_tools0EB7_
FNDA:12,_RINvMs_NtCsaHsRlZ6Cj7k_11cogni_tools8executorNtB5_23FunctionExecutorBuilder11descriptionReEB7_
FNDA:12,_RINvMs_NtCsaHsRlZ6Cj7k_11cogni_tools8executorNtB5_23FunctionExecutorBuilder3newReEB7_
FNDA:1,_RINvMs_NtCsaHsRlZ6Cj7k_11cogni_tools8executorNtB5_23FunctionExecutorBuilder7returnsReEB7_
FNDA:1,_RNCINvMNtCsaHsRlZ6Cj7k_11cogni_tools8executorNtB5_16FunctionExecutor8new_syncNCNvNtB7_7builtin10calculator0E0B7_
FNDA:0,_RNCINvMNtCsaHsRlZ6Cj7k_11cogni_tools8executorNtB5_16FunctionExecutor8new_syncNCNvNtB7_7builtin10json_tools0E0B7_
FNDA:0,_RNCINvMNtCsaHsRlZ6Cj7k_11cogni_tools8executorNtB5_16FunctionExecutor8new_syncNCNvNtB7_7builtin10math_tools0E0B7_
FNDA:0,_RNCINvMNtCsaHsRlZ6Cj7k_11cogni_tools8executorNtB5_16FunctionExecutor8new_syncNCNvNtB7_7builtin12string_tools0E0B7_
FNDA:0,_RNCINvMs_NtCsaHsRlZ6Cj7k_11cogni_tools8executorNtB7_23FunctionExecutorBuilder10build_syncNCNvNtB9_7builtin10calculator0E0B9_
FNDA:0,_RNCINvMs_NtCsaHsRlZ6Cj7k_11cogni_tools8executorNtB7_23FunctionExecutorBuilder10build_syncNCNvNtB9_7builtin10json_tools0E0B9_
FNDA:0,_RNCINvMs_NtCsaHsRlZ6Cj7k_11cogni_tools8executorNtB7_23FunctionExecutorBuilder10build_syncNCNvNtB9_7builtin10math_tools0E0B9_
FNDA:0,_RNCINvMs_NtCsaHsRlZ6Cj7k_11cogni_tools8executorNtB7_23FunctionExecutorBuilder10build_syncNCNvNtB9_7builtin12string_tools0E0B9_
FNDA:1,_RNCNCINvMNtCsaHsRlZ6Cj7k_11cogni_tools8executorNtB7_16FunctionExecutor8new_syncNCNvNtB9_7builtin10calculator0E00B9_
FNDA:0,_RNCNCINvMNtCsaHsRlZ6Cj7k_11cogni_tools8executorNtB7_16FunctionExecutor8new_syncNCNvNtB9_7builtin10json_tools0E00B9_
FNDA:0,_RNCNCINvMNtCsaHsRlZ6Cj7k_11cogni_tools8executorNtB7_16FunctionExecutor8new_syncNCNvNtB9_7builtin10math_tools0E00B9_
FNDA:0,_RNCNCINvMNtCsaHsRlZ6Cj7k_11cogni_tools8executorNtB7_16FunctionExecutor8new_syncNCNvNtB9_7builtin12string_tools0E00B9_
FNDA:0,_RNCNCNvXs0_NtCsaHsRlZ6Cj7k_11cogni_tools8executorNtB9_16FunctionExecutorNtB9_12ToolExecutor7execute00Bb_
FNDA:8,_RNCNvXs0_NtCsaHsRlZ6Cj7k_11cogni_tools8executorNtB7_16FunctionExecutorNtB7_12ToolExecutor7execute0B9_
FNDA:8,_RNCNvYNtNtCsaHsRlZ6Cj7k_11cogni_tools8executor16FunctionExecutorNtB6_12ToolExecutor8validate0B8_
FNDA:8,_RNvYNtNtCsaHsRlZ6Cj7k_11cogni_tools8executor16FunctionExecutorNtB4_12ToolExecutor8validateB6_
FNDA:1,_RINvMNtCsbetyD5oBZpQ_11cogni_tools8executorNtB3_16FunctionExecutor8new_syncNCNCNvNtNtB5_8registry5testss_30test_registry_basic_operations00EB5_
FNDA:7,_RINvMNtCsbetyD5oBZpQ_11cogni_tools8executorNtB3_16FunctionExecutor8new_syncNCNvNtB5_7builtin10calculator0EB5_
FNDA:3,_RINvMNtCsbetyD5oBZpQ_11cogni_tools8executorNtB3_16FunctionExecutor8new_syncNCNvNtB5_7builtin10json_tools0EB5_
FNDA:4,_RINvMNtCsbetyD5oBZpQ_11cogni_tools8executorNtB3_16FunctionExecutor8new_syncNCNvNtB5_7builtin10math_tools0EB5_
FNDA:3,_RINvMNtCsbetyD5oBZpQ_11cogni_tools8executorNtB3_16FunctionExecutor8new_syncNCNvNtB5_7builtin12string_tools0EB5_
FNDA:1,_RINvMs_NtCsbetyD5oBZpQ_11cogni_tools8executorNtB5_23FunctionExecutorBuilder10build_syncNCNCNvNtNtB7_8registry5testss_30test_registry_basic_operations00EB7_
FNDA:7,_RINvMs_NtCsbetyD5oBZpQ_11cogni_tools8executorNtB5_23FunctionExecutorBuilder10build_syncNCNvNtB7_7builtin10calculator0EB7_
FNDA:3,_RINvMs_NtCsbetyD5oBZpQ_11cogni_tools8executorNtB5_23FunctionExecutorBuilder10build_syncNCNvNtB7_7builtin10json_tools0EB7_
FNDA:4,_RINvMs_NtCsbetyD5oBZpQ_11cogni_tools8executorNtB5_23FunctionExecutorBuilder10build_syncNCNvNtB7_7builtin10math_tools0EB7_
FNDA:3,_RINvMs_NtCsbetyD5oBZpQ_11cogni_tools8executorNtB5_23FunctionExecutorBuilder10build_syncNCNvNtB7_7builtin12string_tools0EB7_
FNDA:18,_RINvMs_NtCsbetyD5oBZpQ_11cogni_tools8executorNtB5_23FunctionExecutorBuilder11descriptionReEB7_
FNDA:18,_RINvMs_NtCsbetyD5oBZpQ_11cogni_tools8executorNtB5_23FunctionExecutorBuilder3newReEB7_
FNDA:17,_RINvMs_NtCsbetyD5oBZpQ_11cogni_tools8executorNtB5_23FunctionExecutorBuilder7returnsReEB7_
FNDA:1,_RNCINvMNtCsbetyD5oBZpQ_11cogni_tools8executorNtB5_16FunctionExecutor8new_syncNCNCNvNtNtB7_8registry5testss_30test_registry_basic_operations00E0B7_
FNDA:8,_RNCINvMNtCsbetyD5oBZpQ_11cogni_tools8executorNtB5_16FunctionExecutor8new_syncNCNvNtB7_7builtin10calculator0E0B7_
FNDA:10,_RNCINvMNtCsbetyD5oBZpQ_11cogni_tools8executorNtB5_16FunctionExecutor8new_syncNCNvNtB7_7builtin10json_tools0E0B7_
FNDA:14,_RNCINvMNtCsbetyD5oBZpQ_11cogni_tools8executorNtB5_16FunctionExecutor8new_syncNCNvNtB7_7builtin10math_tools0E0B7_
FNDA:9,_RNCINvMNtCsbetyD5oBZpQ_11cogni_tools8executorNtB5_16FunctionExecutor8new_syncNCNvNtB7_7builtin12string_tools0E0B7_
FNDA:0,_RNCINvMs_NtCsbetyD5oBZpQ_11cogni_tools8executorNtB7_23FunctionExecutorBuilder10build_syncNCNCNvNtNtB9_8registry5testss_30test_registry_basic_operations00E0B9_
FNDA:0,_RNCINvMs_NtCsbetyD5oBZpQ_11cogni_tools8executorNtB7_23FunctionExecutorBuilder10build_syncNCNvNtB9_7builtin10calculator0E0B9_
FNDA:0,_RNCINvMs_NtCsbetyD5oBZpQ_11cogni_tools8executorNtB7_23FunctionExecutorBuilder10build_syncNCNvNtB9_7builtin10json_tools0E0B9_
FNDA:0,_RNCINvMs_NtCsbetyD5oBZpQ_11cogni_tools8executorNtB7_23FunctionExecutorBuilder10build_syncNCNvNtB9_7builtin10math_tools0E0B9_
FNDA:0,_RNCINvMs_NtCsbetyD5oBZpQ_11cogni_tools8executorNtB7_23FunctionExecutorBuilder10build_syncNCNvNtB9_7builtin12string_tools0E0B9_
FNDA:1,_RNCNCINvMNtCsbetyD5oBZpQ_11cogni_tools8executorNtB7_16FunctionExecutor8new_syncNCNCNvNtNtB9_8registry5testss_30test_registry_basic_operations00E00B9_
FNDA:8,_RNCNCINvMNtCsbetyD5oBZpQ_11cogni_tools8executorNtB7_16FunctionExecutor8new_syncNCNvNtB9_7builtin10calculator0E00B9_
FNDA:10,_RNCNCINvMNtCsbetyD5oBZpQ_11cogni_tools8executorNtB7_16FunctionExecutor8new_syncNCNvNtB9_7builtin10json_tools0E00B9_
FNDA:14,_RNCNCINvMNtCsbetyD5oBZpQ_11cogni_tools8executorNtB7_16FunctionExecutor8new_syncNCNvNtB9_7builtin10math_tools0E00B9_
FNDA:9,_RNCNCINvMNtCsbetyD5oBZpQ_11cogni_tools8executorNtB7_16FunctionExecutor8new_syncNCNvNtB9_7builtin12string_tools0E00B9_
FNDA:0,_RNCNCNvXs0_NtCsbetyD5oBZpQ_11cogni_tools8executorNtB9_16FunctionExecutorNtB9_12ToolExecutor7execute00Bb_
FNDA:2,_RNCNvXs0_NtCsbetyD5oBZpQ_11cogni_tools8executorNtB7_16FunctionExecutorNtB7_12ToolExecutor7execute0B9_
FNDA:2,_RNCNvYNtNtCsbetyD5oBZpQ_11cogni_tools8executor16FunctionExecutorNtB6_12ToolExecutor8validate0B8_
FNDA:2,_RNvYNtNtCsbetyD5oBZpQ_11cogni_tools8executor16FunctionExecutorNtB4_12ToolExecutor8validateB6_
FNDA:0,_RINvMs_NtCsbetyD5oBZpQ_11cogni_tools8executorNtB5_23FunctionExecutorBuilder11build_asyncppEB7_
FNDA:0,_RNCINvMs_NtCsbetyD5oBZpQ_11cogni_tools8executorNtB7_23FunctionExecutorBuilder11build_asyncppE0B9_
FNDA:0,_RNCINvMs_NtCsbetyD5oBZpQ_11cogni_tools8executorNtB7_23FunctionExecutorBuilder11build_asyncppEs_0B9_
FNDA:0,_RNvMNtCsbetyD5oBZpQ_11cogni_tools8executorNtB2_16FunctionExecutor3new
FNDA:18,_RNvMs_NtCsbetyD5oBZpQ_11cogni_tools8executorNtB4_23FunctionExecutorBuilder10parameters
FNDA:23,_RNvXs0_NtCsbetyD5oBZpQ_11cogni_tools8executorNtB5_16FunctionExecutorNtB5_12ToolExecutor4tool
FNDA:2,_RNvXs0_NtCsbetyD5oBZpQ_11cogni_tools8executorNtB5_16FunctionExecutorNtB5_12ToolExecutor7execute
FNDA:4,_RINvMNtCsaHsRlZ6Cj7k_11cogni_tools8executorNtB3_16FunctionExecutor8new_syncNCNCNvCskDMj0mycnZW_21tool_integration_test20create_test_registry00EB1h_
FNDA:4,_RINvMNtCsaHsRlZ6Cj7k_11cogni_tools8executorNtB3_16FunctionExecutor8new_syncNCNCNvCskDMj0mycnZW_21tool_integration_test20create_test_registry0s_0EB1h_
FNDA:1,_RINvMNtCsaHsRlZ6Cj7k_11cogni_tools8executorNtB3_16FunctionExecutor8new_syncNCNCNvCskDMj0mycnZW_21tool_integration_tests_24test_tool_error_handling00EB1h_
FNDA:4,_RINvMs_NtCsaHsRlZ6Cj7k_11cogni_tools8executorNtB5_23FunctionExecutorBuilder10build_syncNCNCNvCskDMj0mycnZW_21tool_integration_test20create_test_registry00EB1t_
FNDA:4,_RINvMs_NtCsaHsRlZ6Cj7k_11cogni_tools8executorNtB5_23FunctionExecutorBuilder10build_syncNCNCNvCskDMj0mycnZW_21tool_integration_test20create_test_registry0s_0EB1t_
FNDA:1,_RINvMs_NtCsaHsRlZ6Cj7k_11cogni_tools8executorNtB5_23FunctionExecutorBuilder10build_syncNCNCNvCskDMj0mycnZW_21tool_integration_tests_24test_tool_error_handling00EB1t_
FNDA:4,_RNCINvMNtCsaHsRlZ6Cj7k_11cogni_tools8executorNtB5_16FunctionExecutor8new_syncNCNCNvCskDMj0mycnZW_21tool_integration_test20create_test_registry00E0B1j_
FNDA:0,_RNCINvMNtCsaHsRlZ6Cj7k_11cogni_tools8executorNtB5_16FunctionExecutor8new_syncNCNCNvCskDMj0mycnZW_21tool_integration_test20create_test_registry0s_0E0B1j_
FNDA:1,_RNCINvMNtCsaHsRlZ6Cj7k_11cogni_tools8executorNtB5_16FunctionExecutor8new_syncNCNCNvCskDMj0mycnZW_21tool_integration_tests_24test_tool_error_handling00E0B1j_
FNDA:0,_RNCINvMs_NtCsaHsRlZ6Cj7k_11cogni_tools8executorNtB7_23FunctionExecutorBuilder10build_syncNCNCNvCskDMj0mycnZW_21tool_integration_test20create_test_registry00E0B1v_
FNDA:0,_RNCINvMs_NtCsaHsRlZ6Cj7k_11cogni_tools8executorNtB7_23FunctionExecutorBuilder10build_syncNCNCNvCskDMj0mycnZW_21tool_integration_test20create_test_registry0s_0E0B1v_
FNDA:0,_RNCINvMs_NtCsaHsRlZ6Cj7k_11cogni_tools8executorNtB7_23FunctionExecutorBuilder10build_syncNCNCNvCskDMj0mycnZW_21tool_integration_tests_24test_tool_error_handling00E0B1v_
FNDA:4,_RNCNCINvMNtCsaHsRlZ6Cj7k_11cogni_tools8executorNtB7_16FunctionExecutor8new_syncNCNCNvCskDMj0mycnZW_21tool_integration_test20create_test_registry00E00B1l_
FNDA:0,_RNCNCINvMNtCsaHsRlZ6Cj7k_11cogni_tools8executorNtB7_16FunctionExecutor8new_syncNCNCNvCskDMj0mycnZW_21tool_integration_test20create_test_registry0s_0E00B1l_
FNDA:1,_RNCNCINvMNtCsaHsRlZ6Cj7k_11cogni_tools8executorNtB7_16FunctionExecutor8new_syncNCNCNvCskDMj0mycnZW_21tool_integration_tests_24test_tool_error_handling00E00B1l_
FNDA:0,_RNvMNtCsaHsRlZ6Cj7k_11cogni_tools8executorNtB2_16FunctionExecutor3new
FNDA:12,_RNvMs_NtCsaHsRlZ6Cj7k_11cogni_tools8executorNtB4_23FunctionExecutorBuilder10parameters
FNDA:12,_RNvXs0_NtCsaHsRlZ6Cj7k_11cogni_tools8executorNtB5_16FunctionExecutorNtB5_12ToolExecutor4tool
FNDA:8,_RNvXs0_NtCsaHsRlZ6Cj7k_11cogni_tools8executorNtB5_16FunctionExecutorNtB5_12ToolExecutor7execute
FNDA:2,_RINvMNtCsaHsRlZ6Cj7k_11cogni_tools8executorNtB3_16FunctionExecutor8new_syncNCNCNvCscJLei9umsYl_19tool_streaming_test25create_streaming_registry00EB1h_
FNDA:2,_RINvMs_NtCsaHsRlZ6Cj7k_11cogni_tools8executorNtB5_23FunctionExecutorBuilder10build_syncNCNCNvCscJLei9umsYl_19tool_streaming_test25create_streaming_registry00EB1t_
FNDA:2,_RNCINvMNtCsaHsRlZ6Cj7k_11cogni_tools8executorNtB5_16FunctionExecutor8new_syncNCNCNvCscJLei9umsYl_19tool_streaming_test25create_streaming_registry00E0B1j_
FNDA:0,_RNCINvMs_NtCsaHsRlZ6Cj7k_11cogni_tools8executorNtB7_23FunctionExecutorBuilder10build_syncNCNCNvCscJLei9umsYl_19tool_streaming_test25create_streaming_registry00E0B1v_
FNDA:2,_RNCNCINvMNtCsaHsRlZ6Cj7k_11cogni_tools8executorNtB7_16FunctionExecutor8new_syncNCNCNvCscJLei9umsYl_19tool_streaming_test25create_streaming_registry00E00B1l_
FNF:19
FNH:13
DA:28,10
DA:29,10
DA:30,20
DA:41,0
DA:42,0
DA:43,0
DA:46,30
DA:47,30
DA:48,30
DA:49,30
DA:50,30
DA:51,50
DA:52,50
DA:53,50
DA:54,50
DA:55,30
DA:56,30
DA:57,30
DA:58,30
DA:59,30
DA:60,30
DA:65,10
DA:67,10
DA:68,10
DA:69,0
DA:70,0
DA:71,0
DA:72,10
DA:75,10
DA:78,10
DA:79,9
DA:80,9
DA:81,9
DA:82,9
DA:83,9
DA:84,9
DA:85,9
DA:86,9
DA:87,9
DA:89,1
DA:90,1
DA:91,1
DA:92,1
DA:93,1
DA:94,1
DA:95,1
DA:98,20
DA:100,35
DA:101,35
DA:102,35
DA:115,30
DA:116,30
DA:117,30
DA:118,30
DA:119,30
DA:120,30
DA:121,30
DA:122,30
DA:125,30
DA:126,30
DA:127,30
DA:128,30
DA:131,30
DA:132,30
DA:133,30
DA:134,30
DA:137,18
DA:138,18
DA:139,18
DA:140,18
DA:143,0
DA:144,0
DA:145,0
DA:146,0
DA:147,0
DA:148,0
DA:149,0
DA:150,0
DA:151,0
DA:152,0
DA:153,0
DA:154,0
DA:155,0
DA:156,0
DA:157,0
DA:158,0
DA:159,0
DA:160,0
DA:161,0
DA:162,0
DA:163,0
DA:164,0
DA:165,0
DA:168,30
DA:169,30
DA:170,30
DA:171,30
DA:172,30
DA:173,30
DA:174,30
DA:175,30
DA:176,30
DA:177,0
DA:178,0
DA:179,0
DA:180,0
DA:181,30
DA:182,30
DA:183,30
DA:184,30
DA:185,30
DA:186,30
DA:187,30
BRF:0
BRH:0
LF:125
LH:85
end_of_record
SF:/Users/jkh/Code/ai/cogni/cogni-tools/src/registry.rs
FN:30,_RINvMNtCsaHsRlZ6Cj7k_11cogni_tools8registryNtB3_12ToolRegistry8registerpEB5_
FN:155,_RINvMs0_NtCsaHsRlZ6Cj7k_11cogni_tools8registryNtB6_15RegistryBuilder9with_toolpEB8_
FN:30,_RNCINvMNtCsaHsRlZ6Cj7k_11cogni_tools8registryNtB5_12ToolRegistry8registerpE0B7_
FN:100,_RNCNCNvMNtCsaHsRlZ6Cj7k_11cogni_tools8registryNtB6_12ToolRegistry12execute_many00B8_
FN:83,_RNCNCNvMNtCsaHsRlZ6Cj7k_11cogni_tools8registryNtB6_12ToolRegistry7execute00B8_
FN:71,_RNCNvMNtCsaHsRlZ6Cj7k_11cogni_tools8registryNtB4_12ToolRegistry10list_names0B6_
FN:60,_RNCNvMNtCsaHsRlZ6Cj7k_11cogni_tools8registryNtB4_12ToolRegistry10list_tools0B6_
FN:97,_RNCNvMNtCsaHsRlZ6Cj7k_11cogni_tools8registryNtB4_12ToolRegistry12execute_many0B6_
FN:41,_RNCNvMNtCsaHsRlZ6Cj7k_11cogni_tools8registryNtB4_12ToolRegistry13register_many0B6_
FN:54,_RNCNvMNtCsaHsRlZ6Cj7k_11cogni_tools8registryNtB4_12ToolRegistry3get0B6_
FN:123,_RNCNvMNtCsaHsRlZ6Cj7k_11cogni_tools8registryNtB4_12ToolRegistry3len0B6_
FN:111,_RNCNvMNtCsaHsRlZ6Cj7k_11cogni_tools8registryNtB4_12ToolRegistry5clear0B6_
FN:105,_RNCNvMNtCsaHsRlZ6Cj7k_11cogni_tools8registryNtB4_12ToolRegistry6remove0B6_
FN:80,_RNCNvMNtCsaHsRlZ6Cj7k_11cogni_tools8registryNtB4_12ToolRegistry7execute0B6_
FN:117,_RNCNvMNtCsaHsRlZ6Cj7k_11cogni_tools8registryNtB4_12ToolRegistry8contains0B6_
FN:129,_RNCNvMNtCsaHsRlZ6Cj7k_11cogni_tools8registryNtB4_12ToolRegistry8is_empty0B6_
FN:161,_RNCNvMs0_NtCsaHsRlZ6Cj7k_11cogni_tools8registryNtB7_15RegistryBuilder5build0B9_
FN:196,_RNCNCNCNvNtNtCsbetyD5oBZpQ_11cogni_tools8registry5testss_30test_registry_basic_operations000Bb_
FN:193,_RNCNCNvNtNtCsbetyD5oBZpQ_11cogni_tools8registry5testss_30test_registry_basic_operations00B9_
FN:181,_RNCNvNtNtCsbetyD5oBZpQ_11cogni_tools8registry5testss_30test_registry_basic_operations0B7_
FN:30,_RINvMNtCsbetyD5oBZpQ_11cogni_tools8registryNtB3_12ToolRegistry8registerNtNtB5_8executor16FunctionExecutorEB5_
FN:155,_RINvMs0_NtCsbetyD5oBZpQ_11cogni_tools8registryNtB6_15RegistryBuilder9with_toolNtNtB8_8executor16FunctionExecutorEB8_
FN:30,_RNCINvMNtCsbetyD5oBZpQ_11cogni_tools8registryNtB5_12ToolRegistry8registerNtNtB7_8executor16FunctionExecutorE0B7_
FN:83,_RNCNCNvMNtCsbetyD5oBZpQ_11cogni_tools8registryNtB6_12ToolRegistry7execute00B8_
FN:60,_RNCNvMNtCsbetyD5oBZpQ_11cogni_tools8registryNtB4_12ToolRegistry10list_tools0B6_
FN:41,_RNCNvMNtCsbetyD5oBZpQ_11cogni_tools8registryNtB4_12ToolRegistry13register_many0B6_
FN:54,_RNCNvMNtCsbetyD5oBZpQ_11cogni_tools8registryNtB4_12ToolRegistry3get0B6_
FN:123,_RNCNvMNtCsbetyD5oBZpQ_11cogni_tools8registryNtB4_12ToolRegistry3len0B6_
FN:105,_RNCNvMNtCsbetyD5oBZpQ_11cogni_tools8registryNtB4_12ToolRegistry6remove0B6_
FN:80,_RNCNvMNtCsbetyD5oBZpQ_11cogni_tools8registryNtB4_12ToolRegistry7execute0B6_
FN:117,_RNCNvMNtCsbetyD5oBZpQ_11cogni_tools8registryNtB4_12ToolRegistry8contains0B6_
FN:129,_RNCNvMNtCsbetyD5oBZpQ_11cogni_tools8registryNtB4_12ToolRegistry8is_empty0B6_
FN:161,_RNCNvMs0_NtCsbetyD5oBZpQ_11cogni_tools8registryNtB7_15RegistryBuilder5build0B9_
FN:100,_RNCNCNvMNtCsbetyD5oBZpQ_11cogni_tools8registryNtB6_12ToolRegistry12execute_many00B8_
FN:71,_RNCNvMNtCsbetyD5oBZpQ_11cogni_tools8registryNtB4_12ToolRegistry10list_names0B6_
FN:97,_RNCNvMNtCsbetyD5oBZpQ_11cogni_tools8registryNtB4_12ToolRegistry12execute_many0B6_
FN:111,_RNCNvMNtCsbetyD5oBZpQ_11cogni_tools8registryNtB4_12ToolRegistry5clear0B6_
FN:71,_RNvMNtCsbetyD5oBZpQ_11cogni_tools8registryNtB2_12ToolRegistry10list_names
FN:97,_RNvMNtCsbetyD5oBZpQ_11cogni_tools8registryNtB2_12ToolRegistry12execute_many
FN:111,_RNvMNtCsbetyD5oBZpQ_11cogni_tools8registryNtB2_12ToolRegistry5clear
FN:25,_RNvMNtCsbetyD5oBZpQ_11cogni_tools8registryNtB2_12ToolRegistry7builder
FN:169,_RNvXs1_NtCsbetyD5oBZpQ_11cogni_tools8registryNtB5_15RegistryBuilderNtNtCsfvfooZQ3Axs_4core7default7Default7default
FN:136,_RNvXs_NtCsbetyD5oBZpQ_11cogni_tools8registryNtB4_12ToolRegistryNtNtCsfvfooZQ3Axs_4core7default7Default7default
FN:181,_RNvNtNtCsbetyD5oBZpQ_11cogni_tools8registry5testss_30test_registry_basic_operations
FN:60,_RNvMNtCsbetyD5oBZpQ_11cogni_tools8registryNtB2_12ToolRegistry10list_tools
FN:41,_RNvMNtCsbetyD5oBZpQ_11cogni_tools8registryNtB2_12ToolRegistry13register_many
FN:54,_RNvMNtCsbetyD5oBZpQ_11cogni_tools8registryNtB2_12ToolRegistry3get
FN:123,_RNvMNtCsbetyD5oBZpQ_11cogni_tools8registryNtB2_12ToolRegistry3len
FN:18,_RNvMNtCsbetyD5oBZpQ_11cogni_tools8registryNtB2_12ToolRegistry3new
FN:105,_RNvMNtCsbetyD5oBZpQ_11cogni_tools8registryNtB2_12ToolRegistry6remove
FN:80,_RNvMNtCsbetyD5oBZpQ_11cogni_tools8registryNtB2_12ToolRegistry7execute
FN:117,_RNvMNtCsbetyD5oBZpQ_11cogni_tools8registryNtB2_12ToolRegistry8contains
FN:129,_RNvMNtCsbetyD5oBZpQ_11cogni_tools8registryNtB2_12ToolRegistry8is_empty
FN:148,_RNvMs0_NtCsbetyD5oBZpQ_11cogni_tools8registryNtB5_15RegistryBuilder3new
FN:161,_RNvMs0_NtCsbetyD5oBZpQ_11cogni_tools8registryNtB5_15RegistryBuilder5build
FN:30,_RINvMNtCsaHsRlZ6Cj7k_11cogni_tools8registryNtB3_12ToolRegistry8registerNtNtB5_8executor16FunctionExecutorECskDMj0mycnZW_21tool_integration_test
FN:30,_RNCINvMNtCsaHsRlZ6Cj7k_11cogni_tools8registryNtB5_12ToolRegistry8registerNtNtB7_8executor16FunctionExecutorE0CskDMj0mycnZW_21tool_integration_test
FN:100,_RNCNCNvMNtCsaHsRlZ6Cj7k_11cogni_tools8registryNtB6_12ToolRegistry12execute_many00CskDMj0mycnZW_21tool_integration_test
FN:83,_RNCNCNvMNtCsaHsRlZ6Cj7k_11cogni_tools8registryNtB6_12ToolRegistry7execute00CskDMj0mycnZW_21tool_integration_test
FN:97,_RNCNvMNtCsaHsRlZ6Cj7k_11cogni_tools8registryNtB4_12ToolRegistry12execute_many0CskDMj0mycnZW_21tool_integration_test
FN:80,_RNCNvMNtCsaHsRlZ6Cj7k_11cogni_tools8registryNtB4_12ToolRegistry7execute0CskDMj0mycnZW_21tool_integration_test
FN:71,_RNvMNtCsaHsRlZ6Cj7k_11cogni_tools8registryNtB2_12ToolRegistry10list_names
FN:60,_RNvMNtCsaHsRlZ6Cj7k_11cogni_tools8registryNtB2_12ToolRegistry10list_tools
FN:97,_RNvMNtCsaHsRlZ6Cj7k_11cogni_tools8registryNtB2_12ToolRegistry12execute_many
FN:41,_RNvMNtCsaHsRlZ6Cj7k_11cogni_tools8registryNtB2_12ToolRegistry13register_many
FN:54,_RNvMNtCsaHsRlZ6Cj7k_11cogni_tools8registryNtB2_12ToolRegistry3get
FN:123,_RNvMNtCsaHsRlZ6Cj7k_11cogni_tools8registryNtB2_12ToolRegistry3len
FN:18,_RNvMNtCsaHsRlZ6Cj7k_11cogni_tools8registryNtB2_12ToolRegistry3new
FN:111,_RNvMNtCsaHsRlZ6Cj7k_11cogni_tools8registryNtB2_12ToolRegistry5clear
FN:105,_RNvMNtCsaHsRlZ6Cj7k_11cogni_tools8registryNtB2_12ToolRegistry6remove
FN:25,_RNvMNtCsaHsRlZ6Cj7k_11cogni_tools8registryNtB2_12ToolRegistry7builder
FN:80,_RNvMNtCsaHsRlZ6Cj7k_11cogni_tools8registryNtB2_12ToolRegistry7execute
FN:117,_RNvMNtCsaHsRlZ6Cj7k_11cogni_tools8registryNtB2_12ToolRegistry8contains
FN:129,_RNvMNtCsaHsRlZ6Cj7k_11cogni_tools8registryNtB2_12ToolRegistry8is_empty
FN:148,_RNvMs0_NtCsaHsRlZ6Cj7k_11cogni_tools8registryNtB5_15RegistryBuilder3new
FN:161,_RNvMs0_NtCsaHsRlZ6Cj7k_11cogni_tools8registryNtB5_15RegistryBuilder5build
FN:169,_RNvXs1_NtCsaHsRlZ6Cj7k_11cogni_tools8registryNtB5_15RegistryBuilderNtNtCsfvfooZQ3Axs_4core7default7Default7default
FN:136,_RNvXs_NtCsaHsRlZ6Cj7k_11cogni_tools8registryNtB4_12ToolRegistryNtNtCsfvfooZQ3Axs_4core7default7Default7default
FN:30,_RINvMNtCsaHsRlZ6Cj7k_11cogni_tools8registryNtB3_12ToolRegistry8registerNtNtB5_8executor16FunctionExecutorECscJLei9umsYl_19tool_streaming_test
FN:30,_RNCINvMNtCsaHsRlZ6Cj7k_11cogni_tools8registryNtB5_12ToolRegistry8registerNtNtB7_8executor16FunctionExecutorE0CscJLei9umsYl_19tool_streaming_test
FN:83,_RNCNCNvMNtCsaHsRlZ6Cj7k_11cogni_tools8registryNtB6_12ToolRegistry7execute00CscJLei9umsYl_19tool_streaming_test
FN:80,_RNCNvMNtCsaHsRlZ6Cj7k_11cogni_tools8registryNtB4_12ToolRegistry7execute0CscJLei9umsYl_19tool_streaming_test
FNDA:0,_RINvMNtCsaHsRlZ6Cj7k_11cogni_tools8registryNtB3_12ToolRegistry8registerpEB5_
FNDA:0,_RINvMs0_NtCsaHsRlZ6Cj7k_11cogni_tools8registryNtB6_15RegistryBuilder9with_toolpEB8_
FNDA:0,_RNCINvMNtCsaHsRlZ6Cj7k_11cogni_tools8registryNtB5_12ToolRegistry8registerpE0B7_
FNDA:0,_RNCNCNvMNtCsaHsRlZ6Cj7k_11cogni_tools8registryNtB6_12ToolRegistry12execute_many00B8_
FNDA:0,_RNCNCNvMNtCsaHsRlZ6Cj7k_11cogni_tools8registryNtB6_12ToolRegistry7execute00B8_
FNDA:0,_RNCNvMNtCsaHsRlZ6Cj7k_11cogni_tools8registryNtB4_12ToolRegistry10list_names0B6_
FNDA:0,_RNCNvMNtCsaHsRlZ6Cj7k_11cogni_tools8registryNtB4_12ToolRegistry10list_tools0B6_
FNDA:0,_RNCNvMNtCsaHsRlZ6Cj7k_11cogni_tools8registryNtB4_12ToolRegistry12execute_many0B6_
FNDA:0,_RNCNvMNtCsaHsRlZ6Cj7k_11cogni_tools8registryNtB4_12ToolRegistry13register_many0B6_
FNDA:0,_RNCNvMNtCsaHsRlZ6Cj7k_11cogni_tools8registryNtB4_12ToolRegistry3get0B6_
FNDA:0,_RNCNvMNtCsaHsRlZ6Cj7k_11cogni_tools8registryNtB4_12ToolRegistry3len0B6_
FNDA:0,_RNCNvMNtCsaHsRlZ6Cj7k_11cogni_tools8registryNtB4_12ToolRegistry5clear0B6_
FNDA:0,_RNCNvMNtCsaHsRlZ6Cj7k_11cogni_tools8registryNtB4_12ToolRegistry6remove0B6_
FNDA:0,_RNCNvMNtCsaHsRlZ6Cj7k_11cogni_tools8registryNtB4_12ToolRegistry7execute0B6_
FNDA:0,_RNCNvMNtCsaHsRlZ6Cj7k_11cogni_tools8registryNtB4_12ToolRegistry8contains0B6_
FNDA:0,_RNCNvMNtCsaHsRlZ6Cj7k_11cogni_tools8registryNtB4_12ToolRegistry8is_empty0B6_
FNDA:0,_RNCNvMs0_NtCsaHsRlZ6Cj7k_11cogni_tools8registryNtB7_15RegistryBuilder5build0B9_
FNDA:1,_RNCNCNCNvNtNtCsbetyD5oBZpQ_11cogni_tools8registry5testss_30test_registry_basic_operations000Bb_
FNDA:1,_RNCNCNvNtNtCsbetyD5oBZpQ_11cogni_tools8registry5testss_30test_registry_basic_operations00B9_
FNDA:1,_RNCNvNtNtCsbetyD5oBZpQ_11cogni_tools8registry5testss_30test_registry_basic_operations0B7_
FNDA:1,_RINvMNtCsbetyD5oBZpQ_11cogni_tools8registryNtB3_12ToolRegistry8registerNtNtB5_8executor16FunctionExecutorEB5_
FNDA:5,_RINvMs0_NtCsbetyD5oBZpQ_11cogni_tools8registryNtB6_15RegistryBuilder9with_toolNtNtB8_8executor16FunctionExecutorEB8_
FNDA:1,_RNCINvMNtCsbetyD5oBZpQ_11cogni_tools8registryNtB5_12ToolRegistry8registerNtNtB7_8executor16FunctionExecutorE0B7_
FNDA:0,_RNCNCNvMNtCsbetyD5oBZpQ_11cogni_tools8registryNtB6_12ToolRegistry7execute00B8_
FNDA:1,_RNCNvMNtCsbetyD5oBZpQ_11cogni_tools8registryNtB4_12ToolRegistry10list_tools0B6_
FNDA:1,_RNCNvMNtCsbetyD5oBZpQ_11cogni_tools8registryNtB4_12ToolRegistry13register_many0B6_
FNDA:5,_RNCNvMNtCsbetyD5oBZpQ_11cogni_tools8registryNtB4_12ToolRegistry3get0B6_
FNDA:1,_RNCNvMNtCsbetyD5oBZpQ_11cogni_tools8registryNtB4_12ToolRegistry3len0B6_
FNDA:1,_RNCNvMNtCsbetyD5oBZpQ_11cogni_tools8registryNtB4_12ToolRegistry6remove0B6_
FNDA:1,_RNCNvMNtCsbetyD5oBZpQ_11cogni_tools8registryNtB4_12ToolRegistry7execute0B6_
FNDA:2,_RNCNvMNtCsbetyD5oBZpQ_11cogni_tools8registryNtB4_12ToolRegistry8contains0B6_
FNDA:1,_RNCNvMNtCsbetyD5oBZpQ_11cogni_tools8registryNtB4_12ToolRegistry8is_empty0B6_
FNDA:1,_RNCNvMs0_NtCsbetyD5oBZpQ_11cogni_tools8registryNtB7_15RegistryBuilder5build0B9_
FNDA:0,_RNCNCNvMNtCsbetyD5oBZpQ_11cogni_tools8registryNtB6_12ToolRegistry12execute_many00B8_
FNDA:0,_RNCNvMNtCsbetyD5oBZpQ_11cogni_tools8registryNtB4_12ToolRegistry10list_names0B6_
FNDA:0,_RNCNvMNtCsbetyD5oBZpQ_11cogni_tools8registryNtB4_12ToolRegistry12execute_many0B6_
FNDA:0,_RNCNvMNtCsbetyD5oBZpQ_11cogni_tools8registryNtB4_12ToolRegistry5clear0B6_
FNDA:0,_RNvMNtCsbetyD5oBZpQ_11cogni_tools8registryNtB2_12ToolRegistry10list_names
FNDA:0,_RNvMNtCsbetyD5oBZpQ_11cogni_tools8registryNtB2_12ToolRegistry12execute_many
FNDA:0,_RNvMNtCsbetyD5oBZpQ_11cogni_tools8registryNtB2_12ToolRegistry5clear
FNDA:0,_RNvMNtCsbetyD5oBZpQ_11cogni_tools8registryNtB2_12ToolRegistry7builder
FNDA:0,_RNvXs1_NtCsbetyD5oBZpQ_11cogni_tools8registryNtB5_15RegistryBuilderNtNtCsfvfooZQ3Axs_4core7default7Default7default
FNDA:0,_RNvXs_NtCsbetyD5oBZpQ_11cogni_tools8registryNtB4_12ToolRegistryNtNtCsfvfooZQ3Axs_4core7default7Default7default
FNDA:1,_RNvNtNtCsbetyD5oBZpQ_11cogni_tools8registry5testss_30test_registry_basic_operations
FNDA:1,_RNvMNtCsbetyD5oBZpQ_11cogni_tools8registryNtB2_12ToolRegistry10list_tools
FNDA:1,_RNvMNtCsbetyD5oBZpQ_11cogni_tools8registryNtB2_12ToolRegistry13register_many
FNDA:5,_RNvMNtCsbetyD5oBZpQ_11cogni_tools8registryNtB2_12ToolRegistry3get
FNDA:1,_RNvMNtCsbetyD5oBZpQ_11cogni_tools8registryNtB2_12ToolRegistry3len
FNDA:2,_RNvMNtCsbetyD5oBZpQ_11cogni_tools8registryNtB2_12ToolRegistry3new
FNDA:1,_RNvMNtCsbetyD5oBZpQ_11cogni_tools8registryNtB2_12ToolRegistry6remove
FNDA:1,_RNvMNtCsbetyD5oBZpQ_11cogni_tools8registryNtB2_12ToolRegistry7execute
FNDA:2,_RNvMNtCsbetyD5oBZpQ_11cogni_tools8registryNtB2_12ToolRegistry8contains
FNDA:1,_RNvMNtCsbetyD5oBZpQ_11cogni_tools8registryNtB2_12ToolRegistry8is_empty
FNDA:1,_RNvMs0_NtCsbetyD5oBZpQ_11cogni_tools8registryNtB5_15RegistryBuilder3new
FNDA:1,_RNvMs0_NtCsbetyD5oBZpQ_11cogni_tools8registryNtB5_15RegistryBuilder5build
FNDA:10,_RINvMNtCsaHsRlZ6Cj7k_11cogni_tools8registryNtB3_12ToolRegistry8registerNtNtB5_8executor16FunctionExecutorECskDMj0mycnZW_21tool_integration_test
FNDA:10,_RNCINvMNtCsaHsRlZ6Cj7k_11cogni_tools8registryNtB5_12ToolRegistry8registerNtNtB7_8executor16FunctionExecutorE0CskDMj0mycnZW_21tool_integration_test
FNDA:1,_RNCNCNvMNtCsaHsRlZ6Cj7k_11cogni_tools8registryNtB6_12ToolRegistry12execute_many00CskDMj0mycnZW_21tool_integration_test
FNDA:0,_RNCNCNvMNtCsaHsRlZ6Cj7k_11cogni_tools8registryNtB6_12ToolRegistry7execute00CskDMj0mycnZW_21tool_integration_test
FNDA:1,_RNCNvMNtCsaHsRlZ6Cj7k_11cogni_tools8registryNtB4_12ToolRegistry12execute_many0CskDMj0mycnZW_21tool_integration_test
FNDA:6,_RNCNvMNtCsaHsRlZ6Cj7k_11cogni_tools8registryNtB4_12ToolRegistry7execute0CskDMj0mycnZW_21tool_integration_test
FNDA:0,_RNvMNtCsaHsRlZ6Cj7k_11cogni_tools8registryNtB2_12ToolRegistry10list_names
FNDA:0,_RNvMNtCsaHsRlZ6Cj7k_11cogni_tools8registryNtB2_12ToolRegistry10list_tools
FNDA:1,_RNvMNtCsaHsRlZ6Cj7k_11cogni_tools8registryNtB2_12ToolRegistry12execute_many
FNDA:0,_RNvMNtCsaHsRlZ6Cj7k_11cogni_tools8registryNtB2_12ToolRegistry13register_many
FNDA:0,_RNvMNtCsaHsRlZ6Cj7k_11cogni_tools8registryNtB2_12ToolRegistry3get
FNDA:0,_RNvMNtCsaHsRlZ6Cj7k_11cogni_tools8registryNtB2_12ToolRegistry3len
FNDA:8,_RNvMNtCsaHsRlZ6Cj7k_11cogni_tools8registryNtB2_12ToolRegistry3new
FNDA:0,_RNvMNtCsaHsRlZ6Cj7k_11cogni_tools8registryNtB2_12ToolRegistry5clear
FNDA:0,_RNvMNtCsaHsRlZ6Cj7k_11cogni_tools8registryNtB2_12ToolRegistry6remove
FNDA:0,_RNvMNtCsaHsRlZ6Cj7k_11cogni_tools8registryNtB2_12ToolRegistry7builder
FNDA:8,_RNvMNtCsaHsRlZ6Cj7k_11cogni_tools8registryNtB2_12ToolRegistry7execute
FNDA:0,_RNvMNtCsaHsRlZ6Cj7k_11cogni_tools8registryNtB2_12ToolRegistry8contains
FNDA:0,_RNvMNtCsaHsRlZ6Cj7k_11cogni_tools8registryNtB2_12ToolRegistry8is_empty
FNDA:0,_RNvMs0_NtCsaHsRlZ6Cj7k_11cogni_tools8registryNtB5_15RegistryBuilder3new
FNDA:0,_RNvMs0_NtCsaHsRlZ6Cj7k_11cogni_tools8registryNtB5_15RegistryBuilder5build
FNDA:0,_RNvXs1_NtCsaHsRlZ6Cj7k_11cogni_tools8registryNtB5_15RegistryBuilderNtNtCsfvfooZQ3Axs_4core7default7Default7default
FNDA:0,_RNvXs_NtCsaHsRlZ6Cj7k_11cogni_tools8registryNtB4_12ToolRegistryNtNtCsfvfooZQ3Axs_4core7default7Default7default
FNDA:2,_RINvMNtCsaHsRlZ6Cj7k_11cogni_tools8registryNtB3_12ToolRegistry8registerNtNtB5_8executor16FunctionExecutorECscJLei9umsYl_19tool_streaming_test
FNDA:2,_RNCINvMNtCsaHsRlZ6Cj7k_11cogni_tools8registryNtB5_12ToolRegistry8registerNtNtB7_8executor16FunctionExecutorE0CscJLei9umsYl_19tool_streaming_test
FNDA:0,_RNCNCNvMNtCsaHsRlZ6Cj7k_11cogni_tools8registryNtB6_12ToolRegistry7execute00CscJLei9umsYl_19tool_streaming_test
FNDA:2,_RNCNvMNtCsaHsRlZ6Cj7k_11cogni_tools8registryNtB4_12ToolRegistry7execute0CscJLei9umsYl_19tool_streaming_test
FNF:38
FNH:30
DA:18,10
DA:19,10
DA:20,10
DA:21,10
DA:22,10
DA:25,0
DA:26,0
DA:27,0
DA:30,13
DA:31,13
DA:32,13
DA:34,13
DA:35,13
DA:36,13
DA:37,13
DA:38,13
DA:41,1
DA:42,1
DA:44,6
DA:45,5
DA:46,5
DA:47,5
DA:48,5
DA:50,1
DA:51,1
DA:54,5
DA:55,5
DA:56,5
DA:57,5
DA:60,1
DA:61,1
DA:63,1
DA:64,4
DA:65,4
DA:66,4
DA:67,1
DA:68,1
DA:71,0
DA:72,0
DA:74,0
DA:75,0
DA:76,0
DA:77,0
DA:80,9
DA:81,9
DA:83,9
DA:84,0
DA:85,9
DA:88,9
DA:89,9
DA:90,9
DA:91,9
DA:92,9
DA:93,9
DA:94,9
DA:97,1
DA:100,1
DA:101,1
DA:102,1
DA:105,1
DA:106,1
DA:107,1
DA:108,1
DA:111,0
DA:112,0
DA:113,0
DA:114,0
DA:117,2
DA:118,2
DA:119,2
DA:120,2
DA:123,1
DA:124,1
DA:125,1
DA:126,1
DA:129,1
DA:130,1
DA:131,1
DA:132,1
DA:136,0
DA:137,0
DA:138,0
DA:148,1
DA:149,1
DA:150,1
DA:151,1
DA:152,1
DA:155,5
DA:156,5
DA:157,5
DA:158,5
DA:161,1
DA:162,1
DA:163,1
DA:164,1
DA:165,1
DA:169,0
DA:170,0
DA:171,0
DA:181,1
DA:182,1
DA:183,1
DA:184,1
DA:185,1
DA:186,1
DA:187,1
DA:188,1
DA:189,1
DA:190,1
DA:191,1
DA:192,1
DA:193,1
DA:194,1
DA:195,1
DA:196,1
DA:197,1
DA:198,1
DA:199,1
DA:200,1
DA:201,1
DA:202,1
DA:203,1
DA:204,1
DA:205,1
DA:206,1
DA:207,1
DA:208,1
DA:209,1
DA:210,1
DA:211,1
DA:212,1
DA:213,1
DA:214,1
DA:215,1
DA:216,1
DA:217,1
DA:218,1
DA:219,1
DA:220,1
DA:221,1
DA:222,1
DA:223,1
BRF:0
BRH:0
LF:198
LH:174
end_of_record
SF:/Users/jkh/Code/ai/cogni/cogni-tools/src/validation.rs
FN:231,_RINvMs1_NtCsaHsRlZ6Cj7k_11cogni_tools10validationNtB6_22ParameterSchemaBuilder15string_requiredReB1v_EB8_
FN:249,_RINvMs1_NtCsaHsRlZ6Cj7k_11cogni_tools10validationNtB6_22ParameterSchemaBuilder6numberReB1l_EB8_
FN:218,_RINvMs1_NtCsaHsRlZ6Cj7k_11cogni_tools10validationNtB6_22ParameterSchemaBuilder6stringReB1l_EB8_
FN:28,_RNCNvMNtCsaHsRlZ6Cj7k_11cogni_tools10validationNtB4_19JsonSchemaValidator14validate_value0B6_
FN:67,_RNCNvMNtCsaHsRlZ6Cj7k_11cogni_tools10validationNtB4_19JsonSchemaValidator14validate_values0_0B6_
FN:95,_RNCNvMNtCsaHsRlZ6Cj7k_11cogni_tools10validationNtB4_19JsonSchemaValidator14validate_values1_0B6_
FN:103,_RNCNvMNtCsaHsRlZ6Cj7k_11cogni_tools10validationNtB4_19JsonSchemaValidator14validate_values2_0B6_
FN:115,_RNCNvMNtCsaHsRlZ6Cj7k_11cogni_tools10validationNtB4_19JsonSchemaValidator14validate_values3_0B6_
FN:125,_RNCNvMNtCsaHsRlZ6Cj7k_11cogni_tools10validationNtB4_19JsonSchemaValidator14validate_values4_0B6_
FN:135,_RNCNvMNtCsaHsRlZ6Cj7k_11cogni_tools10validationNtB4_19JsonSchemaValidator14validate_values5_0B6_
FN:148,_RNCNvMNtCsaHsRlZ6Cj7k_11cogni_tools10validationNtB4_19JsonSchemaValidator14validate_values6_0B6_
FN:53,_RNCNvMNtCsaHsRlZ6Cj7k_11cogni_tools10validationNtB4_19JsonSchemaValidator14validate_values_0B6_
FN:275,_RINvMs1_NtCsaHsRlZ6Cj7k_11cogni_tools10validationNtB6_22ParameterSchemaBuilder5arrayppEB8_
FN:262,_RINvMs1_NtCsaHsRlZ6Cj7k_11cogni_tools10validationNtB6_22ParameterSchemaBuilder7booleanppEB8_
FN:275,_RINvMs1_NtCsbetyD5oBZpQ_11cogni_tools10validationNtB6_22ParameterSchemaBuilder5arrayppEB8_
FN:193,_RNvNtCsbetyD5oBZpQ_11cogni_tools10validation13validate_args
FN:160,_RNvXs_NtCsbetyD5oBZpQ_11cogni_tools10validationNtB4_19JsonSchemaValidatorNtNtCsfvfooZQ3Axs_4core7default7Default7default
FN:23,_RNvMNtCsbetyD5oBZpQ_11cogni_tools10validationNtB2_19JsonSchemaValidator14validate_value
FN:17,_RNvMNtCsbetyD5oBZpQ_11cogni_tools10validationNtB2_19JsonSchemaValidator3new
FN:294,_RNvMs1_NtCsbetyD5oBZpQ_11cogni_tools10validationNtB5_22ParameterSchemaBuilder21additional_properties
FN:213,_RNvMs1_NtCsbetyD5oBZpQ_11cogni_tools10validationNtB5_22ParameterSchemaBuilder3new
FN:300,_RNvMs1_NtCsbetyD5oBZpQ_11cogni_tools10validationNtB5_22ParameterSchemaBuilder5build
FN:199,_RNvNtCsbetyD5oBZpQ_11cogni_tools10validation12param_schema
FN:181,_RNvNtCsbetyD5oBZpQ_11cogni_tools10validation15value_type_name
FN:166,_RNvXs0_NtCsbetyD5oBZpQ_11cogni_tools10validationNtB5_19JsonSchemaValidatorNtB5_13ToolValidator8validate
FN:231,_RINvMs1_NtCsbetyD5oBZpQ_11cogni_tools10validationNtB6_22ParameterSchemaBuilder15string_requiredReB1v_EB8_
FN:249,_RINvMs1_NtCsbetyD5oBZpQ_11cogni_tools10validationNtB6_22ParameterSchemaBuilder6numberReB1l_EB8_
FN:218,_RINvMs1_NtCsbetyD5oBZpQ_11cogni_tools10validationNtB6_22ParameterSchemaBuilder6stringReB1l_EB8_
FN:262,_RINvMs1_NtCsbetyD5oBZpQ_11cogni_tools10validationNtB6_22ParameterSchemaBuilder7booleanReB1m_EB8_
FN:28,_RNCNvMNtCsbetyD5oBZpQ_11cogni_tools10validationNtB4_19JsonSchemaValidator14validate_value0B6_
FN:67,_RNCNvMNtCsbetyD5oBZpQ_11cogni_tools10validationNtB4_19JsonSchemaValidator14validate_values0_0B6_
FN:95,_RNCNvMNtCsbetyD5oBZpQ_11cogni_tools10validationNtB4_19JsonSchemaValidator14validate_values1_0B6_
FN:103,_RNCNvMNtCsbetyD5oBZpQ_11cogni_tools10validationNtB4_19JsonSchemaValidator14validate_values2_0B6_
FN:115,_RNCNvMNtCsbetyD5oBZpQ_11cogni_tools10validationNtB4_19JsonSchemaValidator14validate_values3_0B6_
FN:125,_RNCNvMNtCsbetyD5oBZpQ_11cogni_tools10validationNtB4_19JsonSchemaValidator14validate_values4_0B6_
FN:135,_RNCNvMNtCsbetyD5oBZpQ_11cogni_tools10validationNtB4_19JsonSchemaValidator14validate_values5_0B6_
FN:148,_RNCNvMNtCsbetyD5oBZpQ_11cogni_tools10validationNtB4_19JsonSchemaValidator14validate_values6_0B6_
FN:53,_RNCNvMNtCsbetyD5oBZpQ_11cogni_tools10validationNtB4_19JsonSchemaValidator14validate_values_0B6_
FN:325,_RNvNtNtCsbetyD5oBZpQ_11cogni_tools10validation5testss_15test_validation
FN:351,_RNvNtNtCsbetyD5oBZpQ_11cogni_tools10validation5testss_19test_schema_builder
FN:23,_RNvMNtCsaHsRlZ6Cj7k_11cogni_tools10validationNtB2_19JsonSchemaValidator14validate_value
FN:17,_RNvMNtCsaHsRlZ6Cj7k_11cogni_tools10validationNtB2_19JsonSchemaValidator3new
FN:294,_RNvMs1_NtCsaHsRlZ6Cj7k_11cogni_tools10validationNtB5_22ParameterSchemaBuilder21additional_properties
FN:213,_RNvMs1_NtCsaHsRlZ6Cj7k_11cogni_tools10validationNtB5_22ParameterSchemaBuilder3new
FN:300,_RNvMs1_NtCsaHsRlZ6Cj7k_11cogni_tools10validationNtB5_22ParameterSchemaBuilder5build
FN:199,_RNvNtCsaHsRlZ6Cj7k_11cogni_tools10validation12param_schema
FN:193,_RNvNtCsaHsRlZ6Cj7k_11cogni_tools10validation13validate_args
FN:181,_RNvNtCsaHsRlZ6Cj7k_11cogni_tools10validation15value_type_name
FN:166,_RNvXs0_NtCsaHsRlZ6Cj7k_11cogni_tools10validationNtB5_19JsonSchemaValidatorNtB5_13ToolValidator8validate
FN:160,_RNvXs_NtCsaHsRlZ6Cj7k_11cogni_tools10validationNtB4_19JsonSchemaValidatorNtNtCsfvfooZQ3Axs_4core7default7Default7default
FNDA:1,_RINvMs1_NtCsaHsRlZ6Cj7k_11cogni_tools10validationNtB6_22ParameterSchemaBuilder15string_requiredReB1v_EB8_
FNDA:2,_RINvMs1_NtCsaHsRlZ6Cj7k_11cogni_tools10validationNtB6_22ParameterSchemaBuilder6numberReB1l_EB8_
FNDA:0,_RINvMs1_NtCsaHsRlZ6Cj7k_11cogni_tools10validationNtB6_22ParameterSchemaBuilder6stringReB1l_EB8_
FNDA:0,_RNCNvMNtCsaHsRlZ6Cj7k_11cogni_tools10validationNtB4_19JsonSchemaValidator14validate_value0B6_
FNDA:0,_RNCNvMNtCsaHsRlZ6Cj7k_11cogni_tools10validationNtB4_19JsonSchemaValidator14validate_values0_0B6_
FNDA:0,_RNCNvMNtCsaHsRlZ6Cj7k_11cogni_tools10validationNtB4_19JsonSchemaValidator14validate_values1_0B6_
FNDA:0,_RNCNvMNtCsaHsRlZ6Cj7k_11cogni_tools10validationNtB4_19JsonSchemaValidator14validate_values2_0B6_
FNDA:0,_RNCNvMNtCsaHsRlZ6Cj7k_11cogni_tools10validationNtB4_19JsonSchemaValidator14validate_values3_0B6_
FNDA:0,_RNCNvMNtCsaHsRlZ6Cj7k_11cogni_tools10validationNtB4_19JsonSchemaValidator14validate_values4_0B6_
FNDA:0,_RNCNvMNtCsaHsRlZ6Cj7k_11cogni_tools10validationNtB4_19JsonSchemaValidator14validate_values5_0B6_
FNDA:0,_RNCNvMNtCsaHsRlZ6Cj7k_11cogni_tools10validationNtB4_19JsonSchemaValidator14validate_values6_0B6_
FNDA:0,_RNCNvMNtCsaHsRlZ6Cj7k_11cogni_tools10validationNtB4_19JsonSchemaValidator14validate_values_0B6_
FNDA:0,_RINvMs1_NtCsaHsRlZ6Cj7k_11cogni_tools10validationNtB6_22ParameterSchemaBuilder5arrayppEB8_
FNDA:0,_RINvMs1_NtCsaHsRlZ6Cj7k_11cogni_tools10validationNtB6_22ParameterSchemaBuilder7booleanppEB8_
FNDA:0,_RINvMs1_NtCsbetyD5oBZpQ_11cogni_tools10validationNtB6_22ParameterSchemaBuilder5arrayppEB8_
FNDA:0,_RNvNtCsbetyD5oBZpQ_11cogni_tools10validation13validate_args
FNDA:0,_RNvXs_NtCsbetyD5oBZpQ_11cogni_tools10validationNtB4_19JsonSchemaValidatorNtNtCsfvfooZQ3Axs_4core7default7Default7default
FNDA:8,_RNvMNtCsbetyD5oBZpQ_11cogni_tools10validationNtB2_19JsonSchemaValidator14validate_value
FNDA:1,_RNvMNtCsbetyD5oBZpQ_11cogni_tools10validationNtB2_19JsonSchemaValidator3new
FNDA:3,_RNvMs1_NtCsbetyD5oBZpQ_11cogni_tools10validationNtB5_22ParameterSchemaBuilder21additional_properties
FNDA:18,_RNvMs1_NtCsbetyD5oBZpQ_11cogni_tools10validationNtB5_22ParameterSchemaBuilder3new
FNDA:18,_RNvMs1_NtCsbetyD5oBZpQ_11cogni_tools10validationNtB5_22ParameterSchemaBuilder5build
FNDA:18,_RNvNtCsbetyD5oBZpQ_11cogni_tools10validation12param_schema
FNDA:1,_RNvNtCsbetyD5oBZpQ_11cogni_tools10validation15value_type_name
FNDA:3,_RNvXs0_NtCsbetyD5oBZpQ_11cogni_tools10validationNtB5_19JsonSchemaValidatorNtB5_13ToolValidator8validate
FNDA:21,_RINvMs1_NtCsbetyD5oBZpQ_11cogni_tools10validationNtB6_22ParameterSchemaBuilder15string_requiredReB1v_EB8_
FNDA:23,_RINvMs1_NtCsbetyD5oBZpQ_11cogni_tools10validationNtB6_22ParameterSchemaBuilder6numberReB1l_EB8_
FNDA:9,_RINvMs1_NtCsbetyD5oBZpQ_11cogni_tools10validationNtB6_22ParameterSchemaBuilder6stringReB1l_EB8_
FNDA:1,_RINvMs1_NtCsbetyD5oBZpQ_11cogni_tools10validationNtB6_22ParameterSchemaBuilder7booleanReB1m_EB8_
FNDA:8,_RNCNvMNtCsbetyD5oBZpQ_11cogni_tools10validationNtB4_19JsonSchemaValidator14validate_value0B6_
FNDA:3,_RNCNvMNtCsbetyD5oBZpQ_11cogni_tools10validationNtB4_19JsonSchemaValidator14validate_values0_0B6_
FNDA:2,_RNCNvMNtCsbetyD5oBZpQ_11cogni_tools10validationNtB4_19JsonSchemaValidator14validate_values1_0B6_
FNDA:0,_RNCNvMNtCsbetyD5oBZpQ_11cogni_tools10validationNtB4_19JsonSchemaValidator14validate_values2_0B6_
FNDA:0,_RNCNvMNtCsbetyD5oBZpQ_11cogni_tools10validationNtB4_19JsonSchemaValidator14validate_values3_0B6_
FNDA:0,_RNCNvMNtCsbetyD5oBZpQ_11cogni_tools10validationNtB4_19JsonSchemaValidator14validate_values4_0B6_
FNDA:0,_RNCNvMNtCsbetyD5oBZpQ_11cogni_tools10validationNtB4_19JsonSchemaValidator14validate_values5_0B6_
FNDA:0,_RNCNvMNtCsbetyD5oBZpQ_11cogni_tools10validationNtB4_19JsonSchemaValidator14validate_values6_0B6_
FNDA:3,_RNCNvMNtCsbetyD5oBZpQ_11cogni_tools10validationNtB4_19JsonSchemaValidator14validate_values_0B6_
FNDA:1,_RNvNtNtCsbetyD5oBZpQ_11cogni_tools10validation5testss_15test_validation
FNDA:1,_RNvNtNtCsbetyD5oBZpQ_11cogni_tools10validation5testss_19test_schema_builder
FNDA:0,_RNvMNtCsaHsRlZ6Cj7k_11cogni_tools10validationNtB2_19JsonSchemaValidator14validate_value
FNDA:0,_RNvMNtCsaHsRlZ6Cj7k_11cogni_tools10validationNtB2_19JsonSchemaValidator3new
FNDA:0,_RNvMs1_NtCsaHsRlZ6Cj7k_11cogni_tools10validationNtB5_22ParameterSchemaBuilder21additional_properties
FNDA:1,_RNvMs1_NtCsaHsRlZ6Cj7k_11cogni_tools10validationNtB5_22ParameterSchemaBuilder3new
FNDA:1,_RNvMs1_NtCsaHsRlZ6Cj7k_11cogni_tools10validationNtB5_22ParameterSchemaBuilder5build
FNDA:1,_RNvNtCsaHsRlZ6Cj7k_11cogni_tools10validation12param_schema
FNDA:0,_RNvNtCsaHsRlZ6Cj7k_11cogni_tools10validation13validate_args
FNDA:0,_RNvNtCsaHsRlZ6Cj7k_11cogni_tools10validation15value_type_name
FNDA:0,_RNvXs0_NtCsaHsRlZ6Cj7k_11cogni_tools10validationNtB5_19JsonSchemaValidatorNtB5_13ToolValidator8validate
FNDA:0,_RNvXs_NtCsaHsRlZ6Cj7k_11cogni_tools10validationNtB4_19JsonSchemaValidatorNtNtCsfvfooZQ3Axs_4core7default7Default7default
FNF:26
FNH:18
DA:17,1
DA:18,1
DA:19,1
DA:23,8
DA:24,8
DA:26,8
DA:28,8
DA:29,8
DA:30,8
DA:31,6
DA:32,3
DA:33,3
DA:34,3
DA:35,3
DA:36,0
DA:37,1
DA:38,1
DA:39,1
DA:40,1
DA:41,1
DA:42,1
DA:43,1
DA:44,1
DA:46,0
DA:49,8
DA:50,3
DA:53,3
DA:54,6
DA:55,3
DA:56,3
DA:57,1
DA:58,1
DA:59,1
DA:60,1
DA:61,2
DA:62,0
DA:64,0
DA:67,3
DA:68,8
DA:69,5
DA:70,5
DA:71,5
DA:73,0
DA:75,5
DA:76,0
DA:77,0
DA:78,0
DA:79,0
DA:80,0
DA:82,0
DA:83,5
DA:86,8
DA:87,0
DA:88,0
DA:89,0
DA:91,8
DA:94,8
DA:95,2
DA:96,2
DA:97,0
DA:98,0
DA:99,0
DA:100,0
DA:101,2
DA:102,0
DA:103,2
DA:104,0
DA:105,0
DA:106,0
DA:107,0
DA:108,0
DA:109,0
DA:110,2
DA:111,6
DA:114,8
DA:115,3
DA:116,0
DA:117,0
DA:118,0
DA:119,0
DA:120,0
DA:121,0
DA:122,0
DA:123,0
DA:124,3
DA:125,3
DA:126,0
DA:127,0
DA:128,0
DA:129,0
DA:130,0
DA:131,0
DA:132,0
DA:133,0
DA:134,3
DA:135,3
DA:136,0
DA:137,0
DA:138,0
DA:139,0
DA:140,0
DA:141,0
DA:142,0
DA:143,0
DA:144,3
DA:145,5
DA:148,8
DA:149,0
DA:150,0
DA:151,0
DA:152,8
DA:153,0
DA:155,8
DA:156,8
DA:160,0
DA:161,0
DA:162,0
DA:166,3
DA:167,3
DA:169,3
DA:170,2
DA:171,2
DA:172,2
DA:173,2
DA:174,1
DA:175,1
DA:176,1
DA:177,3
DA:181,1
DA:182,1
DA:183,0
DA:184,0
DA:185,0
DA:186,1
DA:187,0
DA:188,0
DA:190,1
DA:193,0
DA:194,0
DA:195,0
DA:196,0
DA:199,19
DA:200,19
DA:201,19
DA:213,19
DA:214,19
DA:215,19
DA:218,9
DA:219,9
DA:220,9
DA:221,9
DA:222,9
DA:223,9
DA:224,9
DA:225,9
DA:226,9
DA:227,9
DA:228,9
DA:231,22
DA:232,22
DA:233,22
DA:234,22
DA:235,22
DA:236,22
DA:237,22
DA:238,22
DA:239,22
DA:240,22
DA:241,22
DA:242,22
DA:243,22
DA:244,22
DA:245,22
DA:246,22
DA:249,25
DA:250,25
DA:251,25
DA:252,25
DA:253,25
DA:254,25
DA:255,25
DA:256,25
DA:257,25
DA:258,25
DA:259,25
DA:262,1
DA:263,1
DA:264,1
DA:265,1
DA:266,1
DA:267,1
DA:268,1
DA:269,1
DA:270,1
DA:271,1
DA:272,1
DA:275,0
DA:276,0
DA:277,0
DA:278,0
DA:279,0
DA:280,0
DA:281,0
DA:282,0
DA:283,0
DA:284,0
DA:285,0
DA:286,0
DA:287,0
DA:288,0
DA:289,0
DA:290,0
DA:291,0
DA:294,3
DA:295,3
DA:296,3
DA:297,3
DA:300,19
DA:301,19
DA:302,19
DA:303,19
DA:304,19
DA:305,19
DA:306,19
DA:307,19
DA:308,19
DA:309,19
DA:311,19
DA:312,3
DA:313,16
DA:315,19
DA:316,19
DA:325,1
DA:326,1
DA:327,1
DA:328,1
DA:329,1
DA:330,1
DA:331,1
DA:332,1
DA:333,1
DA:334,1
DA:335,1
DA:336,1
DA:337,1
DA:338,1
DA:339,1
DA:342,1
DA:343,1
DA:346,1
DA:347,1
DA:348,1
DA:351,1
DA:352,1
DA:353,1
DA:354,1
DA:355,1
DA:356,1
DA:357,1
DA:358,1
DA:359,1
DA:360,1
DA:361,1
DA:362,1
DA:363,1
BRF:0
BRH:0
LF:274
LH:187
end_of_record